
apps/memtest/memtest_qemu-virt-loongarch64.elf:     file format elf64-loongarch


Disassembly of section .text:

0000000000200000 <_start>:
_start():
  200000:	0380040c 	ori	$r12,$r0,0x1
  200004:	0320018c 	lu52i.d	$r12,$r12,-2048(0x800)
  200008:	0406002c 	csrwr	$r12,0x180
  20000c:	0380440c 	ori	$r12,$r0,0x11
  200010:	0324018c 	lu52i.d	$r12,$r12,-1792(0x900)
  200014:	0406042c 	csrwr	$r12,0x181
  200018:	54b6a400 	bl	46756(0xb6a4) # 20b6bc <_ZN5axhal8platform21qemu_virt_loongarch644boot8init_mmu17h4e4aba794a36b19fE>
  20001c:	0382c00c 	ori	$r12,$r0,0xb0
  200020:	0400002c 	csrwr	$r12,0x0
  200024:	0380100c 	ori	$r12,$r0,0x4
  200028:	0400042c 	csrwr	$r12,0x1
  20002c:	0380000c 	ori	$r12,$r0,0x0
  200030:	0400082c 	csrwr	$r12,0x2
  200034:	1a000323 	pcalau12i	$r3,25(0x19)
  200038:	28eb6063 	ld.d	$r3,$r3,-1320(0xad8)
  20003c:	1400080c 	lu12i.w	$r12,64(0x40)
  200040:	0010b063 	add.d	$r3,$r3,$r12
  200044:	04008004 	csrrd	$r4,0x20
  200048:	54af0c00 	bl	44812(0xaf0c) # 20af54 <_ZN5axhal8platform21qemu_virt_loongarch6410rust_entry17h9cbe386003ea0f55E>
  20004c:	38600400 	amswap.w	$r0,$r1,$r0
  200050:	002a0000 	break	0x0
  200054:	002a0000 	break	0x0
  200058:	002a0000 	break	0x0
  20005c:	002a0000 	break	0x0
  200060:	002a0000 	break	0x0
  200064:	002a0000 	break	0x0
  200068:	002a0000 	break	0x0
  20006c:	002a0000 	break	0x0
  200070:	002a0000 	break	0x0
  200074:	002a0000 	break	0x0
  200078:	002a0000 	break	0x0
  20007c:	002a0000 	break	0x0
  200080:	002a0000 	break	0x0
  200084:	002a0000 	break	0x0
  200088:	002a0000 	break	0x0
  20008c:	002a0000 	break	0x0
  200090:	002a0000 	break	0x0
  200094:	002a0000 	break	0x0
  200098:	002a0000 	break	0x0
  20009c:	002a0000 	break	0x0
  2000a0:	002a0000 	break	0x0
  2000a4:	002a0000 	break	0x0
  2000a8:	002a0000 	break	0x0
  2000ac:	002a0000 	break	0x0
  2000b0:	002a0000 	break	0x0
  2000b4:	002a0000 	break	0x0
  2000b8:	002a0000 	break	0x0
  2000bc:	002a0000 	break	0x0
  2000c0:	002a0000 	break	0x0
  2000c4:	002a0000 	break	0x0
  2000c8:	002a0000 	break	0x0
  2000cc:	002a0000 	break	0x0
  2000d0:	002a0000 	break	0x0
  2000d4:	002a0000 	break	0x0
  2000d8:	002a0000 	break	0x0
  2000dc:	002a0000 	break	0x0
  2000e0:	002a0000 	break	0x0
  2000e4:	002a0000 	break	0x0
  2000e8:	002a0000 	break	0x0
  2000ec:	002a0000 	break	0x0
  2000f0:	002a0000 	break	0x0
  2000f4:	002a0000 	break	0x0
  2000f8:	002a0000 	break	0x0
  2000fc:	002a0000 	break	0x0
  200100:	002a0000 	break	0x0
  200104:	002a0000 	break	0x0
  200108:	002a0000 	break	0x0
  20010c:	002a0000 	break	0x0
  200110:	002a0000 	break	0x0
  200114:	002a0000 	break	0x0
  200118:	002a0000 	break	0x0
  20011c:	002a0000 	break	0x0
  200120:	002a0000 	break	0x0
  200124:	002a0000 	break	0x0
  200128:	002a0000 	break	0x0
  20012c:	002a0000 	break	0x0
  200130:	002a0000 	break	0x0
  200134:	002a0000 	break	0x0
  200138:	002a0000 	break	0x0
  20013c:	002a0000 	break	0x0
  200140:	002a0000 	break	0x0
  200144:	002a0000 	break	0x0
  200148:	002a0000 	break	0x0
  20014c:	002a0000 	break	0x0
  200150:	002a0000 	break	0x0
  200154:	002a0000 	break	0x0
  200158:	002a0000 	break	0x0
  20015c:	002a0000 	break	0x0
  200160:	002a0000 	break	0x0
  200164:	002a0000 	break	0x0
  200168:	002a0000 	break	0x0
  20016c:	002a0000 	break	0x0
  200170:	002a0000 	break	0x0
  200174:	002a0000 	break	0x0
  200178:	002a0000 	break	0x0
  20017c:	002a0000 	break	0x0
  200180:	002a0000 	break	0x0
  200184:	002a0000 	break	0x0
  200188:	002a0000 	break	0x0
  20018c:	002a0000 	break	0x0
  200190:	002a0000 	break	0x0
  200194:	002a0000 	break	0x0
  200198:	002a0000 	break	0x0
  20019c:	002a0000 	break	0x0
  2001a0:	002a0000 	break	0x0
  2001a4:	002a0000 	break	0x0
  2001a8:	002a0000 	break	0x0
  2001ac:	002a0000 	break	0x0
  2001b0:	002a0000 	break	0x0
  2001b4:	002a0000 	break	0x0
  2001b8:	002a0000 	break	0x0
  2001bc:	002a0000 	break	0x0
  2001c0:	002a0000 	break	0x0
  2001c4:	002a0000 	break	0x0
  2001c8:	002a0000 	break	0x0
  2001cc:	002a0000 	break	0x0
  2001d0:	002a0000 	break	0x0
  2001d4:	002a0000 	break	0x0
  2001d8:	002a0000 	break	0x0
  2001dc:	002a0000 	break	0x0
  2001e0:	002a0000 	break	0x0
  2001e4:	002a0000 	break	0x0
  2001e8:	002a0000 	break	0x0
  2001ec:	002a0000 	break	0x0
  2001f0:	002a0000 	break	0x0
  2001f4:	002a0000 	break	0x0
  2001f8:	002a0000 	break	0x0
  2001fc:	002a0000 	break	0x0
  200200:	002a0000 	break	0x0
  200204:	002a0000 	break	0x0
  200208:	002a0000 	break	0x0
  20020c:	002a0000 	break	0x0
  200210:	002a0000 	break	0x0
  200214:	002a0000 	break	0x0
  200218:	002a0000 	break	0x0
  20021c:	002a0000 	break	0x0
  200220:	002a0000 	break	0x0
  200224:	002a0000 	break	0x0
  200228:	002a0000 	break	0x0
  20022c:	002a0000 	break	0x0
  200230:	002a0000 	break	0x0
  200234:	002a0000 	break	0x0
  200238:	002a0000 	break	0x0
  20023c:	002a0000 	break	0x0
  200240:	002a0000 	break	0x0
  200244:	002a0000 	break	0x0
  200248:	002a0000 	break	0x0
  20024c:	002a0000 	break	0x0
  200250:	002a0000 	break	0x0
  200254:	002a0000 	break	0x0
  200258:	002a0000 	break	0x0
  20025c:	002a0000 	break	0x0
  200260:	002a0000 	break	0x0
  200264:	002a0000 	break	0x0
  200268:	002a0000 	break	0x0
  20026c:	002a0000 	break	0x0
  200270:	002a0000 	break	0x0
  200274:	002a0000 	break	0x0
  200278:	002a0000 	break	0x0
  20027c:	002a0000 	break	0x0
  200280:	002a0000 	break	0x0
  200284:	002a0000 	break	0x0
  200288:	002a0000 	break	0x0
  20028c:	002a0000 	break	0x0
  200290:	002a0000 	break	0x0
  200294:	002a0000 	break	0x0
  200298:	002a0000 	break	0x0
  20029c:	002a0000 	break	0x0
  2002a0:	002a0000 	break	0x0
  2002a4:	002a0000 	break	0x0
  2002a8:	002a0000 	break	0x0
  2002ac:	002a0000 	break	0x0
  2002b0:	002a0000 	break	0x0
  2002b4:	002a0000 	break	0x0
  2002b8:	002a0000 	break	0x0
  2002bc:	002a0000 	break	0x0
  2002c0:	002a0000 	break	0x0
  2002c4:	002a0000 	break	0x0
  2002c8:	002a0000 	break	0x0
  2002cc:	002a0000 	break	0x0
  2002d0:	002a0000 	break	0x0
  2002d4:	002a0000 	break	0x0
  2002d8:	002a0000 	break	0x0
  2002dc:	002a0000 	break	0x0
  2002e0:	002a0000 	break	0x0
  2002e4:	002a0000 	break	0x0
  2002e8:	002a0000 	break	0x0
  2002ec:	002a0000 	break	0x0
  2002f0:	002a0000 	break	0x0
  2002f4:	002a0000 	break	0x0
  2002f8:	002a0000 	break	0x0
  2002fc:	002a0000 	break	0x0
  200300:	002a0000 	break	0x0
  200304:	002a0000 	break	0x0
  200308:	002a0000 	break	0x0
  20030c:	002a0000 	break	0x0
  200310:	002a0000 	break	0x0
  200314:	002a0000 	break	0x0
  200318:	002a0000 	break	0x0
  20031c:	002a0000 	break	0x0
  200320:	002a0000 	break	0x0
  200324:	002a0000 	break	0x0
  200328:	002a0000 	break	0x0
  20032c:	002a0000 	break	0x0
  200330:	002a0000 	break	0x0
  200334:	002a0000 	break	0x0
  200338:	002a0000 	break	0x0
  20033c:	002a0000 	break	0x0
  200340:	002a0000 	break	0x0
  200344:	002a0000 	break	0x0
  200348:	002a0000 	break	0x0
  20034c:	002a0000 	break	0x0
  200350:	002a0000 	break	0x0
  200354:	002a0000 	break	0x0
  200358:	002a0000 	break	0x0
  20035c:	002a0000 	break	0x0
  200360:	002a0000 	break	0x0
  200364:	002a0000 	break	0x0
  200368:	002a0000 	break	0x0
  20036c:	002a0000 	break	0x0
  200370:	002a0000 	break	0x0
  200374:	002a0000 	break	0x0
  200378:	002a0000 	break	0x0
  20037c:	002a0000 	break	0x0
  200380:	002a0000 	break	0x0
  200384:	002a0000 	break	0x0
  200388:	002a0000 	break	0x0
  20038c:	002a0000 	break	0x0
  200390:	002a0000 	break	0x0
  200394:	002a0000 	break	0x0
  200398:	002a0000 	break	0x0
  20039c:	002a0000 	break	0x0
  2003a0:	002a0000 	break	0x0
  2003a4:	002a0000 	break	0x0
  2003a8:	002a0000 	break	0x0
  2003ac:	002a0000 	break	0x0
  2003b0:	002a0000 	break	0x0
  2003b4:	002a0000 	break	0x0
  2003b8:	002a0000 	break	0x0
  2003bc:	002a0000 	break	0x0
  2003c0:	002a0000 	break	0x0
  2003c4:	002a0000 	break	0x0
  2003c8:	002a0000 	break	0x0
  2003cc:	002a0000 	break	0x0
  2003d0:	002a0000 	break	0x0
  2003d4:	002a0000 	break	0x0
  2003d8:	002a0000 	break	0x0
  2003dc:	002a0000 	break	0x0
  2003e0:	002a0000 	break	0x0
  2003e4:	002a0000 	break	0x0
  2003e8:	002a0000 	break	0x0
  2003ec:	002a0000 	break	0x0
  2003f0:	002a0000 	break	0x0
  2003f4:	002a0000 	break	0x0
  2003f8:	002a0000 	break	0x0
  2003fc:	002a0000 	break	0x0
  200400:	002a0000 	break	0x0
  200404:	002a0000 	break	0x0
  200408:	002a0000 	break	0x0
  20040c:	002a0000 	break	0x0
  200410:	002a0000 	break	0x0
  200414:	002a0000 	break	0x0
  200418:	002a0000 	break	0x0
  20041c:	002a0000 	break	0x0
  200420:	002a0000 	break	0x0
  200424:	002a0000 	break	0x0
  200428:	002a0000 	break	0x0
  20042c:	002a0000 	break	0x0
  200430:	002a0000 	break	0x0
  200434:	002a0000 	break	0x0
  200438:	002a0000 	break	0x0
  20043c:	002a0000 	break	0x0
  200440:	002a0000 	break	0x0
  200444:	002a0000 	break	0x0
  200448:	002a0000 	break	0x0
  20044c:	002a0000 	break	0x0
  200450:	002a0000 	break	0x0
  200454:	002a0000 	break	0x0
  200458:	002a0000 	break	0x0
  20045c:	002a0000 	break	0x0
  200460:	002a0000 	break	0x0
  200464:	002a0000 	break	0x0
  200468:	002a0000 	break	0x0
  20046c:	002a0000 	break	0x0
  200470:	002a0000 	break	0x0
  200474:	002a0000 	break	0x0
  200478:	002a0000 	break	0x0
  20047c:	002a0000 	break	0x0
  200480:	002a0000 	break	0x0
  200484:	002a0000 	break	0x0
  200488:	002a0000 	break	0x0
  20048c:	002a0000 	break	0x0
  200490:	002a0000 	break	0x0
  200494:	002a0000 	break	0x0
  200498:	002a0000 	break	0x0
  20049c:	002a0000 	break	0x0
  2004a0:	002a0000 	break	0x0
  2004a4:	002a0000 	break	0x0
  2004a8:	002a0000 	break	0x0
  2004ac:	002a0000 	break	0x0
  2004b0:	002a0000 	break	0x0
  2004b4:	002a0000 	break	0x0
  2004b8:	002a0000 	break	0x0
  2004bc:	002a0000 	break	0x0
  2004c0:	002a0000 	break	0x0
  2004c4:	002a0000 	break	0x0
  2004c8:	002a0000 	break	0x0
  2004cc:	002a0000 	break	0x0
  2004d0:	002a0000 	break	0x0
  2004d4:	002a0000 	break	0x0
  2004d8:	002a0000 	break	0x0
  2004dc:	002a0000 	break	0x0
  2004e0:	002a0000 	break	0x0
  2004e4:	002a0000 	break	0x0
  2004e8:	002a0000 	break	0x0
  2004ec:	002a0000 	break	0x0
  2004f0:	002a0000 	break	0x0
  2004f4:	002a0000 	break	0x0
  2004f8:	002a0000 	break	0x0
  2004fc:	002a0000 	break	0x0
  200500:	002a0000 	break	0x0
  200504:	002a0000 	break	0x0
  200508:	002a0000 	break	0x0
  20050c:	002a0000 	break	0x0
  200510:	002a0000 	break	0x0
  200514:	002a0000 	break	0x0
  200518:	002a0000 	break	0x0
  20051c:	002a0000 	break	0x0
  200520:	002a0000 	break	0x0
  200524:	002a0000 	break	0x0
  200528:	002a0000 	break	0x0
  20052c:	002a0000 	break	0x0
  200530:	002a0000 	break	0x0
  200534:	002a0000 	break	0x0
  200538:	002a0000 	break	0x0
  20053c:	002a0000 	break	0x0
  200540:	002a0000 	break	0x0
  200544:	002a0000 	break	0x0
  200548:	002a0000 	break	0x0
  20054c:	002a0000 	break	0x0
  200550:	002a0000 	break	0x0
  200554:	002a0000 	break	0x0
  200558:	002a0000 	break	0x0
  20055c:	002a0000 	break	0x0
  200560:	002a0000 	break	0x0
  200564:	002a0000 	break	0x0
  200568:	002a0000 	break	0x0
  20056c:	002a0000 	break	0x0
  200570:	002a0000 	break	0x0
  200574:	002a0000 	break	0x0
  200578:	002a0000 	break	0x0
  20057c:	002a0000 	break	0x0
  200580:	002a0000 	break	0x0
  200584:	002a0000 	break	0x0
  200588:	002a0000 	break	0x0
  20058c:	002a0000 	break	0x0
  200590:	002a0000 	break	0x0
  200594:	002a0000 	break	0x0
  200598:	002a0000 	break	0x0
  20059c:	002a0000 	break	0x0
  2005a0:	002a0000 	break	0x0
  2005a4:	002a0000 	break	0x0
  2005a8:	002a0000 	break	0x0
  2005ac:	002a0000 	break	0x0
  2005b0:	002a0000 	break	0x0
  2005b4:	002a0000 	break	0x0
  2005b8:	002a0000 	break	0x0
  2005bc:	002a0000 	break	0x0
  2005c0:	002a0000 	break	0x0
  2005c4:	002a0000 	break	0x0
  2005c8:	002a0000 	break	0x0
  2005cc:	002a0000 	break	0x0
  2005d0:	002a0000 	break	0x0
  2005d4:	002a0000 	break	0x0
  2005d8:	002a0000 	break	0x0
  2005dc:	002a0000 	break	0x0
  2005e0:	002a0000 	break	0x0
  2005e4:	002a0000 	break	0x0
  2005e8:	002a0000 	break	0x0
  2005ec:	002a0000 	break	0x0
  2005f0:	002a0000 	break	0x0
  2005f4:	002a0000 	break	0x0
  2005f8:	002a0000 	break	0x0
  2005fc:	002a0000 	break	0x0
  200600:	002a0000 	break	0x0
  200604:	002a0000 	break	0x0
  200608:	002a0000 	break	0x0
  20060c:	002a0000 	break	0x0
  200610:	002a0000 	break	0x0
  200614:	002a0000 	break	0x0
  200618:	002a0000 	break	0x0
  20061c:	002a0000 	break	0x0
  200620:	002a0000 	break	0x0
  200624:	002a0000 	break	0x0
  200628:	002a0000 	break	0x0
  20062c:	002a0000 	break	0x0
  200630:	002a0000 	break	0x0
  200634:	002a0000 	break	0x0
  200638:	002a0000 	break	0x0
  20063c:	002a0000 	break	0x0
  200640:	002a0000 	break	0x0
  200644:	002a0000 	break	0x0
  200648:	002a0000 	break	0x0
  20064c:	002a0000 	break	0x0
  200650:	002a0000 	break	0x0
  200654:	002a0000 	break	0x0
  200658:	002a0000 	break	0x0
  20065c:	002a0000 	break	0x0
  200660:	002a0000 	break	0x0
  200664:	002a0000 	break	0x0
  200668:	002a0000 	break	0x0
  20066c:	002a0000 	break	0x0
  200670:	002a0000 	break	0x0
  200674:	002a0000 	break	0x0
  200678:	002a0000 	break	0x0
  20067c:	002a0000 	break	0x0
  200680:	002a0000 	break	0x0
  200684:	002a0000 	break	0x0
  200688:	002a0000 	break	0x0
  20068c:	002a0000 	break	0x0
  200690:	002a0000 	break	0x0
  200694:	002a0000 	break	0x0
  200698:	002a0000 	break	0x0
  20069c:	002a0000 	break	0x0
  2006a0:	002a0000 	break	0x0
  2006a4:	002a0000 	break	0x0
  2006a8:	002a0000 	break	0x0
  2006ac:	002a0000 	break	0x0
  2006b0:	002a0000 	break	0x0
  2006b4:	002a0000 	break	0x0
  2006b8:	002a0000 	break	0x0
  2006bc:	002a0000 	break	0x0
  2006c0:	002a0000 	break	0x0
  2006c4:	002a0000 	break	0x0
  2006c8:	002a0000 	break	0x0
  2006cc:	002a0000 	break	0x0
  2006d0:	002a0000 	break	0x0
  2006d4:	002a0000 	break	0x0
  2006d8:	002a0000 	break	0x0
  2006dc:	002a0000 	break	0x0
  2006e0:	002a0000 	break	0x0
  2006e4:	002a0000 	break	0x0
  2006e8:	002a0000 	break	0x0
  2006ec:	002a0000 	break	0x0
  2006f0:	002a0000 	break	0x0
  2006f4:	002a0000 	break	0x0
  2006f8:	002a0000 	break	0x0
  2006fc:	002a0000 	break	0x0
  200700:	002a0000 	break	0x0
  200704:	002a0000 	break	0x0
  200708:	002a0000 	break	0x0
  20070c:	002a0000 	break	0x0
  200710:	002a0000 	break	0x0
  200714:	002a0000 	break	0x0
  200718:	002a0000 	break	0x0
  20071c:	002a0000 	break	0x0
  200720:	002a0000 	break	0x0
  200724:	002a0000 	break	0x0
  200728:	002a0000 	break	0x0
  20072c:	002a0000 	break	0x0
  200730:	002a0000 	break	0x0
  200734:	002a0000 	break	0x0
  200738:	002a0000 	break	0x0
  20073c:	002a0000 	break	0x0
  200740:	002a0000 	break	0x0
  200744:	002a0000 	break	0x0
  200748:	002a0000 	break	0x0
  20074c:	002a0000 	break	0x0
  200750:	002a0000 	break	0x0
  200754:	002a0000 	break	0x0
  200758:	002a0000 	break	0x0
  20075c:	002a0000 	break	0x0
  200760:	002a0000 	break	0x0
  200764:	002a0000 	break	0x0
  200768:	002a0000 	break	0x0
  20076c:	002a0000 	break	0x0
  200770:	002a0000 	break	0x0
  200774:	002a0000 	break	0x0
  200778:	002a0000 	break	0x0
  20077c:	002a0000 	break	0x0
  200780:	002a0000 	break	0x0
  200784:	002a0000 	break	0x0
  200788:	002a0000 	break	0x0
  20078c:	002a0000 	break	0x0
  200790:	002a0000 	break	0x0
  200794:	002a0000 	break	0x0
  200798:	002a0000 	break	0x0
  20079c:	002a0000 	break	0x0
  2007a0:	002a0000 	break	0x0
  2007a4:	002a0000 	break	0x0
  2007a8:	002a0000 	break	0x0
  2007ac:	002a0000 	break	0x0
  2007b0:	002a0000 	break	0x0
  2007b4:	002a0000 	break	0x0
  2007b8:	002a0000 	break	0x0
  2007bc:	002a0000 	break	0x0
  2007c0:	002a0000 	break	0x0
  2007c4:	002a0000 	break	0x0
  2007c8:	002a0000 	break	0x0
  2007cc:	002a0000 	break	0x0
  2007d0:	002a0000 	break	0x0
  2007d4:	002a0000 	break	0x0
  2007d8:	002a0000 	break	0x0
  2007dc:	002a0000 	break	0x0
  2007e0:	002a0000 	break	0x0
  2007e4:	002a0000 	break	0x0
  2007e8:	002a0000 	break	0x0
  2007ec:	002a0000 	break	0x0
  2007f0:	002a0000 	break	0x0
  2007f4:	002a0000 	break	0x0
  2007f8:	002a0000 	break	0x0
  2007fc:	002a0000 	break	0x0
  200800:	002a0000 	break	0x0
  200804:	002a0000 	break	0x0
  200808:	002a0000 	break	0x0
  20080c:	002a0000 	break	0x0
  200810:	002a0000 	break	0x0
  200814:	002a0000 	break	0x0
  200818:	002a0000 	break	0x0
  20081c:	002a0000 	break	0x0
  200820:	002a0000 	break	0x0
  200824:	002a0000 	break	0x0
  200828:	002a0000 	break	0x0
  20082c:	002a0000 	break	0x0
  200830:	002a0000 	break	0x0
  200834:	002a0000 	break	0x0
  200838:	002a0000 	break	0x0
  20083c:	002a0000 	break	0x0
  200840:	002a0000 	break	0x0
  200844:	002a0000 	break	0x0
  200848:	002a0000 	break	0x0
  20084c:	002a0000 	break	0x0
  200850:	002a0000 	break	0x0
  200854:	002a0000 	break	0x0
  200858:	002a0000 	break	0x0
  20085c:	002a0000 	break	0x0
  200860:	002a0000 	break	0x0
  200864:	002a0000 	break	0x0
  200868:	002a0000 	break	0x0
  20086c:	002a0000 	break	0x0
  200870:	002a0000 	break	0x0
  200874:	002a0000 	break	0x0
  200878:	002a0000 	break	0x0
  20087c:	002a0000 	break	0x0
  200880:	002a0000 	break	0x0
  200884:	002a0000 	break	0x0
  200888:	002a0000 	break	0x0
  20088c:	002a0000 	break	0x0
  200890:	002a0000 	break	0x0
  200894:	002a0000 	break	0x0
  200898:	002a0000 	break	0x0
  20089c:	002a0000 	break	0x0
  2008a0:	002a0000 	break	0x0
  2008a4:	002a0000 	break	0x0
  2008a8:	002a0000 	break	0x0
  2008ac:	002a0000 	break	0x0
  2008b0:	002a0000 	break	0x0
  2008b4:	002a0000 	break	0x0
  2008b8:	002a0000 	break	0x0
  2008bc:	002a0000 	break	0x0
  2008c0:	002a0000 	break	0x0
  2008c4:	002a0000 	break	0x0
  2008c8:	002a0000 	break	0x0
  2008cc:	002a0000 	break	0x0
  2008d0:	002a0000 	break	0x0
  2008d4:	002a0000 	break	0x0
  2008d8:	002a0000 	break	0x0
  2008dc:	002a0000 	break	0x0
  2008e0:	002a0000 	break	0x0
  2008e4:	002a0000 	break	0x0
  2008e8:	002a0000 	break	0x0
  2008ec:	002a0000 	break	0x0
  2008f0:	002a0000 	break	0x0
  2008f4:	002a0000 	break	0x0
  2008f8:	002a0000 	break	0x0
  2008fc:	002a0000 	break	0x0
  200900:	002a0000 	break	0x0
  200904:	002a0000 	break	0x0
  200908:	002a0000 	break	0x0
  20090c:	002a0000 	break	0x0
  200910:	002a0000 	break	0x0
  200914:	002a0000 	break	0x0
  200918:	002a0000 	break	0x0
  20091c:	002a0000 	break	0x0
  200920:	002a0000 	break	0x0
  200924:	002a0000 	break	0x0
  200928:	002a0000 	break	0x0
  20092c:	002a0000 	break	0x0
  200930:	002a0000 	break	0x0
  200934:	002a0000 	break	0x0
  200938:	002a0000 	break	0x0
  20093c:	002a0000 	break	0x0
  200940:	002a0000 	break	0x0
  200944:	002a0000 	break	0x0
  200948:	002a0000 	break	0x0
  20094c:	002a0000 	break	0x0
  200950:	002a0000 	break	0x0
  200954:	002a0000 	break	0x0
  200958:	002a0000 	break	0x0
  20095c:	002a0000 	break	0x0
  200960:	002a0000 	break	0x0
  200964:	002a0000 	break	0x0
  200968:	002a0000 	break	0x0
  20096c:	002a0000 	break	0x0
  200970:	002a0000 	break	0x0
  200974:	002a0000 	break	0x0
  200978:	002a0000 	break	0x0
  20097c:	002a0000 	break	0x0
  200980:	002a0000 	break	0x0
  200984:	002a0000 	break	0x0
  200988:	002a0000 	break	0x0
  20098c:	002a0000 	break	0x0
  200990:	002a0000 	break	0x0
  200994:	002a0000 	break	0x0
  200998:	002a0000 	break	0x0
  20099c:	002a0000 	break	0x0
  2009a0:	002a0000 	break	0x0
  2009a4:	002a0000 	break	0x0
  2009a8:	002a0000 	break	0x0
  2009ac:	002a0000 	break	0x0
  2009b0:	002a0000 	break	0x0
  2009b4:	002a0000 	break	0x0
  2009b8:	002a0000 	break	0x0
  2009bc:	002a0000 	break	0x0
  2009c0:	002a0000 	break	0x0
  2009c4:	002a0000 	break	0x0
  2009c8:	002a0000 	break	0x0
  2009cc:	002a0000 	break	0x0
  2009d0:	002a0000 	break	0x0
  2009d4:	002a0000 	break	0x0
  2009d8:	002a0000 	break	0x0
  2009dc:	002a0000 	break	0x0
  2009e0:	002a0000 	break	0x0
  2009e4:	002a0000 	break	0x0
  2009e8:	002a0000 	break	0x0
  2009ec:	002a0000 	break	0x0
  2009f0:	002a0000 	break	0x0
  2009f4:	002a0000 	break	0x0
  2009f8:	002a0000 	break	0x0
  2009fc:	002a0000 	break	0x0
  200a00:	002a0000 	break	0x0
  200a04:	002a0000 	break	0x0
  200a08:	002a0000 	break	0x0
  200a0c:	002a0000 	break	0x0
  200a10:	002a0000 	break	0x0
  200a14:	002a0000 	break	0x0
  200a18:	002a0000 	break	0x0
  200a1c:	002a0000 	break	0x0
  200a20:	002a0000 	break	0x0
  200a24:	002a0000 	break	0x0
  200a28:	002a0000 	break	0x0
  200a2c:	002a0000 	break	0x0
  200a30:	002a0000 	break	0x0
  200a34:	002a0000 	break	0x0
  200a38:	002a0000 	break	0x0
  200a3c:	002a0000 	break	0x0
  200a40:	002a0000 	break	0x0
  200a44:	002a0000 	break	0x0
  200a48:	002a0000 	break	0x0
  200a4c:	002a0000 	break	0x0
  200a50:	002a0000 	break	0x0
  200a54:	002a0000 	break	0x0
  200a58:	002a0000 	break	0x0
  200a5c:	002a0000 	break	0x0
  200a60:	002a0000 	break	0x0
  200a64:	002a0000 	break	0x0
  200a68:	002a0000 	break	0x0
  200a6c:	002a0000 	break	0x0
  200a70:	002a0000 	break	0x0
  200a74:	002a0000 	break	0x0
  200a78:	002a0000 	break	0x0
  200a7c:	002a0000 	break	0x0
  200a80:	002a0000 	break	0x0
  200a84:	002a0000 	break	0x0
  200a88:	002a0000 	break	0x0
  200a8c:	002a0000 	break	0x0
  200a90:	002a0000 	break	0x0
  200a94:	002a0000 	break	0x0
  200a98:	002a0000 	break	0x0
  200a9c:	002a0000 	break	0x0
  200aa0:	002a0000 	break	0x0
  200aa4:	002a0000 	break	0x0
  200aa8:	002a0000 	break	0x0
  200aac:	002a0000 	break	0x0
  200ab0:	002a0000 	break	0x0
  200ab4:	002a0000 	break	0x0
  200ab8:	002a0000 	break	0x0
  200abc:	002a0000 	break	0x0
  200ac0:	002a0000 	break	0x0
  200ac4:	002a0000 	break	0x0
  200ac8:	002a0000 	break	0x0
  200acc:	002a0000 	break	0x0
  200ad0:	002a0000 	break	0x0
  200ad4:	002a0000 	break	0x0
  200ad8:	002a0000 	break	0x0
  200adc:	002a0000 	break	0x0
  200ae0:	002a0000 	break	0x0
  200ae4:	002a0000 	break	0x0
  200ae8:	002a0000 	break	0x0
  200aec:	002a0000 	break	0x0
  200af0:	002a0000 	break	0x0
  200af4:	002a0000 	break	0x0
  200af8:	002a0000 	break	0x0
  200afc:	002a0000 	break	0x0
  200b00:	002a0000 	break	0x0
  200b04:	002a0000 	break	0x0
  200b08:	002a0000 	break	0x0
  200b0c:	002a0000 	break	0x0
  200b10:	002a0000 	break	0x0
  200b14:	002a0000 	break	0x0
  200b18:	002a0000 	break	0x0
  200b1c:	002a0000 	break	0x0
  200b20:	002a0000 	break	0x0
  200b24:	002a0000 	break	0x0
  200b28:	002a0000 	break	0x0
  200b2c:	002a0000 	break	0x0
  200b30:	002a0000 	break	0x0
  200b34:	002a0000 	break	0x0
  200b38:	002a0000 	break	0x0
  200b3c:	002a0000 	break	0x0
  200b40:	002a0000 	break	0x0
  200b44:	002a0000 	break	0x0
  200b48:	002a0000 	break	0x0
  200b4c:	002a0000 	break	0x0
  200b50:	002a0000 	break	0x0
  200b54:	002a0000 	break	0x0
  200b58:	002a0000 	break	0x0
  200b5c:	002a0000 	break	0x0
  200b60:	002a0000 	break	0x0
  200b64:	002a0000 	break	0x0
  200b68:	002a0000 	break	0x0
  200b6c:	002a0000 	break	0x0
  200b70:	002a0000 	break	0x0
  200b74:	002a0000 	break	0x0
  200b78:	002a0000 	break	0x0
  200b7c:	002a0000 	break	0x0
  200b80:	002a0000 	break	0x0
  200b84:	002a0000 	break	0x0
  200b88:	002a0000 	break	0x0
  200b8c:	002a0000 	break	0x0
  200b90:	002a0000 	break	0x0
  200b94:	002a0000 	break	0x0
  200b98:	002a0000 	break	0x0
  200b9c:	002a0000 	break	0x0
  200ba0:	002a0000 	break	0x0
  200ba4:	002a0000 	break	0x0
  200ba8:	002a0000 	break	0x0
  200bac:	002a0000 	break	0x0
  200bb0:	002a0000 	break	0x0
  200bb4:	002a0000 	break	0x0
  200bb8:	002a0000 	break	0x0
  200bbc:	002a0000 	break	0x0
  200bc0:	002a0000 	break	0x0
  200bc4:	002a0000 	break	0x0
  200bc8:	002a0000 	break	0x0
  200bcc:	002a0000 	break	0x0
  200bd0:	002a0000 	break	0x0
  200bd4:	002a0000 	break	0x0
  200bd8:	002a0000 	break	0x0
  200bdc:	002a0000 	break	0x0
  200be0:	002a0000 	break	0x0
  200be4:	002a0000 	break	0x0
  200be8:	002a0000 	break	0x0
  200bec:	002a0000 	break	0x0
  200bf0:	002a0000 	break	0x0
  200bf4:	002a0000 	break	0x0
  200bf8:	002a0000 	break	0x0
  200bfc:	002a0000 	break	0x0
  200c00:	002a0000 	break	0x0
  200c04:	002a0000 	break	0x0
  200c08:	002a0000 	break	0x0
  200c0c:	002a0000 	break	0x0
  200c10:	002a0000 	break	0x0
  200c14:	002a0000 	break	0x0
  200c18:	002a0000 	break	0x0
  200c1c:	002a0000 	break	0x0
  200c20:	002a0000 	break	0x0
  200c24:	002a0000 	break	0x0
  200c28:	002a0000 	break	0x0
  200c2c:	002a0000 	break	0x0
  200c30:	002a0000 	break	0x0
  200c34:	002a0000 	break	0x0
  200c38:	002a0000 	break	0x0
  200c3c:	002a0000 	break	0x0
  200c40:	002a0000 	break	0x0
  200c44:	002a0000 	break	0x0
  200c48:	002a0000 	break	0x0
  200c4c:	002a0000 	break	0x0
  200c50:	002a0000 	break	0x0
  200c54:	002a0000 	break	0x0
  200c58:	002a0000 	break	0x0
  200c5c:	002a0000 	break	0x0
  200c60:	002a0000 	break	0x0
  200c64:	002a0000 	break	0x0
  200c68:	002a0000 	break	0x0
  200c6c:	002a0000 	break	0x0
  200c70:	002a0000 	break	0x0
  200c74:	002a0000 	break	0x0
  200c78:	002a0000 	break	0x0
  200c7c:	002a0000 	break	0x0
  200c80:	002a0000 	break	0x0
  200c84:	002a0000 	break	0x0
  200c88:	002a0000 	break	0x0
  200c8c:	002a0000 	break	0x0
  200c90:	002a0000 	break	0x0
  200c94:	002a0000 	break	0x0
  200c98:	002a0000 	break	0x0
  200c9c:	002a0000 	break	0x0
  200ca0:	002a0000 	break	0x0
  200ca4:	002a0000 	break	0x0
  200ca8:	002a0000 	break	0x0
  200cac:	002a0000 	break	0x0
  200cb0:	002a0000 	break	0x0
  200cb4:	002a0000 	break	0x0
  200cb8:	002a0000 	break	0x0
  200cbc:	002a0000 	break	0x0
  200cc0:	002a0000 	break	0x0
  200cc4:	002a0000 	break	0x0
  200cc8:	002a0000 	break	0x0
  200ccc:	002a0000 	break	0x0
  200cd0:	002a0000 	break	0x0
  200cd4:	002a0000 	break	0x0
  200cd8:	002a0000 	break	0x0
  200cdc:	002a0000 	break	0x0
  200ce0:	002a0000 	break	0x0
  200ce4:	002a0000 	break	0x0
  200ce8:	002a0000 	break	0x0
  200cec:	002a0000 	break	0x0
  200cf0:	002a0000 	break	0x0
  200cf4:	002a0000 	break	0x0
  200cf8:	002a0000 	break	0x0
  200cfc:	002a0000 	break	0x0
  200d00:	002a0000 	break	0x0
  200d04:	002a0000 	break	0x0
  200d08:	002a0000 	break	0x0
  200d0c:	002a0000 	break	0x0
  200d10:	002a0000 	break	0x0
  200d14:	002a0000 	break	0x0
  200d18:	002a0000 	break	0x0
  200d1c:	002a0000 	break	0x0
  200d20:	002a0000 	break	0x0
  200d24:	002a0000 	break	0x0
  200d28:	002a0000 	break	0x0
  200d2c:	002a0000 	break	0x0
  200d30:	002a0000 	break	0x0
  200d34:	002a0000 	break	0x0
  200d38:	002a0000 	break	0x0
  200d3c:	002a0000 	break	0x0
  200d40:	002a0000 	break	0x0
  200d44:	002a0000 	break	0x0
  200d48:	002a0000 	break	0x0
  200d4c:	002a0000 	break	0x0
  200d50:	002a0000 	break	0x0
  200d54:	002a0000 	break	0x0
  200d58:	002a0000 	break	0x0
  200d5c:	002a0000 	break	0x0
  200d60:	002a0000 	break	0x0
  200d64:	002a0000 	break	0x0
  200d68:	002a0000 	break	0x0
  200d6c:	002a0000 	break	0x0
  200d70:	002a0000 	break	0x0
  200d74:	002a0000 	break	0x0
  200d78:	002a0000 	break	0x0
  200d7c:	002a0000 	break	0x0
  200d80:	002a0000 	break	0x0
  200d84:	002a0000 	break	0x0
  200d88:	002a0000 	break	0x0
  200d8c:	002a0000 	break	0x0
  200d90:	002a0000 	break	0x0
  200d94:	002a0000 	break	0x0
  200d98:	002a0000 	break	0x0
  200d9c:	002a0000 	break	0x0
  200da0:	002a0000 	break	0x0
  200da4:	002a0000 	break	0x0
  200da8:	002a0000 	break	0x0
  200dac:	002a0000 	break	0x0
  200db0:	002a0000 	break	0x0
  200db4:	002a0000 	break	0x0
  200db8:	002a0000 	break	0x0
  200dbc:	002a0000 	break	0x0
  200dc0:	002a0000 	break	0x0
  200dc4:	002a0000 	break	0x0
  200dc8:	002a0000 	break	0x0
  200dcc:	002a0000 	break	0x0
  200dd0:	002a0000 	break	0x0
  200dd4:	002a0000 	break	0x0
  200dd8:	002a0000 	break	0x0
  200ddc:	002a0000 	break	0x0
  200de0:	002a0000 	break	0x0
  200de4:	002a0000 	break	0x0
  200de8:	002a0000 	break	0x0
  200dec:	002a0000 	break	0x0
  200df0:	002a0000 	break	0x0
  200df4:	002a0000 	break	0x0
  200df8:	002a0000 	break	0x0
  200dfc:	002a0000 	break	0x0
  200e00:	002a0000 	break	0x0
  200e04:	002a0000 	break	0x0
  200e08:	002a0000 	break	0x0
  200e0c:	002a0000 	break	0x0
  200e10:	002a0000 	break	0x0
  200e14:	002a0000 	break	0x0
  200e18:	002a0000 	break	0x0
  200e1c:	002a0000 	break	0x0
  200e20:	002a0000 	break	0x0
  200e24:	002a0000 	break	0x0
  200e28:	002a0000 	break	0x0
  200e2c:	002a0000 	break	0x0
  200e30:	002a0000 	break	0x0
  200e34:	002a0000 	break	0x0
  200e38:	002a0000 	break	0x0
  200e3c:	002a0000 	break	0x0
  200e40:	002a0000 	break	0x0
  200e44:	002a0000 	break	0x0
  200e48:	002a0000 	break	0x0
  200e4c:	002a0000 	break	0x0
  200e50:	002a0000 	break	0x0
  200e54:	002a0000 	break	0x0
  200e58:	002a0000 	break	0x0
  200e5c:	002a0000 	break	0x0
  200e60:	002a0000 	break	0x0
  200e64:	002a0000 	break	0x0
  200e68:	002a0000 	break	0x0
  200e6c:	002a0000 	break	0x0
  200e70:	002a0000 	break	0x0
  200e74:	002a0000 	break	0x0
  200e78:	002a0000 	break	0x0
  200e7c:	002a0000 	break	0x0
  200e80:	002a0000 	break	0x0
  200e84:	002a0000 	break	0x0
  200e88:	002a0000 	break	0x0
  200e8c:	002a0000 	break	0x0
  200e90:	002a0000 	break	0x0
  200e94:	002a0000 	break	0x0
  200e98:	002a0000 	break	0x0
  200e9c:	002a0000 	break	0x0
  200ea0:	002a0000 	break	0x0
  200ea4:	002a0000 	break	0x0
  200ea8:	002a0000 	break	0x0
  200eac:	002a0000 	break	0x0
  200eb0:	002a0000 	break	0x0
  200eb4:	002a0000 	break	0x0
  200eb8:	002a0000 	break	0x0
  200ebc:	002a0000 	break	0x0
  200ec0:	002a0000 	break	0x0
  200ec4:	002a0000 	break	0x0
  200ec8:	002a0000 	break	0x0
  200ecc:	002a0000 	break	0x0
  200ed0:	002a0000 	break	0x0
  200ed4:	002a0000 	break	0x0
  200ed8:	002a0000 	break	0x0
  200edc:	002a0000 	break	0x0
  200ee0:	002a0000 	break	0x0
  200ee4:	002a0000 	break	0x0
  200ee8:	002a0000 	break	0x0
  200eec:	002a0000 	break	0x0
  200ef0:	002a0000 	break	0x0
  200ef4:	002a0000 	break	0x0
  200ef8:	002a0000 	break	0x0
  200efc:	002a0000 	break	0x0
  200f00:	002a0000 	break	0x0
  200f04:	002a0000 	break	0x0
  200f08:	002a0000 	break	0x0
  200f0c:	002a0000 	break	0x0
  200f10:	002a0000 	break	0x0
  200f14:	002a0000 	break	0x0
  200f18:	002a0000 	break	0x0
  200f1c:	002a0000 	break	0x0
  200f20:	002a0000 	break	0x0
  200f24:	002a0000 	break	0x0
  200f28:	002a0000 	break	0x0
  200f2c:	002a0000 	break	0x0
  200f30:	002a0000 	break	0x0
  200f34:	002a0000 	break	0x0
  200f38:	002a0000 	break	0x0
  200f3c:	002a0000 	break	0x0
  200f40:	002a0000 	break	0x0
  200f44:	002a0000 	break	0x0
  200f48:	002a0000 	break	0x0
  200f4c:	002a0000 	break	0x0
  200f50:	002a0000 	break	0x0
  200f54:	002a0000 	break	0x0
  200f58:	002a0000 	break	0x0
  200f5c:	002a0000 	break	0x0
  200f60:	002a0000 	break	0x0
  200f64:	002a0000 	break	0x0
  200f68:	002a0000 	break	0x0
  200f6c:	002a0000 	break	0x0
  200f70:	002a0000 	break	0x0
  200f74:	002a0000 	break	0x0
  200f78:	002a0000 	break	0x0
  200f7c:	002a0000 	break	0x0
  200f80:	002a0000 	break	0x0
  200f84:	002a0000 	break	0x0
  200f88:	002a0000 	break	0x0
  200f8c:	002a0000 	break	0x0
  200f90:	002a0000 	break	0x0
  200f94:	002a0000 	break	0x0
  200f98:	002a0000 	break	0x0
  200f9c:	002a0000 	break	0x0
  200fa0:	002a0000 	break	0x0
  200fa4:	002a0000 	break	0x0
  200fa8:	002a0000 	break	0x0
  200fac:	002a0000 	break	0x0
  200fb0:	002a0000 	break	0x0
  200fb4:	002a0000 	break	0x0
  200fb8:	002a0000 	break	0x0
  200fbc:	002a0000 	break	0x0
  200fc0:	002a0000 	break	0x0
  200fc4:	002a0000 	break	0x0
  200fc8:	002a0000 	break	0x0
  200fcc:	002a0000 	break	0x0
  200fd0:	002a0000 	break	0x0
  200fd4:	002a0000 	break	0x0
  200fd8:	002a0000 	break	0x0
  200fdc:	002a0000 	break	0x0
  200fe0:	002a0000 	break	0x0
  200fe4:	002a0000 	break	0x0
  200fe8:	002a0000 	break	0x0
  200fec:	002a0000 	break	0x0
  200ff0:	002a0000 	break	0x0
  200ff4:	002a0000 	break	0x0
  200ff8:	002a0000 	break	0x0
  200ffc:	002a0000 	break	0x0

0000000000201000 <trap_vector_base>:
trap_vector_base():
  201000:	02fb2063 	addi.d	$r3,$r3,-312(0xec8)
  201004:	29c0606e 	st.d	$r14,$r3,24(0x18)
  201008:	29c00060 	st.d	$r0,$r3,0
  20100c:	0400040e 	csrrd	$r14,0x1
  201010:	29c4206e 	st.d	$r14,$r3,264(0x108)
  201014:	0400000e 	csrrd	$r14,0x0
  201018:	29c4006e 	st.d	$r14,$r3,256(0x100)
  20101c:	0400080e 	csrrd	$r14,0x2
  201020:	29c4406e 	st.d	$r14,$r3,272(0x110)
  201024:	0400100e 	csrrd	$r14,0x4
  201028:	29c4606e 	st.d	$r14,$r3,280(0x118)
  20102c:	0400140e 	csrrd	$r14,0x5
  201030:	29c4806e 	st.d	$r14,$r3,288(0x120)
  201034:	29c1806c 	st.d	$r12,$r3,96(0x60)
  201038:	29c1a06d 	st.d	$r13,$r3,104(0x68)
  20103c:	29c1c06e 	st.d	$r14,$r3,112(0x70)
  201040:	29c1e06f 	st.d	$r15,$r3,120(0x78)
  201044:	29c20070 	st.d	$r16,$r3,128(0x80)
  201048:	29c22071 	st.d	$r17,$r3,136(0x88)
  20104c:	29c24072 	st.d	$r18,$r3,144(0x90)
  201050:	29c26073 	st.d	$r19,$r3,152(0x98)
  201054:	29c28074 	st.d	$r20,$r3,160(0xa0)
  201058:	29c02061 	st.d	$r1,$r3,8(0x8)
  20105c:	29c08064 	st.d	$r4,$r3,32(0x20)
  201060:	29c0a065 	st.d	$r5,$r3,40(0x28)
  201064:	29c0c066 	st.d	$r6,$r3,48(0x30)
  201068:	29c0e067 	st.d	$r7,$r3,56(0x38)
  20106c:	29c10068 	st.d	$r8,$r3,64(0x40)
  201070:	29c12069 	st.d	$r9,$r3,72(0x48)
  201074:	29c1406a 	st.d	$r10,$r3,80(0x50)
  201078:	29c1606b 	st.d	$r11,$r3,88(0x58)
  20107c:	04001801 	csrrd	$r1,0x6
  201080:	29c4a061 	st.d	$r1,$r3,296(0x128)
  201084:	29c04062 	st.d	$r2,$r3,16(0x10)
  201088:	29c2c076 	st.d	$r22,$r3,176(0xb0)
  20108c:	29c2e077 	st.d	$r23,$r3,184(0xb8)
  201090:	29c30078 	st.d	$r24,$r3,192(0xc0)
  201094:	29c32079 	st.d	$r25,$r3,200(0xc8)
  201098:	29c3407a 	st.d	$r26,$r3,208(0xd0)
  20109c:	29c3607b 	st.d	$r27,$r3,216(0xd8)
  2010a0:	29c3807c 	st.d	$r28,$r3,224(0xe0)
  2010a4:	29c3a07d 	st.d	$r29,$r3,232(0xe8)
  2010a8:	29c3c07e 	st.d	$r30,$r3,240(0xf0)
  2010ac:	29c3e07f 	st.d	$r31,$r3,248(0xf8)
  2010b0:	00150075 	move	$r21,$r3
  2010b4:	00150064 	move	$r4,$r3
  2010b8:	545da800 	bl	23976(0x5da8) # 206e60 <loongarch64_trap_handler>
  2010bc:	001502a3 	move	$r3,$r21
  2010c0:	28c2e077 	ld.d	$r23,$r3,184(0xb8)
  2010c4:	28c30078 	ld.d	$r24,$r3,192(0xc0)
  2010c8:	28c32079 	ld.d	$r25,$r3,200(0xc8)
  2010cc:	28c3407a 	ld.d	$r26,$r3,208(0xd0)
  2010d0:	28c3607b 	ld.d	$r27,$r3,216(0xd8)
  2010d4:	28c3807c 	ld.d	$r28,$r3,224(0xe0)
  2010d8:	28c3a07d 	ld.d	$r29,$r3,232(0xe8)
  2010dc:	28c3c07e 	ld.d	$r30,$r3,240(0xf0)
  2010e0:	28c3e07f 	ld.d	$r31,$r3,248(0xf8)
  2010e4:	28c1806c 	ld.d	$r12,$r3,96(0x60)
  2010e8:	28c1a06d 	ld.d	$r13,$r3,104(0x68)
  2010ec:	28c1c06e 	ld.d	$r14,$r3,112(0x70)
  2010f0:	28c1e06f 	ld.d	$r15,$r3,120(0x78)
  2010f4:	28c20070 	ld.d	$r16,$r3,128(0x80)
  2010f8:	28c22071 	ld.d	$r17,$r3,136(0x88)
  2010fc:	28c24072 	ld.d	$r18,$r3,144(0x90)
  201100:	28c26073 	ld.d	$r19,$r3,152(0x98)
  201104:	28c28074 	ld.d	$r20,$r3,160(0xa0)
  201108:	28c42064 	ld.d	$r4,$r3,264(0x108)
  20110c:	03400c84 	andi	$r4,$r4,0x3
  201110:	40000480 	beqz	$r4,4(0x4) # 201114 <trap_vector_base+0x114>
  201114:	28c4a064 	ld.d	$r4,$r3,296(0x128)
  201118:	04001824 	csrwr	$r4,0x6
  20111c:	28c42064 	ld.d	$r4,$r3,264(0x108)
  201120:	04000424 	csrwr	$r4,0x1
  201124:	28c02061 	ld.d	$r1,$r3,8(0x8)
  201128:	28c08064 	ld.d	$r4,$r3,32(0x20)
  20112c:	28c0a065 	ld.d	$r5,$r3,40(0x28)
  201130:	28c0c066 	ld.d	$r6,$r3,48(0x30)
  201134:	28c0e067 	ld.d	$r7,$r3,56(0x38)
  201138:	28c10068 	ld.d	$r8,$r3,64(0x40)
  20113c:	28c12069 	ld.d	$r9,$r3,72(0x48)
  201140:	28c1406a 	ld.d	$r10,$r3,80(0x50)
  201144:	28c1606b 	ld.d	$r11,$r3,88(0x58)
  201148:	28c04062 	ld.d	$r2,$r3,16(0x10)
  20114c:	28c2c076 	ld.d	$r22,$r3,176(0xb0)
  201150:	02c4e063 	addi.d	$r3,$r3,312(0x138)
  201154:	04001815 	csrrd	$r21,0x6
  201158:	02c012b5 	addi.d	$r21,$r21,4(0x4)
  20115c:	04001835 	csrwr	$r21,0x6
  201160:	06483800 	ertn
  201164:	002a0000 	break	0x0
  201168:	002a0000 	break	0x0
  20116c:	002a0000 	break	0x0
  201170:	002a0000 	break	0x0
  201174:	002a0000 	break	0x0
  201178:	002a0000 	break	0x0
  20117c:	002a0000 	break	0x0
  201180:	002a0000 	break	0x0
  201184:	002a0000 	break	0x0
  201188:	002a0000 	break	0x0
  20118c:	002a0000 	break	0x0
  201190:	002a0000 	break	0x0
  201194:	002a0000 	break	0x0
  201198:	002a0000 	break	0x0
  20119c:	002a0000 	break	0x0
  2011a0:	002a0000 	break	0x0
  2011a4:	002a0000 	break	0x0
  2011a8:	002a0000 	break	0x0
  2011ac:	002a0000 	break	0x0
  2011b0:	002a0000 	break	0x0
  2011b4:	002a0000 	break	0x0
  2011b8:	002a0000 	break	0x0
  2011bc:	002a0000 	break	0x0
  2011c0:	002a0000 	break	0x0
  2011c4:	002a0000 	break	0x0
  2011c8:	002a0000 	break	0x0
  2011cc:	002a0000 	break	0x0
  2011d0:	002a0000 	break	0x0
  2011d4:	002a0000 	break	0x0
  2011d8:	002a0000 	break	0x0
  2011dc:	002a0000 	break	0x0
  2011e0:	002a0000 	break	0x0
  2011e4:	002a0000 	break	0x0
  2011e8:	002a0000 	break	0x0
  2011ec:	002a0000 	break	0x0
  2011f0:	002a0000 	break	0x0
  2011f4:	002a0000 	break	0x0
  2011f8:	002a0000 	break	0x0
  2011fc:	002a0000 	break	0x0
  201200:	002a0000 	break	0x0
  201204:	002a0000 	break	0x0
  201208:	002a0000 	break	0x0
  20120c:	002a0000 	break	0x0
  201210:	002a0000 	break	0x0
  201214:	002a0000 	break	0x0
  201218:	002a0000 	break	0x0
  20121c:	002a0000 	break	0x0
  201220:	002a0000 	break	0x0
  201224:	002a0000 	break	0x0
  201228:	002a0000 	break	0x0
  20122c:	002a0000 	break	0x0
  201230:	002a0000 	break	0x0
  201234:	002a0000 	break	0x0
  201238:	002a0000 	break	0x0
  20123c:	002a0000 	break	0x0
  201240:	002a0000 	break	0x0
  201244:	002a0000 	break	0x0
  201248:	002a0000 	break	0x0
  20124c:	002a0000 	break	0x0
  201250:	002a0000 	break	0x0
  201254:	002a0000 	break	0x0
  201258:	002a0000 	break	0x0
  20125c:	002a0000 	break	0x0
  201260:	002a0000 	break	0x0
  201264:	002a0000 	break	0x0
  201268:	002a0000 	break	0x0
  20126c:	002a0000 	break	0x0
  201270:	002a0000 	break	0x0
  201274:	002a0000 	break	0x0
  201278:	002a0000 	break	0x0
  20127c:	002a0000 	break	0x0
  201280:	002a0000 	break	0x0
  201284:	002a0000 	break	0x0
  201288:	002a0000 	break	0x0
  20128c:	002a0000 	break	0x0
  201290:	002a0000 	break	0x0
  201294:	002a0000 	break	0x0
  201298:	002a0000 	break	0x0
  20129c:	002a0000 	break	0x0
  2012a0:	002a0000 	break	0x0
  2012a4:	002a0000 	break	0x0
  2012a8:	002a0000 	break	0x0
  2012ac:	002a0000 	break	0x0
  2012b0:	002a0000 	break	0x0
  2012b4:	002a0000 	break	0x0
  2012b8:	002a0000 	break	0x0
  2012bc:	002a0000 	break	0x0
  2012c0:	002a0000 	break	0x0
  2012c4:	002a0000 	break	0x0
  2012c8:	002a0000 	break	0x0
  2012cc:	002a0000 	break	0x0
  2012d0:	002a0000 	break	0x0
  2012d4:	002a0000 	break	0x0
  2012d8:	002a0000 	break	0x0
  2012dc:	002a0000 	break	0x0
  2012e0:	002a0000 	break	0x0
  2012e4:	002a0000 	break	0x0
  2012e8:	002a0000 	break	0x0
  2012ec:	002a0000 	break	0x0
  2012f0:	002a0000 	break	0x0
  2012f4:	002a0000 	break	0x0
  2012f8:	002a0000 	break	0x0
  2012fc:	002a0000 	break	0x0
  201300:	002a0000 	break	0x0
  201304:	002a0000 	break	0x0
  201308:	002a0000 	break	0x0
  20130c:	002a0000 	break	0x0
  201310:	002a0000 	break	0x0
  201314:	002a0000 	break	0x0
  201318:	002a0000 	break	0x0
  20131c:	002a0000 	break	0x0
  201320:	002a0000 	break	0x0
  201324:	002a0000 	break	0x0
  201328:	002a0000 	break	0x0
  20132c:	002a0000 	break	0x0
  201330:	002a0000 	break	0x0
  201334:	002a0000 	break	0x0
  201338:	002a0000 	break	0x0
  20133c:	002a0000 	break	0x0
  201340:	002a0000 	break	0x0
  201344:	002a0000 	break	0x0
  201348:	002a0000 	break	0x0
  20134c:	002a0000 	break	0x0
  201350:	002a0000 	break	0x0
  201354:	002a0000 	break	0x0
  201358:	002a0000 	break	0x0
  20135c:	002a0000 	break	0x0
  201360:	002a0000 	break	0x0
  201364:	002a0000 	break	0x0
  201368:	002a0000 	break	0x0
  20136c:	002a0000 	break	0x0
  201370:	002a0000 	break	0x0
  201374:	002a0000 	break	0x0
  201378:	002a0000 	break	0x0
  20137c:	002a0000 	break	0x0
  201380:	002a0000 	break	0x0
  201384:	002a0000 	break	0x0
  201388:	002a0000 	break	0x0
  20138c:	002a0000 	break	0x0
  201390:	002a0000 	break	0x0
  201394:	002a0000 	break	0x0
  201398:	002a0000 	break	0x0
  20139c:	002a0000 	break	0x0
  2013a0:	002a0000 	break	0x0
  2013a4:	002a0000 	break	0x0
  2013a8:	002a0000 	break	0x0
  2013ac:	002a0000 	break	0x0
  2013b0:	002a0000 	break	0x0
  2013b4:	002a0000 	break	0x0
  2013b8:	002a0000 	break	0x0
  2013bc:	002a0000 	break	0x0
  2013c0:	002a0000 	break	0x0
  2013c4:	002a0000 	break	0x0
  2013c8:	002a0000 	break	0x0
  2013cc:	002a0000 	break	0x0
  2013d0:	002a0000 	break	0x0
  2013d4:	002a0000 	break	0x0
  2013d8:	002a0000 	break	0x0
  2013dc:	002a0000 	break	0x0
  2013e0:	002a0000 	break	0x0
  2013e4:	002a0000 	break	0x0
  2013e8:	002a0000 	break	0x0
  2013ec:	002a0000 	break	0x0
  2013f0:	002a0000 	break	0x0
  2013f4:	002a0000 	break	0x0
  2013f8:	002a0000 	break	0x0
  2013fc:	002a0000 	break	0x0
  201400:	002a0000 	break	0x0
  201404:	002a0000 	break	0x0
  201408:	002a0000 	break	0x0
  20140c:	002a0000 	break	0x0
  201410:	002a0000 	break	0x0
  201414:	002a0000 	break	0x0
  201418:	002a0000 	break	0x0
  20141c:	002a0000 	break	0x0
  201420:	002a0000 	break	0x0
  201424:	002a0000 	break	0x0
  201428:	002a0000 	break	0x0
  20142c:	002a0000 	break	0x0
  201430:	002a0000 	break	0x0
  201434:	002a0000 	break	0x0
  201438:	002a0000 	break	0x0
  20143c:	002a0000 	break	0x0
  201440:	002a0000 	break	0x0
  201444:	002a0000 	break	0x0
  201448:	002a0000 	break	0x0
  20144c:	002a0000 	break	0x0
  201450:	002a0000 	break	0x0
  201454:	002a0000 	break	0x0
  201458:	002a0000 	break	0x0
  20145c:	002a0000 	break	0x0
  201460:	002a0000 	break	0x0
  201464:	002a0000 	break	0x0
  201468:	002a0000 	break	0x0
  20146c:	002a0000 	break	0x0
  201470:	002a0000 	break	0x0
  201474:	002a0000 	break	0x0
  201478:	002a0000 	break	0x0
  20147c:	002a0000 	break	0x0
  201480:	002a0000 	break	0x0
  201484:	002a0000 	break	0x0
  201488:	002a0000 	break	0x0
  20148c:	002a0000 	break	0x0
  201490:	002a0000 	break	0x0
  201494:	002a0000 	break	0x0
  201498:	002a0000 	break	0x0
  20149c:	002a0000 	break	0x0
  2014a0:	002a0000 	break	0x0
  2014a4:	002a0000 	break	0x0
  2014a8:	002a0000 	break	0x0
  2014ac:	002a0000 	break	0x0
  2014b0:	002a0000 	break	0x0
  2014b4:	002a0000 	break	0x0
  2014b8:	002a0000 	break	0x0
  2014bc:	002a0000 	break	0x0
  2014c0:	002a0000 	break	0x0
  2014c4:	002a0000 	break	0x0
  2014c8:	002a0000 	break	0x0
  2014cc:	002a0000 	break	0x0
  2014d0:	002a0000 	break	0x0
  2014d4:	002a0000 	break	0x0
  2014d8:	002a0000 	break	0x0
  2014dc:	002a0000 	break	0x0
  2014e0:	002a0000 	break	0x0
  2014e4:	002a0000 	break	0x0
  2014e8:	002a0000 	break	0x0
  2014ec:	002a0000 	break	0x0
  2014f0:	002a0000 	break	0x0
  2014f4:	002a0000 	break	0x0
  2014f8:	002a0000 	break	0x0
  2014fc:	002a0000 	break	0x0
  201500:	002a0000 	break	0x0
  201504:	002a0000 	break	0x0
  201508:	002a0000 	break	0x0
  20150c:	002a0000 	break	0x0
  201510:	002a0000 	break	0x0
  201514:	002a0000 	break	0x0
  201518:	002a0000 	break	0x0
  20151c:	002a0000 	break	0x0
  201520:	002a0000 	break	0x0
  201524:	002a0000 	break	0x0
  201528:	002a0000 	break	0x0
  20152c:	002a0000 	break	0x0
  201530:	002a0000 	break	0x0
  201534:	002a0000 	break	0x0
  201538:	002a0000 	break	0x0
  20153c:	002a0000 	break	0x0
  201540:	002a0000 	break	0x0
  201544:	002a0000 	break	0x0
  201548:	002a0000 	break	0x0
  20154c:	002a0000 	break	0x0
  201550:	002a0000 	break	0x0
  201554:	002a0000 	break	0x0
  201558:	002a0000 	break	0x0
  20155c:	002a0000 	break	0x0
  201560:	002a0000 	break	0x0
  201564:	002a0000 	break	0x0
  201568:	002a0000 	break	0x0
  20156c:	002a0000 	break	0x0
  201570:	002a0000 	break	0x0
  201574:	002a0000 	break	0x0
  201578:	002a0000 	break	0x0
  20157c:	002a0000 	break	0x0
  201580:	002a0000 	break	0x0
  201584:	002a0000 	break	0x0
  201588:	002a0000 	break	0x0
  20158c:	002a0000 	break	0x0
  201590:	002a0000 	break	0x0
  201594:	002a0000 	break	0x0
  201598:	002a0000 	break	0x0
  20159c:	002a0000 	break	0x0
  2015a0:	002a0000 	break	0x0
  2015a4:	002a0000 	break	0x0
  2015a8:	002a0000 	break	0x0
  2015ac:	002a0000 	break	0x0
  2015b0:	002a0000 	break	0x0
  2015b4:	002a0000 	break	0x0
  2015b8:	002a0000 	break	0x0
  2015bc:	002a0000 	break	0x0
  2015c0:	002a0000 	break	0x0
  2015c4:	002a0000 	break	0x0
  2015c8:	002a0000 	break	0x0
  2015cc:	002a0000 	break	0x0
  2015d0:	002a0000 	break	0x0
  2015d4:	002a0000 	break	0x0
  2015d8:	002a0000 	break	0x0
  2015dc:	002a0000 	break	0x0
  2015e0:	002a0000 	break	0x0
  2015e4:	002a0000 	break	0x0
  2015e8:	002a0000 	break	0x0
  2015ec:	002a0000 	break	0x0
  2015f0:	002a0000 	break	0x0
  2015f4:	002a0000 	break	0x0
  2015f8:	002a0000 	break	0x0
  2015fc:	002a0000 	break	0x0
  201600:	002a0000 	break	0x0
  201604:	002a0000 	break	0x0
  201608:	002a0000 	break	0x0
  20160c:	002a0000 	break	0x0
  201610:	002a0000 	break	0x0
  201614:	002a0000 	break	0x0
  201618:	002a0000 	break	0x0
  20161c:	002a0000 	break	0x0
  201620:	002a0000 	break	0x0
  201624:	002a0000 	break	0x0
  201628:	002a0000 	break	0x0
  20162c:	002a0000 	break	0x0
  201630:	002a0000 	break	0x0
  201634:	002a0000 	break	0x0
  201638:	002a0000 	break	0x0
  20163c:	002a0000 	break	0x0
  201640:	002a0000 	break	0x0
  201644:	002a0000 	break	0x0
  201648:	002a0000 	break	0x0
  20164c:	002a0000 	break	0x0
  201650:	002a0000 	break	0x0
  201654:	002a0000 	break	0x0
  201658:	002a0000 	break	0x0
  20165c:	002a0000 	break	0x0
  201660:	002a0000 	break	0x0
  201664:	002a0000 	break	0x0
  201668:	002a0000 	break	0x0
  20166c:	002a0000 	break	0x0
  201670:	002a0000 	break	0x0
  201674:	002a0000 	break	0x0
  201678:	002a0000 	break	0x0
  20167c:	002a0000 	break	0x0
  201680:	002a0000 	break	0x0
  201684:	002a0000 	break	0x0
  201688:	002a0000 	break	0x0
  20168c:	002a0000 	break	0x0
  201690:	002a0000 	break	0x0
  201694:	002a0000 	break	0x0
  201698:	002a0000 	break	0x0
  20169c:	002a0000 	break	0x0
  2016a0:	002a0000 	break	0x0
  2016a4:	002a0000 	break	0x0
  2016a8:	002a0000 	break	0x0
  2016ac:	002a0000 	break	0x0
  2016b0:	002a0000 	break	0x0
  2016b4:	002a0000 	break	0x0
  2016b8:	002a0000 	break	0x0
  2016bc:	002a0000 	break	0x0
  2016c0:	002a0000 	break	0x0
  2016c4:	002a0000 	break	0x0
  2016c8:	002a0000 	break	0x0
  2016cc:	002a0000 	break	0x0
  2016d0:	002a0000 	break	0x0
  2016d4:	002a0000 	break	0x0
  2016d8:	002a0000 	break	0x0
  2016dc:	002a0000 	break	0x0
  2016e0:	002a0000 	break	0x0
  2016e4:	002a0000 	break	0x0
  2016e8:	002a0000 	break	0x0
  2016ec:	002a0000 	break	0x0
  2016f0:	002a0000 	break	0x0
  2016f4:	002a0000 	break	0x0
  2016f8:	002a0000 	break	0x0
  2016fc:	002a0000 	break	0x0
  201700:	002a0000 	break	0x0
  201704:	002a0000 	break	0x0
  201708:	002a0000 	break	0x0
  20170c:	002a0000 	break	0x0
  201710:	002a0000 	break	0x0
  201714:	002a0000 	break	0x0
  201718:	002a0000 	break	0x0
  20171c:	002a0000 	break	0x0
  201720:	002a0000 	break	0x0
  201724:	002a0000 	break	0x0
  201728:	002a0000 	break	0x0
  20172c:	002a0000 	break	0x0
  201730:	002a0000 	break	0x0
  201734:	002a0000 	break	0x0
  201738:	002a0000 	break	0x0
  20173c:	002a0000 	break	0x0
  201740:	002a0000 	break	0x0
  201744:	002a0000 	break	0x0
  201748:	002a0000 	break	0x0
  20174c:	002a0000 	break	0x0
  201750:	002a0000 	break	0x0
  201754:	002a0000 	break	0x0
  201758:	002a0000 	break	0x0
  20175c:	002a0000 	break	0x0
  201760:	002a0000 	break	0x0
  201764:	002a0000 	break	0x0
  201768:	002a0000 	break	0x0
  20176c:	002a0000 	break	0x0
  201770:	002a0000 	break	0x0
  201774:	002a0000 	break	0x0
  201778:	002a0000 	break	0x0
  20177c:	002a0000 	break	0x0
  201780:	002a0000 	break	0x0
  201784:	002a0000 	break	0x0
  201788:	002a0000 	break	0x0
  20178c:	002a0000 	break	0x0
  201790:	002a0000 	break	0x0
  201794:	002a0000 	break	0x0
  201798:	002a0000 	break	0x0
  20179c:	002a0000 	break	0x0
  2017a0:	002a0000 	break	0x0
  2017a4:	002a0000 	break	0x0
  2017a8:	002a0000 	break	0x0
  2017ac:	002a0000 	break	0x0
  2017b0:	002a0000 	break	0x0
  2017b4:	002a0000 	break	0x0
  2017b8:	002a0000 	break	0x0
  2017bc:	002a0000 	break	0x0
  2017c0:	002a0000 	break	0x0
  2017c4:	002a0000 	break	0x0
  2017c8:	002a0000 	break	0x0
  2017cc:	002a0000 	break	0x0
  2017d0:	002a0000 	break	0x0
  2017d4:	002a0000 	break	0x0
  2017d8:	002a0000 	break	0x0
  2017dc:	002a0000 	break	0x0
  2017e0:	002a0000 	break	0x0
  2017e4:	002a0000 	break	0x0
  2017e8:	002a0000 	break	0x0
  2017ec:	002a0000 	break	0x0
  2017f0:	002a0000 	break	0x0
  2017f4:	002a0000 	break	0x0
  2017f8:	002a0000 	break	0x0
  2017fc:	002a0000 	break	0x0
  201800:	002a0000 	break	0x0
  201804:	002a0000 	break	0x0
  201808:	002a0000 	break	0x0
  20180c:	002a0000 	break	0x0
  201810:	002a0000 	break	0x0
  201814:	002a0000 	break	0x0
  201818:	002a0000 	break	0x0
  20181c:	002a0000 	break	0x0
  201820:	002a0000 	break	0x0
  201824:	002a0000 	break	0x0
  201828:	002a0000 	break	0x0
  20182c:	002a0000 	break	0x0
  201830:	002a0000 	break	0x0
  201834:	002a0000 	break	0x0
  201838:	002a0000 	break	0x0
  20183c:	002a0000 	break	0x0
  201840:	002a0000 	break	0x0
  201844:	002a0000 	break	0x0
  201848:	002a0000 	break	0x0
  20184c:	002a0000 	break	0x0
  201850:	002a0000 	break	0x0
  201854:	002a0000 	break	0x0
  201858:	002a0000 	break	0x0
  20185c:	002a0000 	break	0x0
  201860:	002a0000 	break	0x0
  201864:	002a0000 	break	0x0
  201868:	002a0000 	break	0x0
  20186c:	002a0000 	break	0x0
  201870:	002a0000 	break	0x0
  201874:	002a0000 	break	0x0
  201878:	002a0000 	break	0x0
  20187c:	002a0000 	break	0x0
  201880:	002a0000 	break	0x0
  201884:	002a0000 	break	0x0
  201888:	002a0000 	break	0x0
  20188c:	002a0000 	break	0x0
  201890:	002a0000 	break	0x0
  201894:	002a0000 	break	0x0
  201898:	002a0000 	break	0x0
  20189c:	002a0000 	break	0x0
  2018a0:	002a0000 	break	0x0
  2018a4:	002a0000 	break	0x0
  2018a8:	002a0000 	break	0x0
  2018ac:	002a0000 	break	0x0
  2018b0:	002a0000 	break	0x0
  2018b4:	002a0000 	break	0x0
  2018b8:	002a0000 	break	0x0
  2018bc:	002a0000 	break	0x0
  2018c0:	002a0000 	break	0x0
  2018c4:	002a0000 	break	0x0
  2018c8:	002a0000 	break	0x0
  2018cc:	002a0000 	break	0x0
  2018d0:	002a0000 	break	0x0
  2018d4:	002a0000 	break	0x0
  2018d8:	002a0000 	break	0x0
  2018dc:	002a0000 	break	0x0
  2018e0:	002a0000 	break	0x0
  2018e4:	002a0000 	break	0x0
  2018e8:	002a0000 	break	0x0
  2018ec:	002a0000 	break	0x0
  2018f0:	002a0000 	break	0x0
  2018f4:	002a0000 	break	0x0
  2018f8:	002a0000 	break	0x0
  2018fc:	002a0000 	break	0x0
  201900:	002a0000 	break	0x0
  201904:	002a0000 	break	0x0
  201908:	002a0000 	break	0x0
  20190c:	002a0000 	break	0x0
  201910:	002a0000 	break	0x0
  201914:	002a0000 	break	0x0
  201918:	002a0000 	break	0x0
  20191c:	002a0000 	break	0x0
  201920:	002a0000 	break	0x0
  201924:	002a0000 	break	0x0
  201928:	002a0000 	break	0x0
  20192c:	002a0000 	break	0x0
  201930:	002a0000 	break	0x0
  201934:	002a0000 	break	0x0
  201938:	002a0000 	break	0x0
  20193c:	002a0000 	break	0x0
  201940:	002a0000 	break	0x0
  201944:	002a0000 	break	0x0
  201948:	002a0000 	break	0x0
  20194c:	002a0000 	break	0x0
  201950:	002a0000 	break	0x0
  201954:	002a0000 	break	0x0
  201958:	002a0000 	break	0x0
  20195c:	002a0000 	break	0x0
  201960:	002a0000 	break	0x0
  201964:	002a0000 	break	0x0
  201968:	002a0000 	break	0x0
  20196c:	002a0000 	break	0x0
  201970:	002a0000 	break	0x0
  201974:	002a0000 	break	0x0
  201978:	002a0000 	break	0x0
  20197c:	002a0000 	break	0x0
  201980:	002a0000 	break	0x0
  201984:	002a0000 	break	0x0
  201988:	002a0000 	break	0x0
  20198c:	002a0000 	break	0x0
  201990:	002a0000 	break	0x0
  201994:	002a0000 	break	0x0
  201998:	002a0000 	break	0x0
  20199c:	002a0000 	break	0x0
  2019a0:	002a0000 	break	0x0
  2019a4:	002a0000 	break	0x0
  2019a8:	002a0000 	break	0x0
  2019ac:	002a0000 	break	0x0
  2019b0:	002a0000 	break	0x0
  2019b4:	002a0000 	break	0x0
  2019b8:	002a0000 	break	0x0
  2019bc:	002a0000 	break	0x0
  2019c0:	002a0000 	break	0x0
  2019c4:	002a0000 	break	0x0
  2019c8:	002a0000 	break	0x0
  2019cc:	002a0000 	break	0x0
  2019d0:	002a0000 	break	0x0
  2019d4:	002a0000 	break	0x0
  2019d8:	002a0000 	break	0x0
  2019dc:	002a0000 	break	0x0
  2019e0:	002a0000 	break	0x0
  2019e4:	002a0000 	break	0x0
  2019e8:	002a0000 	break	0x0
  2019ec:	002a0000 	break	0x0
  2019f0:	002a0000 	break	0x0
  2019f4:	002a0000 	break	0x0
  2019f8:	002a0000 	break	0x0
  2019fc:	002a0000 	break	0x0
  201a00:	002a0000 	break	0x0
  201a04:	002a0000 	break	0x0
  201a08:	002a0000 	break	0x0
  201a0c:	002a0000 	break	0x0
  201a10:	002a0000 	break	0x0
  201a14:	002a0000 	break	0x0
  201a18:	002a0000 	break	0x0
  201a1c:	002a0000 	break	0x0
  201a20:	002a0000 	break	0x0
  201a24:	002a0000 	break	0x0
  201a28:	002a0000 	break	0x0
  201a2c:	002a0000 	break	0x0
  201a30:	002a0000 	break	0x0
  201a34:	002a0000 	break	0x0
  201a38:	002a0000 	break	0x0
  201a3c:	002a0000 	break	0x0
  201a40:	002a0000 	break	0x0
  201a44:	002a0000 	break	0x0
  201a48:	002a0000 	break	0x0
  201a4c:	002a0000 	break	0x0
  201a50:	002a0000 	break	0x0
  201a54:	002a0000 	break	0x0
  201a58:	002a0000 	break	0x0
  201a5c:	002a0000 	break	0x0
  201a60:	002a0000 	break	0x0
  201a64:	002a0000 	break	0x0
  201a68:	002a0000 	break	0x0
  201a6c:	002a0000 	break	0x0
  201a70:	002a0000 	break	0x0
  201a74:	002a0000 	break	0x0
  201a78:	002a0000 	break	0x0
  201a7c:	002a0000 	break	0x0
  201a80:	002a0000 	break	0x0
  201a84:	002a0000 	break	0x0
  201a88:	002a0000 	break	0x0
  201a8c:	002a0000 	break	0x0
  201a90:	002a0000 	break	0x0
  201a94:	002a0000 	break	0x0
  201a98:	002a0000 	break	0x0
  201a9c:	002a0000 	break	0x0
  201aa0:	002a0000 	break	0x0
  201aa4:	002a0000 	break	0x0
  201aa8:	002a0000 	break	0x0
  201aac:	002a0000 	break	0x0
  201ab0:	002a0000 	break	0x0
  201ab4:	002a0000 	break	0x0
  201ab8:	002a0000 	break	0x0
  201abc:	002a0000 	break	0x0
  201ac0:	002a0000 	break	0x0
  201ac4:	002a0000 	break	0x0
  201ac8:	002a0000 	break	0x0
  201acc:	002a0000 	break	0x0
  201ad0:	002a0000 	break	0x0
  201ad4:	002a0000 	break	0x0
  201ad8:	002a0000 	break	0x0
  201adc:	002a0000 	break	0x0
  201ae0:	002a0000 	break	0x0
  201ae4:	002a0000 	break	0x0
  201ae8:	002a0000 	break	0x0
  201aec:	002a0000 	break	0x0
  201af0:	002a0000 	break	0x0
  201af4:	002a0000 	break	0x0
  201af8:	002a0000 	break	0x0
  201afc:	002a0000 	break	0x0
  201b00:	002a0000 	break	0x0
  201b04:	002a0000 	break	0x0
  201b08:	002a0000 	break	0x0
  201b0c:	002a0000 	break	0x0
  201b10:	002a0000 	break	0x0
  201b14:	002a0000 	break	0x0
  201b18:	002a0000 	break	0x0
  201b1c:	002a0000 	break	0x0
  201b20:	002a0000 	break	0x0
  201b24:	002a0000 	break	0x0
  201b28:	002a0000 	break	0x0
  201b2c:	002a0000 	break	0x0
  201b30:	002a0000 	break	0x0
  201b34:	002a0000 	break	0x0
  201b38:	002a0000 	break	0x0
  201b3c:	002a0000 	break	0x0
  201b40:	002a0000 	break	0x0
  201b44:	002a0000 	break	0x0
  201b48:	002a0000 	break	0x0
  201b4c:	002a0000 	break	0x0
  201b50:	002a0000 	break	0x0
  201b54:	002a0000 	break	0x0
  201b58:	002a0000 	break	0x0
  201b5c:	002a0000 	break	0x0
  201b60:	002a0000 	break	0x0
  201b64:	002a0000 	break	0x0
  201b68:	002a0000 	break	0x0
  201b6c:	002a0000 	break	0x0
  201b70:	002a0000 	break	0x0
  201b74:	002a0000 	break	0x0
  201b78:	002a0000 	break	0x0
  201b7c:	002a0000 	break	0x0
  201b80:	002a0000 	break	0x0
  201b84:	002a0000 	break	0x0
  201b88:	002a0000 	break	0x0
  201b8c:	002a0000 	break	0x0
  201b90:	002a0000 	break	0x0
  201b94:	002a0000 	break	0x0
  201b98:	002a0000 	break	0x0
  201b9c:	002a0000 	break	0x0
  201ba0:	002a0000 	break	0x0
  201ba4:	002a0000 	break	0x0
  201ba8:	002a0000 	break	0x0
  201bac:	002a0000 	break	0x0
  201bb0:	002a0000 	break	0x0
  201bb4:	002a0000 	break	0x0
  201bb8:	002a0000 	break	0x0
  201bbc:	002a0000 	break	0x0
  201bc0:	002a0000 	break	0x0
  201bc4:	002a0000 	break	0x0
  201bc8:	002a0000 	break	0x0
  201bcc:	002a0000 	break	0x0
  201bd0:	002a0000 	break	0x0
  201bd4:	002a0000 	break	0x0
  201bd8:	002a0000 	break	0x0
  201bdc:	002a0000 	break	0x0
  201be0:	002a0000 	break	0x0
  201be4:	002a0000 	break	0x0
  201be8:	002a0000 	break	0x0
  201bec:	002a0000 	break	0x0
  201bf0:	002a0000 	break	0x0
  201bf4:	002a0000 	break	0x0
  201bf8:	002a0000 	break	0x0
  201bfc:	002a0000 	break	0x0
  201c00:	002a0000 	break	0x0
  201c04:	002a0000 	break	0x0
  201c08:	002a0000 	break	0x0
  201c0c:	002a0000 	break	0x0
  201c10:	002a0000 	break	0x0
  201c14:	002a0000 	break	0x0
  201c18:	002a0000 	break	0x0
  201c1c:	002a0000 	break	0x0
  201c20:	002a0000 	break	0x0
  201c24:	002a0000 	break	0x0
  201c28:	002a0000 	break	0x0
  201c2c:	002a0000 	break	0x0
  201c30:	002a0000 	break	0x0
  201c34:	002a0000 	break	0x0
  201c38:	002a0000 	break	0x0
  201c3c:	002a0000 	break	0x0
  201c40:	002a0000 	break	0x0
  201c44:	002a0000 	break	0x0
  201c48:	002a0000 	break	0x0
  201c4c:	002a0000 	break	0x0
  201c50:	002a0000 	break	0x0
  201c54:	002a0000 	break	0x0
  201c58:	002a0000 	break	0x0
  201c5c:	002a0000 	break	0x0
  201c60:	002a0000 	break	0x0
  201c64:	002a0000 	break	0x0
  201c68:	002a0000 	break	0x0
  201c6c:	002a0000 	break	0x0
  201c70:	002a0000 	break	0x0
  201c74:	002a0000 	break	0x0
  201c78:	002a0000 	break	0x0
  201c7c:	002a0000 	break	0x0
  201c80:	002a0000 	break	0x0
  201c84:	002a0000 	break	0x0
  201c88:	002a0000 	break	0x0
  201c8c:	002a0000 	break	0x0
  201c90:	002a0000 	break	0x0
  201c94:	002a0000 	break	0x0
  201c98:	002a0000 	break	0x0
  201c9c:	002a0000 	break	0x0
  201ca0:	002a0000 	break	0x0
  201ca4:	002a0000 	break	0x0
  201ca8:	002a0000 	break	0x0
  201cac:	002a0000 	break	0x0
  201cb0:	002a0000 	break	0x0
  201cb4:	002a0000 	break	0x0
  201cb8:	002a0000 	break	0x0
  201cbc:	002a0000 	break	0x0
  201cc0:	002a0000 	break	0x0
  201cc4:	002a0000 	break	0x0
  201cc8:	002a0000 	break	0x0
  201ccc:	002a0000 	break	0x0
  201cd0:	002a0000 	break	0x0
  201cd4:	002a0000 	break	0x0
  201cd8:	002a0000 	break	0x0
  201cdc:	002a0000 	break	0x0
  201ce0:	002a0000 	break	0x0
  201ce4:	002a0000 	break	0x0
  201ce8:	002a0000 	break	0x0
  201cec:	002a0000 	break	0x0
  201cf0:	002a0000 	break	0x0
  201cf4:	002a0000 	break	0x0
  201cf8:	002a0000 	break	0x0
  201cfc:	002a0000 	break	0x0
  201d00:	002a0000 	break	0x0
  201d04:	002a0000 	break	0x0
  201d08:	002a0000 	break	0x0
  201d0c:	002a0000 	break	0x0
  201d10:	002a0000 	break	0x0
  201d14:	002a0000 	break	0x0
  201d18:	002a0000 	break	0x0
  201d1c:	002a0000 	break	0x0
  201d20:	002a0000 	break	0x0
  201d24:	002a0000 	break	0x0
  201d28:	002a0000 	break	0x0
  201d2c:	002a0000 	break	0x0
  201d30:	002a0000 	break	0x0
  201d34:	002a0000 	break	0x0
  201d38:	002a0000 	break	0x0
  201d3c:	002a0000 	break	0x0
  201d40:	002a0000 	break	0x0
  201d44:	002a0000 	break	0x0
  201d48:	002a0000 	break	0x0
  201d4c:	002a0000 	break	0x0
  201d50:	002a0000 	break	0x0
  201d54:	002a0000 	break	0x0
  201d58:	002a0000 	break	0x0
  201d5c:	002a0000 	break	0x0
  201d60:	002a0000 	break	0x0
  201d64:	002a0000 	break	0x0
  201d68:	002a0000 	break	0x0
  201d6c:	002a0000 	break	0x0
  201d70:	002a0000 	break	0x0
  201d74:	002a0000 	break	0x0
  201d78:	002a0000 	break	0x0
  201d7c:	002a0000 	break	0x0
  201d80:	002a0000 	break	0x0
  201d84:	002a0000 	break	0x0
  201d88:	002a0000 	break	0x0
  201d8c:	002a0000 	break	0x0
  201d90:	002a0000 	break	0x0
  201d94:	002a0000 	break	0x0
  201d98:	002a0000 	break	0x0
  201d9c:	002a0000 	break	0x0
  201da0:	002a0000 	break	0x0
  201da4:	002a0000 	break	0x0
  201da8:	002a0000 	break	0x0
  201dac:	002a0000 	break	0x0
  201db0:	002a0000 	break	0x0
  201db4:	002a0000 	break	0x0
  201db8:	002a0000 	break	0x0
  201dbc:	002a0000 	break	0x0
  201dc0:	002a0000 	break	0x0
  201dc4:	002a0000 	break	0x0
  201dc8:	002a0000 	break	0x0
  201dcc:	002a0000 	break	0x0
  201dd0:	002a0000 	break	0x0
  201dd4:	002a0000 	break	0x0
  201dd8:	002a0000 	break	0x0
  201ddc:	002a0000 	break	0x0
  201de0:	002a0000 	break	0x0
  201de4:	002a0000 	break	0x0
  201de8:	002a0000 	break	0x0
  201dec:	002a0000 	break	0x0
  201df0:	002a0000 	break	0x0
  201df4:	002a0000 	break	0x0
  201df8:	002a0000 	break	0x0
  201dfc:	002a0000 	break	0x0
  201e00:	002a0000 	break	0x0
  201e04:	002a0000 	break	0x0
  201e08:	002a0000 	break	0x0
  201e0c:	002a0000 	break	0x0
  201e10:	002a0000 	break	0x0
  201e14:	002a0000 	break	0x0
  201e18:	002a0000 	break	0x0
  201e1c:	002a0000 	break	0x0
  201e20:	002a0000 	break	0x0
  201e24:	002a0000 	break	0x0
  201e28:	002a0000 	break	0x0
  201e2c:	002a0000 	break	0x0
  201e30:	002a0000 	break	0x0
  201e34:	002a0000 	break	0x0
  201e38:	002a0000 	break	0x0
  201e3c:	002a0000 	break	0x0
  201e40:	002a0000 	break	0x0
  201e44:	002a0000 	break	0x0
  201e48:	002a0000 	break	0x0
  201e4c:	002a0000 	break	0x0
  201e50:	002a0000 	break	0x0
  201e54:	002a0000 	break	0x0
  201e58:	002a0000 	break	0x0
  201e5c:	002a0000 	break	0x0
  201e60:	002a0000 	break	0x0
  201e64:	002a0000 	break	0x0
  201e68:	002a0000 	break	0x0
  201e6c:	002a0000 	break	0x0
  201e70:	002a0000 	break	0x0
  201e74:	002a0000 	break	0x0
  201e78:	002a0000 	break	0x0
  201e7c:	002a0000 	break	0x0
  201e80:	002a0000 	break	0x0
  201e84:	002a0000 	break	0x0
  201e88:	002a0000 	break	0x0
  201e8c:	002a0000 	break	0x0
  201e90:	002a0000 	break	0x0
  201e94:	002a0000 	break	0x0
  201e98:	002a0000 	break	0x0
  201e9c:	002a0000 	break	0x0
  201ea0:	002a0000 	break	0x0
  201ea4:	002a0000 	break	0x0
  201ea8:	002a0000 	break	0x0
  201eac:	002a0000 	break	0x0
  201eb0:	002a0000 	break	0x0
  201eb4:	002a0000 	break	0x0
  201eb8:	002a0000 	break	0x0
  201ebc:	002a0000 	break	0x0
  201ec0:	002a0000 	break	0x0
  201ec4:	002a0000 	break	0x0
  201ec8:	002a0000 	break	0x0
  201ecc:	002a0000 	break	0x0
  201ed0:	002a0000 	break	0x0
  201ed4:	002a0000 	break	0x0
  201ed8:	002a0000 	break	0x0
  201edc:	002a0000 	break	0x0
  201ee0:	002a0000 	break	0x0
  201ee4:	002a0000 	break	0x0
  201ee8:	002a0000 	break	0x0
  201eec:	002a0000 	break	0x0
  201ef0:	002a0000 	break	0x0
  201ef4:	002a0000 	break	0x0
  201ef8:	002a0000 	break	0x0
  201efc:	002a0000 	break	0x0
  201f00:	002a0000 	break	0x0
  201f04:	002a0000 	break	0x0
  201f08:	002a0000 	break	0x0
  201f0c:	002a0000 	break	0x0
  201f10:	002a0000 	break	0x0
  201f14:	002a0000 	break	0x0
  201f18:	002a0000 	break	0x0
  201f1c:	002a0000 	break	0x0
  201f20:	002a0000 	break	0x0
  201f24:	002a0000 	break	0x0
  201f28:	002a0000 	break	0x0
  201f2c:	002a0000 	break	0x0
  201f30:	002a0000 	break	0x0
  201f34:	002a0000 	break	0x0
  201f38:	002a0000 	break	0x0
  201f3c:	002a0000 	break	0x0
  201f40:	002a0000 	break	0x0
  201f44:	002a0000 	break	0x0
  201f48:	002a0000 	break	0x0
  201f4c:	002a0000 	break	0x0
  201f50:	002a0000 	break	0x0
  201f54:	002a0000 	break	0x0
  201f58:	002a0000 	break	0x0
  201f5c:	002a0000 	break	0x0
  201f60:	002a0000 	break	0x0
  201f64:	002a0000 	break	0x0
  201f68:	002a0000 	break	0x0
  201f6c:	002a0000 	break	0x0
  201f70:	002a0000 	break	0x0
  201f74:	002a0000 	break	0x0
  201f78:	002a0000 	break	0x0
  201f7c:	002a0000 	break	0x0
  201f80:	002a0000 	break	0x0
  201f84:	002a0000 	break	0x0
  201f88:	002a0000 	break	0x0
  201f8c:	002a0000 	break	0x0
  201f90:	002a0000 	break	0x0
  201f94:	002a0000 	break	0x0
  201f98:	002a0000 	break	0x0
  201f9c:	002a0000 	break	0x0
  201fa0:	002a0000 	break	0x0
  201fa4:	002a0000 	break	0x0
  201fa8:	002a0000 	break	0x0
  201fac:	002a0000 	break	0x0
  201fb0:	002a0000 	break	0x0
  201fb4:	002a0000 	break	0x0
  201fb8:	002a0000 	break	0x0
  201fbc:	002a0000 	break	0x0
  201fc0:	002a0000 	break	0x0
  201fc4:	002a0000 	break	0x0
  201fc8:	002a0000 	break	0x0
  201fcc:	002a0000 	break	0x0
  201fd0:	002a0000 	break	0x0
  201fd4:	002a0000 	break	0x0
  201fd8:	002a0000 	break	0x0
  201fdc:	002a0000 	break	0x0
  201fe0:	002a0000 	break	0x0
  201fe4:	002a0000 	break	0x0
  201fe8:	002a0000 	break	0x0
  201fec:	002a0000 	break	0x0
  201ff0:	002a0000 	break	0x0
  201ff4:	002a0000 	break	0x0
  201ff8:	002a0000 	break	0x0
  201ffc:	002a0000 	break	0x0

0000000000202000 <tlb_refill_handler>:
tlb_refill_handler():
  202000:	04022c2c 	csrwr	$r12,0x8b
  202004:	04006c0c 	csrrd	$r12,0x1b
  202008:	0640118c 	lddir	$r12,$r12,0x4
  20200c:	00ff318c 	bstrpick.d	$r12,$r12,0x3f,0xc
  202010:	0041318c 	slli.d	$r12,$r12,0xc
  202014:	06400d8c 	lddir	$r12,$r12,0x3
  202018:	00ff318c 	bstrpick.d	$r12,$r12,0x3f,0xc
  20201c:	0041318c 	slli.d	$r12,$r12,0xc
  202020:	0640098c 	lddir	$r12,$r12,0x2
  202024:	00ff318c 	bstrpick.d	$r12,$r12,0x3f,0xc
  202028:	0041318c 	slli.d	$r12,$r12,0xc
  20202c:	0640058c 	lddir	$r12,$r12,0x1
  202030:	00ff318c 	bstrpick.d	$r12,$r12,0x3f,0xc
  202034:	0041318c 	slli.d	$r12,$r12,0xc
  202038:	06440180 	ldpte	$r12,0x0
  20203c:	06440580 	ldpte	$r12,0x1
  202040:	06483400 	tlbfill
  202044:	04022c0c 	csrrd	$r12,0x8b
  202048:	06483800 	ertn

000000000020204c <__rust_alloc_error_handler>:
__rust_alloc_error_handler():
  20204c:	5402fc00 	bl	764(0x2fc) # 202348 <__rdl_oom>
  202050:	38600400 	amswap.w	$r0,$r1,$r0

0000000000202054 <_ZN5alloc7raw_vec17capacity_overflow17h68933b2e0f5d11dbE>:
_ZN5alloc7raw_vec17capacity_overflow17h68933b2e0f5d11dbE():
  202054:	02ff4063 	addi.d	$r3,$r3,-48(0xfd0)
  202058:	03800404 	ori	$r4,$r0,0x1
  20205c:	29c02064 	st.d	$r4,$r3,8(0x8)
  202060:	1a0002a4 	pcalau12i	$r4,21(0x15)
  202064:	02c30084 	addi.d	$r4,$r4,192(0xc0)
  202068:	29c00064 	st.d	$r4,$r3,0
  20206c:	29c08060 	st.d	$r0,$r3,32(0x20)
  202070:	29c06060 	st.d	$r0,$r3,24(0x18)
  202074:	1a000284 	pcalau12i	$r4,20(0x14)
  202078:	02c42084 	addi.d	$r4,$r4,264(0x108)
  20207c:	29c04064 	st.d	$r4,$r3,16(0x10)
  202080:	02c00064 	addi.d	$r4,$r3,0
  202084:	1a0002a5 	pcalau12i	$r5,21(0x15)
  202088:	02c340a5 	addi.d	$r5,$r5,208(0xd0)
  20208c:	54e35000 	bl	58192(0xe350) # 2103dc <_ZN4core9panicking9panic_fmt17ha745c27c594dd0a5E>
  202090:	38600400 	amswap.w	$r0,$r1,$r0

0000000000202094 <_ZN5alloc7raw_vec19RawVec$LT$T$C$A$GT$7reserve21do_reserve_and_handle17h35c0de4e7de23cf4E>:
_ZN5alloc7raw_vec19RawVec$LT$T$C$A$GT$7reserve21do_reserve_and_handle17h35c0de4e7de23cf4E():
  202094:	02fec063 	addi.d	$r3,$r3,-80(0xfb0)
  202098:	29c12061 	st.d	$r1,$r3,72(0x48)
  20209c:	29c10076 	st.d	$r22,$r3,64(0x40)
  2020a0:	29c0e077 	st.d	$r23,$r3,56(0x38)
  2020a4:	001098a6 	add.d	$r6,$r5,$r6
  2020a8:	680088c5 	bltu	$r6,$r5,136(0x88) # 202130 <_ZN5alloc7raw_vec19RawVec$LT$T$C$A$GT$7reserve21do_reserve_and_handle17h35c0de4e7de23cf4E+0x9c>
  2020ac:	00150096 	move	$r22,$r4
  2020b0:	28c02084 	ld.d	$r4,$r4,8(0x8)
  2020b4:	00410485 	slli.d	$r5,$r4,0x1
  2020b8:	001294c7 	sltu	$r7,$r6,$r5
  2020bc:	00139cc6 	masknez	$r6,$r6,$r7
  2020c0:	00131ca5 	maskeqz	$r5,$r5,$r7
  2020c4:	001518a5 	or	$r5,$r5,$r6
  2020c8:	03802006 	ori	$r6,$r0,0x8
  2020cc:	001294c7 	sltu	$r7,$r6,$r5
  2020d0:	00131ca5 	maskeqz	$r5,$r5,$r7
  2020d4:	00139cc6 	masknez	$r6,$r6,$r7
  2020d8:	001518b7 	or	$r23,$r5,$r6
  2020dc:	001402e5 	nor	$r5,$r23,$r0
  2020e0:	0045fca5 	srli.d	$r5,$r5,0x3f
  2020e4:	40001c80 	beqz	$r4,28(0x1c) # 202100 <_ZN5alloc7raw_vec19RawVec$LT$T$C$A$GT$7reserve21do_reserve_and_handle17h35c0de4e7de23cf4E+0x6c>
  2020e8:	28c002c6 	ld.d	$r6,$r22,0
  2020ec:	29c0c064 	st.d	$r4,$r3,48(0x30)
  2020f0:	03800404 	ori	$r4,$r0,0x1
  2020f4:	29c0a064 	st.d	$r4,$r3,40(0x28)
  2020f8:	29c08066 	st.d	$r6,$r3,32(0x20)
  2020fc:	50000800 	b	8(0x8) # 202104 <_ZN5alloc7raw_vec19RawVec$LT$T$C$A$GT$7reserve21do_reserve_and_handle17h35c0de4e7de23cf4E+0x70>
  202100:	29c0a060 	st.d	$r0,$r3,40(0x28)
  202104:	02c02064 	addi.d	$r4,$r3,8(0x8)
  202108:	02c08067 	addi.d	$r7,$r3,32(0x20)
  20210c:	001502e6 	move	$r6,$r23
  202110:	54005000 	bl	80(0x50) # 202160 <_ZN5alloc7raw_vec11finish_grow17h7ef44ecaf7ad1948E.llvm.15126927141373565544>
  202114:	28c04064 	ld.d	$r4,$r3,16(0x10)
  202118:	28c02065 	ld.d	$r5,$r3,8(0x8)
  20211c:	40001ca0 	beqz	$r5,28(0x1c) # 202138 <_ZN5alloc7raw_vec19RawVec$LT$T$C$A$GT$7reserve21do_reserve_and_handle17h35c0de4e7de23cf4E+0xa4>
  202120:	03800405 	ori	$r5,$r0,0x1
  202124:	032000a5 	lu52i.d	$r5,$r5,-2048(0x800)
  202128:	58001885 	beq	$r4,$r5,24(0x18) # 202140 <_ZN5alloc7raw_vec19RawVec$LT$T$C$A$GT$7reserve21do_reserve_and_handle17h35c0de4e7de23cf4E+0xac>
  20212c:	44002880 	bnez	$r4,40(0x28) # 202154 <_ZN5alloc7raw_vec19RawVec$LT$T$C$A$GT$7reserve21do_reserve_and_handle17h35c0de4e7de23cf4E+0xc0>
  202130:	57ff27ff 	bl	-220(0xfffff24) # 202054 <_ZN5alloc7raw_vec17capacity_overflow17h68933b2e0f5d11dbE>
  202134:	38600400 	amswap.w	$r0,$r1,$r0
  202138:	29c022d7 	st.d	$r23,$r22,8(0x8)
  20213c:	29c002c4 	st.d	$r4,$r22,0
  202140:	28c0e077 	ld.d	$r23,$r3,56(0x38)
  202144:	28c10076 	ld.d	$r22,$r3,64(0x40)
  202148:	28c12061 	ld.d	$r1,$r3,72(0x48)
  20214c:	02c14063 	addi.d	$r3,$r3,80(0x50)
  202150:	4c000020 	jirl	$r0,$r1,0
  202154:	28c06064 	ld.d	$r4,$r3,24(0x18)
  202158:	57fef7ff 	bl	-268(0xffffef4) # 20204c <__rust_alloc_error_handler>
  20215c:	38600400 	amswap.w	$r0,$r1,$r0

0000000000202160 <_ZN5alloc7raw_vec11finish_grow17h7ef44ecaf7ad1948E.llvm.15126927141373565544>:
_ZN5alloc7raw_vec11finish_grow17h7ef44ecaf7ad1948E.llvm.15126927141373565544():
  202160:	02fec063 	addi.d	$r3,$r3,-80(0xfb0)
  202164:	29c12061 	st.d	$r1,$r3,72(0x48)
  202168:	29c10076 	st.d	$r22,$r3,64(0x40)
  20216c:	29c0e077 	st.d	$r23,$r3,56(0x38)
  202170:	29c0c078 	st.d	$r24,$r3,48(0x30)
  202174:	29c0a079 	st.d	$r25,$r3,40(0x28)
  202178:	29c0807a 	st.d	$r26,$r3,32(0x20)
  20217c:	29c0607b 	st.d	$r27,$r3,24(0x18)
  202180:	001500d6 	move	$r22,$r6
  202184:	00150097 	move	$r23,$r4
  202188:	4000b4a0 	beqz	$r5,180(0xb4) # 20223c <_ZN5alloc7raw_vec11finish_grow17h7ef44ecaf7ad1948E.llvm.15126927141373565544+0xdc>
  20218c:	28c020e4 	ld.d	$r4,$r7,8(0x8)
  202190:	40007480 	beqz	$r4,116(0x74) # 202204 <_ZN5alloc7raw_vec11finish_grow17h7ef44ecaf7ad1948E.llvm.15126927141373565544+0xa4>
  202194:	28c040f9 	ld.d	$r25,$r7,16(0x10)
  202198:	40006f20 	beqz	$r25,108(0x6c) # 202204 <_ZN5alloc7raw_vec11finish_grow17h7ef44ecaf7ad1948E.llvm.15126927141373565544+0xa4>
  20219c:	28c000fa 	ld.d	$r26,$r7,0
  2021a0:	02c02064 	addi.d	$r4,$r3,8(0x8)
  2021a4:	03800406 	ori	$r6,$r0,0x1
  2021a8:	001502c5 	move	$r5,$r22
  2021ac:	542f0c00 	bl	12044(0x2f0c) # 2050b8 <_ZN7axalloc15GlobalAllocator5alloc17hb16ded095c2d389eE>
  2021b0:	2a002064 	ld.bu	$r4,$r3,8(0x8)
  2021b4:	4400bc80 	bnez	$r4,188(0xbc) # 202270 <_ZN5alloc7raw_vec11finish_grow17h7ef44ecaf7ad1948E.llvm.15126927141373565544+0x110>
  2021b8:	28c04078 	ld.d	$r24,$r3,16(0x10)
  2021bc:	40003b00 	beqz	$r24,56(0x38) # 2021f4 <_ZN5alloc7raw_vec11finish_grow17h7ef44ecaf7ad1948E.llvm.15126927141373565544+0x94>
  2021c0:	00150304 	move	$r4,$r24
  2021c4:	00150345 	move	$r5,$r26
  2021c8:	00150326 	move	$r6,$r25
  2021cc:	55170000 	bl	71424(0x11700) # 2138cc <memcpy>
  2021d0:	0380101b 	ori	$r27,$r0,0x4
  2021d4:	00150004 	move	$r4,$r0
  2021d8:	04000364 	csrxchg	$r4,$r27,0x0
  2021dc:	03800406 	ori	$r6,$r0,0x1
  2021e0:	00150344 	move	$r4,$r26
  2021e4:	00150325 	move	$r5,$r25
  2021e8:	54055400 	bl	1364(0x554) # 20273c <_ZN79_$LT$allocator..slab..SlabByteAllocator$u20$as$u20$allocator..ByteAllocator$GT$7dealloc17h4f56f6574734f8a8E>
  2021ec:	00150364 	move	$r4,$r27
  2021f0:	04000364 	csrxchg	$r4,$r27,0x0
  2021f4:	40003f00 	beqz	$r24,60(0x3c) # 202230 <_ZN5alloc7raw_vec11finish_grow17h7ef44ecaf7ad1948E.llvm.15126927141373565544+0xd0>
  2021f8:	29c022f8 	st.d	$r24,$r23,8(0x8)
  2021fc:	00150004 	move	$r4,$r0
  202200:	50004400 	b	68(0x44) # 202244 <_ZN5alloc7raw_vec11finish_grow17h7ef44ecaf7ad1948E.llvm.15126927141373565544+0xe4>
  202204:	1a000f44 	pcalau12i	$r4,122(0x7a)
  202208:	02d0e084 	addi.d	$r4,$r4,1080(0x438)
  20220c:	28000084 	ld.b	$r4,$r4,0
  202210:	02c02064 	addi.d	$r4,$r3,8(0x8)
  202214:	03800406 	ori	$r6,$r0,0x1
  202218:	001502c5 	move	$r5,$r22
  20221c:	542e9c00 	bl	11932(0x2e9c) # 2050b8 <_ZN7axalloc15GlobalAllocator5alloc17hb16ded095c2d389eE>
  202220:	2a002064 	ld.bu	$r4,$r3,8(0x8)
  202224:	44004c80 	bnez	$r4,76(0x4c) # 202270 <_ZN5alloc7raw_vec11finish_grow17h7ef44ecaf7ad1948E.llvm.15126927141373565544+0x110>
  202228:	28c04078 	ld.d	$r24,$r3,16(0x10)
  20222c:	47ffcf1f 	bnez	$r24,-52(0x7fffcc) # 2021f8 <_ZN5alloc7raw_vec11finish_grow17h7ef44ecaf7ad1948E.llvm.15126927141373565544+0x98>
  202230:	03800404 	ori	$r4,$r0,0x1
  202234:	29c022e4 	st.d	$r4,$r23,8(0x8)
  202238:	50000c00 	b	12(0xc) # 202244 <_ZN5alloc7raw_vec11finish_grow17h7ef44ecaf7ad1948E.llvm.15126927141373565544+0xe4>
  20223c:	29c022e0 	st.d	$r0,$r23,8(0x8)
  202240:	03800404 	ori	$r4,$r0,0x1
  202244:	29c002e4 	st.d	$r4,$r23,0
  202248:	29c042f6 	st.d	$r22,$r23,16(0x10)
  20224c:	28c0607b 	ld.d	$r27,$r3,24(0x18)
  202250:	28c0807a 	ld.d	$r26,$r3,32(0x20)
  202254:	28c0a079 	ld.d	$r25,$r3,40(0x28)
  202258:	28c0c078 	ld.d	$r24,$r3,48(0x30)
  20225c:	28c0e077 	ld.d	$r23,$r3,56(0x38)
  202260:	28c10076 	ld.d	$r22,$r3,64(0x40)
  202264:	28c12061 	ld.d	$r1,$r3,72(0x48)
  202268:	02c14063 	addi.d	$r3,$r3,80(0x50)
  20226c:	4c000020 	jirl	$r0,$r1,0
  202270:	001502c4 	move	$r4,$r22
  202274:	57fddbff 	bl	-552(0xffffdd8) # 20204c <__rust_alloc_error_handler>
  202278:	38600400 	amswap.w	$r0,$r1,$r0

000000000020227c <_ZN5alloc7raw_vec19RawVec$LT$T$C$A$GT$16reserve_for_push17hd5a69c9c51df227fE>:
_ZN5alloc7raw_vec19RawVec$LT$T$C$A$GT$16reserve_for_push17hd5a69c9c51df227fE():
  20227c:	02fec063 	addi.d	$r3,$r3,-80(0xfb0)
  202280:	29c12061 	st.d	$r1,$r3,72(0x48)
  202284:	29c10076 	st.d	$r22,$r3,64(0x40)
  202288:	29c0e077 	st.d	$r23,$r3,56(0x38)
  20228c:	02c004a5 	addi.d	$r5,$r5,1(0x1)
  202290:	400088a0 	beqz	$r5,136(0x88) # 202318 <_ZN5alloc7raw_vec19RawVec$LT$T$C$A$GT$16reserve_for_push17hd5a69c9c51df227fE+0x9c>
  202294:	00150096 	move	$r22,$r4
  202298:	28c02084 	ld.d	$r4,$r4,8(0x8)
  20229c:	00410486 	slli.d	$r6,$r4,0x1
  2022a0:	001298a7 	sltu	$r7,$r5,$r6
  2022a4:	00139ca5 	masknez	$r5,$r5,$r7
  2022a8:	00131cc6 	maskeqz	$r6,$r6,$r7
  2022ac:	001514c5 	or	$r5,$r6,$r5
  2022b0:	03802006 	ori	$r6,$r0,0x8
  2022b4:	001294c7 	sltu	$r7,$r6,$r5
  2022b8:	00131ca5 	maskeqz	$r5,$r5,$r7
  2022bc:	00139cc6 	masknez	$r6,$r6,$r7
  2022c0:	001518b7 	or	$r23,$r5,$r6
  2022c4:	001402e5 	nor	$r5,$r23,$r0
  2022c8:	0045fca5 	srli.d	$r5,$r5,0x3f
  2022cc:	40001c80 	beqz	$r4,28(0x1c) # 2022e8 <_ZN5alloc7raw_vec19RawVec$LT$T$C$A$GT$16reserve_for_push17hd5a69c9c51df227fE+0x6c>
  2022d0:	28c002c6 	ld.d	$r6,$r22,0
  2022d4:	29c0c064 	st.d	$r4,$r3,48(0x30)
  2022d8:	03800404 	ori	$r4,$r0,0x1
  2022dc:	29c0a064 	st.d	$r4,$r3,40(0x28)
  2022e0:	29c08066 	st.d	$r6,$r3,32(0x20)
  2022e4:	50000800 	b	8(0x8) # 2022ec <_ZN5alloc7raw_vec19RawVec$LT$T$C$A$GT$16reserve_for_push17hd5a69c9c51df227fE+0x70>
  2022e8:	29c0a060 	st.d	$r0,$r3,40(0x28)
  2022ec:	02c02064 	addi.d	$r4,$r3,8(0x8)
  2022f0:	02c08067 	addi.d	$r7,$r3,32(0x20)
  2022f4:	001502e6 	move	$r6,$r23
  2022f8:	57fe6bff 	bl	-408(0xffffe68) # 202160 <_ZN5alloc7raw_vec11finish_grow17h7ef44ecaf7ad1948E.llvm.15126927141373565544>
  2022fc:	28c04064 	ld.d	$r4,$r3,16(0x10)
  202300:	28c02065 	ld.d	$r5,$r3,8(0x8)
  202304:	40001ca0 	beqz	$r5,28(0x1c) # 202320 <_ZN5alloc7raw_vec19RawVec$LT$T$C$A$GT$16reserve_for_push17hd5a69c9c51df227fE+0xa4>
  202308:	03800405 	ori	$r5,$r0,0x1
  20230c:	032000a5 	lu52i.d	$r5,$r5,-2048(0x800)
  202310:	58001885 	beq	$r4,$r5,24(0x18) # 202328 <_ZN5alloc7raw_vec19RawVec$LT$T$C$A$GT$16reserve_for_push17hd5a69c9c51df227fE+0xac>
  202314:	44002880 	bnez	$r4,40(0x28) # 20233c <_ZN5alloc7raw_vec19RawVec$LT$T$C$A$GT$16reserve_for_push17hd5a69c9c51df227fE+0xc0>
  202318:	57fd3fff 	bl	-708(0xffffd3c) # 202054 <_ZN5alloc7raw_vec17capacity_overflow17h68933b2e0f5d11dbE>
  20231c:	38600400 	amswap.w	$r0,$r1,$r0
  202320:	29c022d7 	st.d	$r23,$r22,8(0x8)
  202324:	29c002c4 	st.d	$r4,$r22,0
  202328:	28c0e077 	ld.d	$r23,$r3,56(0x38)
  20232c:	28c10076 	ld.d	$r22,$r3,64(0x40)
  202330:	28c12061 	ld.d	$r1,$r3,72(0x48)
  202334:	02c14063 	addi.d	$r3,$r3,80(0x50)
  202338:	4c000020 	jirl	$r0,$r1,0
  20233c:	28c06064 	ld.d	$r4,$r3,24(0x18)
  202340:	57fd0fff 	bl	-756(0xffffd0c) # 20204c <__rust_alloc_error_handler>
  202344:	38600400 	amswap.w	$r0,$r1,$r0

0000000000202348 <__rdl_oom>:
__rdl_oom():
  202348:	02fec063 	addi.d	$r3,$r3,-80(0xfb0)
  20234c:	29c02064 	st.d	$r4,$r3,8(0x8)
  202350:	29c0c060 	st.d	$r0,$r3,48(0x30)
  202354:	03800804 	ori	$r4,$r0,0x2
  202358:	29c06064 	st.d	$r4,$r3,24(0x18)
  20235c:	1a0002a4 	pcalau12i	$r4,21(0x15)
  202360:	02c3a084 	addi.d	$r4,$r4,232(0xe8)
  202364:	29c04064 	st.d	$r4,$r3,16(0x10)
  202368:	03800404 	ori	$r4,$r0,0x1
  20236c:	29c0a064 	st.d	$r4,$r3,40(0x28)
  202370:	02c10064 	addi.d	$r4,$r3,64(0x40)
  202374:	29c08064 	st.d	$r4,$r3,32(0x20)
  202378:	1a0001a4 	pcalau12i	$r4,13(0xd)
  20237c:	02cf4084 	addi.d	$r4,$r4,976(0x3d0)
  202380:	29c12064 	st.d	$r4,$r3,72(0x48)
  202384:	02c02064 	addi.d	$r4,$r3,8(0x8)
  202388:	29c10064 	st.d	$r4,$r3,64(0x40)
  20238c:	02c04064 	addi.d	$r4,$r3,16(0x10)
  202390:	54e1a400 	bl	57764(0xe1a4) # 210534 <_ZN4core9panicking18panic_nounwind_fmt17hc3d80818bb5b1bd9E>
  202394:	38600400 	amswap.w	$r0,$r1,$r0

0000000000202398 <_ZN50_$LT$$RF$mut$u20$W$u20$as$u20$core..fmt..Write$GT$10write_char17hf340764d96e8630aE>:
_ZN50_$LT$$RF$mut$u20$W$u20$as$u20$core..fmt..Write$GT$10write_char17hf340764d96e8630aE():
  202398:	02ff4063 	addi.d	$r3,$r3,-48(0xfd0)
  20239c:	29c0a061 	st.d	$r1,$r3,40(0x28)
  2023a0:	29c08076 	st.d	$r22,$r3,32(0x20)
  2023a4:	29c06077 	st.d	$r23,$r3,24(0x18)
  2023a8:	29c04078 	st.d	$r24,$r3,16(0x10)
  2023ac:	001500b7 	move	$r23,$r5
  2023b0:	28c00096 	ld.d	$r22,$r4,0
  2023b4:	00df00a4 	bstrpick.d	$r4,$r5,0x1f,0x0
  2023b8:	03820005 	ori	$r5,$r0,0x80
  2023bc:	6c003085 	bgeu	$r4,$r5,48(0x30) # 2023ec <_ZN50_$LT$$RF$mut$u20$W$u20$as$u20$core..fmt..Write$GT$10write_char17hf340764d96e8630aE+0x54>
  2023c0:	28c042c5 	ld.d	$r5,$r22,16(0x10)
  2023c4:	28c022c4 	ld.d	$r4,$r22,8(0x8)
  2023c8:	5c0010a4 	bne	$r5,$r4,16(0x10) # 2023d8 <_ZN50_$LT$$RF$mut$u20$W$u20$as$u20$core..fmt..Write$GT$10write_char17hf340764d96e8630aE+0x40>
  2023cc:	001502c4 	move	$r4,$r22
  2023d0:	57feafff 	bl	-340(0xffffeac) # 20227c <_ZN5alloc7raw_vec19RawVec$LT$T$C$A$GT$16reserve_for_push17hd5a69c9c51df227fE>
  2023d4:	28c042c5 	ld.d	$r5,$r22,16(0x10)
  2023d8:	28c002c4 	ld.d	$r4,$r22,0
  2023dc:	38101497 	stx.b	$r23,$r4,$r5
  2023e0:	28c042c4 	ld.d	$r4,$r22,16(0x10)
  2023e4:	02c00484 	addi.d	$r4,$r4,1(0x1)
  2023e8:	5000c400 	b	196(0xc4) # 2024ac <_ZN50_$LT$$RF$mut$u20$W$u20$as$u20$core..fmt..Write$GT$10write_char17hf340764d96e8630aE+0x114>
  2023ec:	29803060 	st.w	$r0,$r3,12(0xc)
  2023f0:	03a00005 	ori	$r5,$r0,0x800
  2023f4:	6c002085 	bgeu	$r4,$r5,32(0x20) # 202414 <_ZN50_$LT$$RF$mut$u20$W$u20$as$u20$core..fmt..Write$GT$10write_char17hf340764d96e8630aE+0x7c>
  2023f8:	03800818 	ori	$r24,$r0,0x2
  2023fc:	00451ae4 	srli.d	$r4,$r23,0x6
  202400:	00bf1b17 	bstrins.d	$r23,$r24,0x3f,0x6
  202404:	29003477 	st.b	$r23,$r3,13(0xd)
  202408:	03830084 	ori	$r4,$r4,0xc0
  20240c:	29003064 	st.b	$r4,$r3,12(0xc)
  202410:	50007400 	b	116(0x74) # 202484 <_ZN50_$LT$$RF$mut$u20$W$u20$as$u20$core..fmt..Write$GT$10write_char17hf340764d96e8630aE+0xec>
  202414:	14000205 	lu12i.w	$r5,16(0x10)
  202418:	6c003485 	bgeu	$r4,$r5,52(0x34) # 20244c <_ZN50_$LT$$RF$mut$u20$W$u20$as$u20$core..fmt..Write$GT$10write_char17hf340764d96e8630aE+0xb4>
  20241c:	03800804 	ori	$r4,$r0,0x2
  202420:	001502e5 	move	$r5,$r23
  202424:	00bf1885 	bstrins.d	$r5,$r4,0x3f,0x6
  202428:	29003865 	st.b	$r5,$r3,14(0xe)
  20242c:	00451ae5 	srli.d	$r5,$r23,0x6
  202430:	00bf1885 	bstrins.d	$r5,$r4,0x3f,0x6
  202434:	29003465 	st.b	$r5,$r3,13(0xd)
  202438:	004532e4 	srli.d	$r4,$r23,0xc
  20243c:	03838084 	ori	$r4,$r4,0xe0
  202440:	29003064 	st.b	$r4,$r3,12(0xc)
  202444:	03800c18 	ori	$r24,$r0,0x3
  202448:	50003c00 	b	60(0x3c) # 202484 <_ZN50_$LT$$RF$mut$u20$W$u20$as$u20$core..fmt..Write$GT$10write_char17hf340764d96e8630aE+0xec>
  20244c:	004532e4 	srli.d	$r4,$r23,0xc
  202450:	03800805 	ori	$r5,$r0,0x2
  202454:	00bf18a4 	bstrins.d	$r4,$r5,0x3f,0x6
  202458:	00451ae6 	srli.d	$r6,$r23,0x6
  20245c:	00bf18a6 	bstrins.d	$r6,$r5,0x3f,0x6
  202460:	00454ae7 	srli.d	$r7,$r23,0x12
  202464:	00bf18b7 	bstrins.d	$r23,$r5,0x3f,0x6
  202468:	29003c77 	st.b	$r23,$r3,15(0xf)
  20246c:	29003866 	st.b	$r6,$r3,14(0xe)
  202470:	29003464 	st.b	$r4,$r3,13(0xd)
  202474:	03807804 	ori	$r4,$r0,0x1e
  202478:	00bf0c87 	bstrins.d	$r7,$r4,0x3f,0x3
  20247c:	29003067 	st.b	$r7,$r3,12(0xc)
  202480:	03801018 	ori	$r24,$r0,0x4
  202484:	28c042d7 	ld.d	$r23,$r22,16(0x10)
  202488:	28c022c4 	ld.d	$r4,$r22,8(0x8)
  20248c:	0011dc84 	sub.d	$r4,$r4,$r23
  202490:	68003c98 	bltu	$r4,$r24,60(0x3c) # 2024cc <_ZN50_$LT$$RF$mut$u20$W$u20$as$u20$core..fmt..Write$GT$10write_char17hf340764d96e8630aE+0x134>
  202494:	28c002c4 	ld.d	$r4,$r22,0
  202498:	0010dc84 	add.d	$r4,$r4,$r23
  20249c:	02c03065 	addi.d	$r5,$r3,12(0xc)
  2024a0:	00150306 	move	$r6,$r24
  2024a4:	55142800 	bl	70696(0x11428) # 2138cc <memcpy>
  2024a8:	0010e2e4 	add.d	$r4,$r23,$r24
  2024ac:	29c042c4 	st.d	$r4,$r22,16(0x10)
  2024b0:	00150004 	move	$r4,$r0
  2024b4:	28c04078 	ld.d	$r24,$r3,16(0x10)
  2024b8:	28c06077 	ld.d	$r23,$r3,24(0x18)
  2024bc:	28c08076 	ld.d	$r22,$r3,32(0x20)
  2024c0:	28c0a061 	ld.d	$r1,$r3,40(0x28)
  2024c4:	02c0c063 	addi.d	$r3,$r3,48(0x30)
  2024c8:	4c000020 	jirl	$r0,$r1,0
  2024cc:	001502c4 	move	$r4,$r22
  2024d0:	001502e5 	move	$r5,$r23
  2024d4:	00150306 	move	$r6,$r24
  2024d8:	57fbbfff 	bl	-1092(0xffffbbc) # 202094 <_ZN5alloc7raw_vec19RawVec$LT$T$C$A$GT$7reserve21do_reserve_and_handle17h35c0de4e7de23cf4E>
  2024dc:	28c042d7 	ld.d	$r23,$r22,16(0x10)
  2024e0:	53ffb7ff 	b	-76(0xfffffb4) # 202494 <_ZN50_$LT$$RF$mut$u20$W$u20$as$u20$core..fmt..Write$GT$10write_char17hf340764d96e8630aE+0xfc>

00000000002024e4 <_ZN50_$LT$$RF$mut$u20$W$u20$as$u20$core..fmt..Write$GT$9write_fmt17h06c155467c88e782E>:
_ZN50_$LT$$RF$mut$u20$W$u20$as$u20$core..fmt..Write$GT$9write_fmt17h06c155467c88e782E():
  2024e4:	02ff0063 	addi.d	$r3,$r3,-64(0xfc0)
  2024e8:	29c0e061 	st.d	$r1,$r3,56(0x38)
  2024ec:	28c00084 	ld.d	$r4,$r4,0
  2024f0:	28c0a0a6 	ld.d	$r6,$r5,40(0x28)
  2024f4:	29c0c066 	st.d	$r6,$r3,48(0x30)
  2024f8:	28c080a6 	ld.d	$r6,$r5,32(0x20)
  2024fc:	29c0a066 	st.d	$r6,$r3,40(0x28)
  202500:	28c060a6 	ld.d	$r6,$r5,24(0x18)
  202504:	29c08066 	st.d	$r6,$r3,32(0x20)
  202508:	28c040a6 	ld.d	$r6,$r5,16(0x10)
  20250c:	29c06066 	st.d	$r6,$r3,24(0x18)
  202510:	28c020a6 	ld.d	$r6,$r5,8(0x8)
  202514:	29c04066 	st.d	$r6,$r3,16(0x10)
  202518:	28c000a5 	ld.d	$r5,$r5,0
  20251c:	29c02065 	st.d	$r5,$r3,8(0x8)
  202520:	29c00064 	st.d	$r4,$r3,0
  202524:	02c00064 	addi.d	$r4,$r3,0
  202528:	1a0002a5 	pcalau12i	$r5,21(0x15)
  20252c:	02c620a5 	addi.d	$r5,$r5,392(0x188)
  202530:	02c02066 	addi.d	$r6,$r3,8(0x8)
  202534:	54e6b000 	bl	59056(0xe6b0) # 210be4 <_ZN4core3fmt5write17hf855db0f875ea3deE>
  202538:	28c0e061 	ld.d	$r1,$r3,56(0x38)
  20253c:	02c10063 	addi.d	$r3,$r3,64(0x40)
  202540:	4c000020 	jirl	$r0,$r1,0

0000000000202544 <_ZN50_$LT$$RF$mut$u20$W$u20$as$u20$core..fmt..Write$GT$9write_str17h33f61da52a24f784E>:
_ZN50_$LT$$RF$mut$u20$W$u20$as$u20$core..fmt..Write$GT$9write_str17h33f61da52a24f784E():
  202544:	02ff4063 	addi.d	$r3,$r3,-48(0xfd0)
  202548:	29c0a061 	st.d	$r1,$r3,40(0x28)
  20254c:	29c08076 	st.d	$r22,$r3,32(0x20)
  202550:	29c06077 	st.d	$r23,$r3,24(0x18)
  202554:	29c04078 	st.d	$r24,$r3,16(0x10)
  202558:	29c02079 	st.d	$r25,$r3,8(0x8)
  20255c:	001500d6 	move	$r22,$r6
  202560:	001500b8 	move	$r24,$r5
  202564:	28c00097 	ld.d	$r23,$r4,0
  202568:	28c042f9 	ld.d	$r25,$r23,16(0x10)
  20256c:	28c022e4 	ld.d	$r4,$r23,8(0x8)
  202570:	0011e484 	sub.d	$r4,$r4,$r25
  202574:	68004086 	bltu	$r4,$r6,64(0x40) # 2025b4 <_ZN50_$LT$$RF$mut$u20$W$u20$as$u20$core..fmt..Write$GT$9write_str17h33f61da52a24f784E+0x70>
  202578:	28c002e4 	ld.d	$r4,$r23,0
  20257c:	0010e484 	add.d	$r4,$r4,$r25
  202580:	00150305 	move	$r5,$r24
  202584:	001502c6 	move	$r6,$r22
  202588:	55134400 	bl	70468(0x11344) # 2138cc <memcpy>
  20258c:	0010db24 	add.d	$r4,$r25,$r22
  202590:	29c042e4 	st.d	$r4,$r23,16(0x10)
  202594:	00150004 	move	$r4,$r0
  202598:	28c02079 	ld.d	$r25,$r3,8(0x8)
  20259c:	28c04078 	ld.d	$r24,$r3,16(0x10)
  2025a0:	28c06077 	ld.d	$r23,$r3,24(0x18)
  2025a4:	28c08076 	ld.d	$r22,$r3,32(0x20)
  2025a8:	28c0a061 	ld.d	$r1,$r3,40(0x28)
  2025ac:	02c0c063 	addi.d	$r3,$r3,48(0x30)
  2025b0:	4c000020 	jirl	$r0,$r1,0
  2025b4:	001502e4 	move	$r4,$r23
  2025b8:	00150325 	move	$r5,$r25
  2025bc:	001502c6 	move	$r6,$r22
  2025c0:	57fad7ff 	bl	-1324(0xffffad4) # 202094 <_ZN5alloc7raw_vec19RawVec$LT$T$C$A$GT$7reserve21do_reserve_and_handle17h35c0de4e7de23cf4E>
  2025c4:	28c042f9 	ld.d	$r25,$r23,16(0x10)
  2025c8:	53ffb3ff 	b	-80(0xfffffb0) # 202578 <_ZN50_$LT$$RF$mut$u20$W$u20$as$u20$core..fmt..Write$GT$9write_str17h33f61da52a24f784E+0x34>

00000000002025cc <_ZN58_$LT$allocator..AllocError$u20$as$u20$core..fmt..Debug$GT$3fmt17h29c99bb181265d55E>:
_ZN58_$LT$allocator..AllocError$u20$as$u20$core..fmt..Debug$GT$3fmt17h29c99bb181265d55E():
  2025cc:	2a000084 	ld.bu	$r4,$r4,0
  2025d0:	00410c84 	slli.d	$r4,$r4,0x3
  2025d4:	1a0002e6 	pcalau12i	$r6,23(0x17)
  2025d8:	02e100c6 	addi.d	$r6,$r6,-1984(0x840)
  2025dc:	380c10c7 	ldx.d	$r7,$r6,$r4
  2025e0:	1a000246 	pcalau12i	$r6,18(0x12)
  2025e4:	02c9a0c6 	addi.d	$r6,$r6,616(0x268)
  2025e8:	380c10c6 	ldx.d	$r6,$r6,$r4
  2025ec:	28c080a4 	ld.d	$r4,$r5,32(0x20)
  2025f0:	28c0a0a5 	ld.d	$r5,$r5,40(0x28)
  2025f4:	28c060a8 	ld.d	$r8,$r5,24(0x18)
  2025f8:	001500e5 	move	$r5,$r7
  2025fc:	4c000100 	jirl	$r0,$r8,0

0000000000202600 <_ZN79_$LT$allocator..slab..SlabByteAllocator$u20$as$u20$allocator..BaseAllocator$GT$10add_memory17h19bb287852dd1bf0E>:
_ZN79_$LT$allocator..slab..SlabByteAllocator$u20$as$u20$allocator..BaseAllocator$GT$10add_memory17h19bb287852dd1bf0E():
  202600:	28c00087 	ld.d	$r7,$r4,0
  202604:	4000c8e0 	beqz	$r7,200(0xc8) # 2026cc <_ZN79_$LT$allocator..slab..SlabByteAllocator$u20$as$u20$allocator..BaseAllocator$GT$10add_memory17h19bb287852dd1bf0E+0xcc>
  202608:	037ffca7 	andi	$r7,$r5,0xfff
  20260c:	4400dce0 	bnez	$r7,220(0xdc) # 2026e8 <_ZN79_$LT$allocator..slab..SlabByteAllocator$u20$as$u20$allocator..BaseAllocator$GT$10add_memory17h19bb287852dd1bf0E+0xe8>
  202610:	037ffcc7 	andi	$r7,$r6,0xfff
  202614:	4400f0e0 	bnez	$r7,240(0xf0) # 202704 <_ZN79_$LT$allocator..slab..SlabByteAllocator$u20$as$u20$allocator..BaseAllocator$GT$10add_memory17h19bb287852dd1bf0E+0x104>
  202618:	001094c6 	add.d	$r6,$r6,$r5
  20261c:	02bfe007 	addi.w	$r7,$r0,-8(0xff8)
  202620:	00149cc6 	and	$r6,$r6,$r7
  202624:	02c01ca5 	addi.d	$r5,$r5,7(0x7)
  202628:	00149ca5 	and	$r5,$r5,$r7
  20262c:	6800f4c5 	bltu	$r6,$r5,244(0xf4) # 202720 <_ZN79_$LT$allocator..slab..SlabByteAllocator$u20$as$u20$allocator..BaseAllocator$GT$10add_memory17h19bb287852dd1bf0E+0x120>
  202630:	02c020a7 	addi.d	$r7,$r5,8(0x8)
  202634:	6c000cc7 	bgeu	$r6,$r7,12(0xc) # 202640 <_ZN79_$LT$allocator..slab..SlabByteAllocator$u20$as$u20$allocator..BaseAllocator$GT$10add_memory17h19bb287852dd1bf0E+0x40>
  202638:	00150009 	move	$r9,$r0
  20263c:	50006800 	b	104(0x68) # 2026a4 <_ZN79_$LT$allocator..slab..SlabByteAllocator$u20$as$u20$allocator..BaseAllocator$GT$10add_memory17h19bb287852dd1bf0E+0xa4>
  202640:	02c2c088 	addi.d	$r8,$r4,176(0xb0)
  202644:	0380fc0a 	ori	$r10,$r0,0x3f
  202648:	0380040b 	ori	$r11,$r0,0x1
  20264c:	03807c0c 	ori	$r12,$r0,0x1f
  202650:	00150009 	move	$r9,$r0
  202654:	00119407 	sub.d	$r7,$r0,$r5
  202658:	00149ca7 	and	$r7,$r5,$r7
  20265c:	001194cd 	sub.d	$r13,$r6,$r5
  202660:	000025ad 	clz.d	$r13,$r13
  202664:	0011b54d 	sub.d	$r13,$r10,$r13
  202668:	0018b56d 	sll.d	$r13,$r11,$r13
  20266c:	0012b4ee 	sltu	$r14,$r7,$r13
  202670:	0013b9ad 	masknez	$r13,$r13,$r14
  202674:	001338e7 	maskeqz	$r7,$r7,$r14
  202678:	001534ed 	or	$r13,$r7,$r13
  20267c:	00002da7 	ctz.d	$r7,$r13
  202680:	68003587 	bltu	$r12,$r7,52(0x34) # 2026b4 <_ZN79_$LT$allocator..slab..SlabByteAllocator$u20$as$u20$allocator..BaseAllocator$GT$10add_memory17h19bb287852dd1bf0E+0xb4>
  202684:	00410ce7 	slli.d	$r7,$r7,0x3
  202688:	380c1d0e 	ldx.d	$r14,$r8,$r7
  20268c:	29c000ae 	st.d	$r14,$r5,0
  202690:	381c1d05 	stx.d	$r5,$r8,$r7
  202694:	0010a5a9 	add.d	$r9,$r13,$r9
  202698:	001095a5 	add.d	$r5,$r13,$r5
  20269c:	02c020a7 	addi.d	$r7,$r5,8(0x8)
  2026a0:	6fffb4c7 	bgeu	$r6,$r7,-76(0x3ffb4) # 202654 <_ZN79_$LT$allocator..slab..SlabByteAllocator$u20$as$u20$allocator..BaseAllocator$GT$10add_memory17h19bb287852dd1bf0E+0x54>
  2026a4:	28c70085 	ld.d	$r5,$r4,448(0x1c0)
  2026a8:	0010a4a5 	add.d	$r5,$r5,$r9
  2026ac:	29c70085 	st.d	$r5,$r4,448(0x1c0)
  2026b0:	4c000020 	jirl	$r0,$r1,0
  2026b4:	03808005 	ori	$r5,$r0,0x20
  2026b8:	1a0002c4 	pcalau12i	$r4,22(0x16)
  2026bc:	02dce086 	addi.d	$r6,$r4,1848(0x738)
  2026c0:	001500e4 	move	$r4,$r7
  2026c4:	54de1000 	bl	56848(0xde10) # 2104d4 <_ZN4core9panicking18panic_bounds_check17h5afa83c7f9faa757E>
  2026c8:	38600400 	amswap.w	$r0,$r1,$r0
  2026cc:	1a000284 	pcalau12i	$r4,20(0x14)
  2026d0:	02c9c084 	addi.d	$r4,$r4,624(0x270)
  2026d4:	0380ac05 	ori	$r5,$r0,0x2b
  2026d8:	1a0002a6 	pcalau12i	$r6,21(0x15)
  2026dc:	02c6e0c6 	addi.d	$r6,$r6,440(0x1b8)
  2026e0:	54dba800 	bl	56232(0xdba8) # 210288 <_ZN4core9panicking5panic17hd6bc259b6eb19bb3E>
  2026e4:	38600400 	amswap.w	$r0,$r1,$r0
  2026e8:	1a000284 	pcalau12i	$r4,20(0x14)
  2026ec:	02c87484 	addi.d	$r4,$r4,541(0x21d)
  2026f0:	03809005 	ori	$r5,$r0,0x24
  2026f4:	1a0002e6 	pcalau12i	$r6,23(0x17)
  2026f8:	02e040c6 	addi.d	$r6,$r6,-2032(0x810)
  2026fc:	54db8c00 	bl	56204(0xdb8c) # 210288 <_ZN4core9panicking5panic17hd6bc259b6eb19bb3E>
  202700:	38600400 	amswap.w	$r0,$r1,$r0
  202704:	1a000284 	pcalau12i	$r4,20(0x14)
  202708:	02c90484 	addi.d	$r4,$r4,577(0x241)
  20270c:	0380bc05 	ori	$r5,$r0,0x2f
  202710:	1a0002c6 	pcalau12i	$r6,22(0x16)
  202714:	02dfe0c6 	addi.d	$r6,$r6,2040(0x7f8)
  202718:	54db7000 	bl	56176(0xdb70) # 210288 <_ZN4core9panicking5panic17hd6bc259b6eb19bb3E>
  20271c:	38600400 	amswap.w	$r0,$r1,$r0
  202720:	1a000284 	pcalau12i	$r4,20(0x14)
  202724:	02c75c84 	addi.d	$r4,$r4,471(0x1d7)
  202728:	03807805 	ori	$r5,$r0,0x1e
  20272c:	1a0002c6 	pcalau12i	$r6,22(0x16)
  202730:	02dd40c6 	addi.d	$r6,$r6,1872(0x750)
  202734:	54db5400 	bl	56148(0xdb54) # 210288 <_ZN4core9panicking5panic17hd6bc259b6eb19bb3E>
  202738:	38600400 	amswap.w	$r0,$r1,$r0

000000000020273c <_ZN79_$LT$allocator..slab..SlabByteAllocator$u20$as$u20$allocator..ByteAllocator$GT$7dealloc17h4f56f6574734f8a8E>:
_ZN79_$LT$allocator..slab..SlabByteAllocator$u20$as$u20$allocator..ByteAllocator$GT$7dealloc17h4f56f6574734f8a8E():
  20273c:	02ffc063 	addi.d	$r3,$r3,-16(0xff0)
  202740:	14000447 	lu12i.w	$r7,34(0x22)
  202744:	038900e7 	ori	$r7,$r7,0x240
  202748:	1a000b08 	pcalau12i	$r8,88(0x58)
  20274c:	02c00108 	addi.d	$r8,$r8,0
  202750:	380c1d07 	ldx.d	$r7,$r8,$r7
  202754:	4002d8e0 	beqz	$r7,728(0x2d8) # 202a2c <_ZN79_$LT$allocator..slab..SlabByteAllocator$u20$as$u20$allocator..ByteAllocator$GT$7dealloc17h4f56f6574734f8a8E+0x2f0>
  202758:	03200007 	lu52i.d	$r7,$r0,-2048(0x800)
  20275c:	02fffcc9 	addi.d	$r9,$r6,-1(0xfff)
  202760:	0014a4c9 	and	$r9,$r6,$r9
  202764:	0012a409 	sltu	$r9,$r0,$r9
  202768:	024004ca 	sltui	$r10,$r6,1(0x1)
  20276c:	00152549 	or	$r9,$r10,$r9
  202770:	4402d920 	bnez	$r9,728(0x2d8) # 202a48 <_ZN79_$LT$allocator..slab..SlabByteAllocator$u20$as$u20$allocator..ByteAllocator$GT$7dealloc17h4f56f6574734f8a8E+0x30c>
  202774:	001198e7 	sub.d	$r7,$r7,$r6
  202778:	6802d0e5 	bltu	$r7,$r5,720(0x2d0) # 202a48 <_ZN79_$LT$allocator..slab..SlabByteAllocator$u20$as$u20$allocator..ByteAllocator$GT$7dealloc17h4f56f6574734f8a8E+0x30c>
  20277c:	14000027 	lu12i.w	$r7,1(0x1)
  202780:	6c00ece5 	bgeu	$r7,$r5,236(0xec) # 20286c <_ZN79_$LT$allocator..slab..SlabByteAllocator$u20$as$u20$allocator..ByteAllocator$GT$7dealloc17h4f56f6574734f8a8E+0x130>
  202784:	4002ec80 	beqz	$r4,748(0x2ec) # 202a70 <_ZN79_$LT$allocator..slab..SlabByteAllocator$u20$as$u20$allocator..ByteAllocator$GT$7dealloc17h4f56f6574734f8a8E+0x334>
  202788:	02fffca7 	addi.d	$r7,$r5,-1(0xfff)
  20278c:	000024e7 	clz.d	$r7,$r7
  202790:	02bffc09 	addi.w	$r9,$r0,-1(0xfff)
  202794:	00191d27 	srl.d	$r7,$r9,$r7
  202798:	02c004e7 	addi.d	$r7,$r7,1(0x1)
  20279c:	001298e9 	sltu	$r9,$r7,$r6
  2027a0:	0013a4e7 	masknez	$r7,$r7,$r9
  2027a4:	001324c6 	maskeqz	$r6,$r6,$r9
  2027a8:	00151cc6 	or	$r6,$r6,$r7
  2027ac:	03802007 	ori	$r7,$r0,0x8
  2027b0:	001298e9 	sltu	$r9,$r7,$r6
  2027b4:	001324c6 	maskeqz	$r6,$r6,$r9
  2027b8:	0013a4e7 	masknez	$r7,$r7,$r9
  2027bc:	00151cc6 	or	$r6,$r6,$r7
  2027c0:	00002cc7 	ctz.d	$r7,$r6
  2027c4:	03807c09 	ori	$r9,$r0,0x1f
  2027c8:	68023527 	bltu	$r9,$r7,564(0x234) # 2029fc <_ZN79_$LT$allocator..slab..SlabByteAllocator$u20$as$u20$allocator..ByteAllocator$GT$7dealloc17h4f56f6574734f8a8E+0x2c0>
  2027cc:	002d20ea 	alsl.d	$r10,$r7,$r8,0x3
  2027d0:	1400044b 	lu12i.w	$r11,34(0x22)
  2027d4:	038bc16b 	ori	$r11,$r11,0x2f0
  2027d8:	380c2d4c 	ldx.d	$r12,$r10,$r11
  2027dc:	29c0008c 	st.d	$r12,$r4,0
  2027e0:	381c2d44 	stx.d	$r4,$r10,$r11
  2027e4:	0380040a 	ori	$r10,$r0,0x1
  2027e8:	0015008b 	move	$r11,$r4
  2027ec:	002d20ec 	alsl.d	$r12,$r7,$r8,0x3
  2027f0:	1400044d 	lu12i.w	$r13,34(0x22)
  2027f4:	038bc1ad 	ori	$r13,$r13,0x2f0
  2027f8:	0010b58d 	add.d	$r13,$r12,$r13
  2027fc:	00189d4c 	sll.d	$r12,$r10,$r7
  202800:	0015918c 	xor	$r12,$r12,$r4
  202804:	001501ae 	move	$r14,$r13
  202808:	40009880 	beqz	$r4,152(0x98) # 2028a0 <_ZN79_$LT$allocator..slab..SlabByteAllocator$u20$as$u20$allocator..ByteAllocator$GT$7dealloc17h4f56f6574734f8a8E+0x164>
  20280c:	28c0008f 	ld.d	$r15,$r4,0
  202810:	58001584 	beq	$r12,$r4,20(0x14) # 202824 <_ZN79_$LT$allocator..slab..SlabByteAllocator$u20$as$u20$allocator..ByteAllocator$GT$7dealloc17h4f56f6574734f8a8E+0xe8>
  202814:	0015008e 	move	$r14,$r4
  202818:	001501e4 	move	$r4,$r15
  20281c:	47fff09f 	bnez	$r4,-16(0x7ffff0) # 20280c <_ZN79_$LT$allocator..slab..SlabByteAllocator$u20$as$u20$allocator..ByteAllocator$GT$7dealloc17h4f56f6574734f8a8E+0xd0>
  202820:	50008000 	b	128(0x80) # 2028a0 <_ZN79_$LT$allocator..slab..SlabByteAllocator$u20$as$u20$allocator..ByteAllocator$GT$7dealloc17h4f56f6574734f8a8E+0x164>
  202824:	29c001cf 	st.d	$r15,$r14,0
  202828:	28c001a4 	ld.d	$r4,$r13,0
  20282c:	40000c80 	beqz	$r4,12(0xc) # 202838 <_ZN79_$LT$allocator..slab..SlabByteAllocator$u20$as$u20$allocator..ByteAllocator$GT$7dealloc17h4f56f6574734f8a8E+0xfc>
  202830:	28c00084 	ld.d	$r4,$r4,0
  202834:	29c001a4 	st.d	$r4,$r13,0
  202838:	5801dce9 	beq	$r7,$r9,476(0x1dc) # 202a14 <_ZN79_$LT$allocator..slab..SlabByteAllocator$u20$as$u20$allocator..ByteAllocator$GT$7dealloc17h4f56f6574734f8a8E+0x2d8>
  20283c:	0012b164 	sltu	$r4,$r11,$r12
  202840:	0013918c 	masknez	$r12,$r12,$r4
  202844:	00131164 	maskeqz	$r4,$r11,$r4
  202848:	00153084 	or	$r4,$r4,$r12
  20284c:	02c004e7 	addi.d	$r7,$r7,1(0x1)
  202850:	002d20eb 	alsl.d	$r11,$r7,$r8,0x3
  202854:	1400044c 	lu12i.w	$r12,34(0x22)
  202858:	038bc18c 	ori	$r12,$r12,0x2f0
  20285c:	380c316d 	ldx.d	$r13,$r11,$r12
  202860:	29c0008d 	st.d	$r13,$r4,0
  202864:	381c3164 	stx.d	$r4,$r11,$r12
  202868:	53ff83ff 	b	-128(0xfffff80) # 2027e8 <_ZN79_$LT$allocator..slab..SlabByteAllocator$u20$as$u20$allocator..ByteAllocator$GT$7dealloc17h4f56f6574734f8a8E+0xac>
  20286c:	03810406 	ori	$r6,$r0,0x41
  202870:	6c005ca6 	bgeu	$r5,$r6,92(0x5c) # 2028cc <_ZN79_$LT$allocator..slab..SlabByteAllocator$u20$as$u20$allocator..ByteAllocator$GT$7dealloc17h4f56f6574734f8a8E+0x190>
  202874:	14000445 	lu12i.w	$r5,34(0x22)
  202878:	038920a5 	ori	$r5,$r5,0x248
  20287c:	00109506 	add.d	$r6,$r8,$r5
  202880:	28c020c7 	ld.d	$r7,$r6,8(0x8)
  202884:	29c00087 	st.d	$r7,$r4,0
  202888:	380c1507 	ldx.d	$r7,$r8,$r5
  20288c:	02c004e7 	addi.d	$r7,$r7,1(0x1)
  202890:	381c1507 	stx.d	$r7,$r8,$r5
  202894:	29c020c4 	st.d	$r4,$r6,8(0x8)
  202898:	02c04063 	addi.d	$r3,$r3,16(0x10)
  20289c:	4c000020 	jirl	$r0,$r1,0
  2028a0:	14000444 	lu12i.w	$r4,34(0x22)
  2028a4:	03892084 	ori	$r4,$r4,0x248
  2028a8:	00109104 	add.d	$r4,$r8,$r4
  2028ac:	28c6a087 	ld.d	$r7,$r4,424(0x1a8)
  2028b0:	001194e5 	sub.d	$r5,$r7,$r5
  2028b4:	29c6a085 	st.d	$r5,$r4,424(0x1a8)
  2028b8:	28c6c085 	ld.d	$r5,$r4,432(0x1b0)
  2028bc:	001198a5 	sub.d	$r5,$r5,$r6
  2028c0:	29c6c085 	st.d	$r5,$r4,432(0x1b0)
  2028c4:	02c04063 	addi.d	$r3,$r3,16(0x10)
  2028c8:	4c000020 	jirl	$r0,$r1,0
  2028cc:	03820406 	ori	$r6,$r0,0x81
  2028d0:	6c0030a6 	bgeu	$r5,$r6,48(0x30) # 202900 <_ZN79_$LT$allocator..slab..SlabByteAllocator$u20$as$u20$allocator..ByteAllocator$GT$7dealloc17h4f56f6574734f8a8E+0x1c4>
  2028d4:	14000445 	lu12i.w	$r5,34(0x22)
  2028d8:	038920a5 	ori	$r5,$r5,0x248
  2028dc:	00109505 	add.d	$r5,$r8,$r5
  2028e0:	28c080a6 	ld.d	$r6,$r5,32(0x20)
  2028e4:	29c00086 	st.d	$r6,$r4,0
  2028e8:	29c080a4 	st.d	$r4,$r5,32(0x20)
  2028ec:	28c060a4 	ld.d	$r4,$r5,24(0x18)
  2028f0:	02c00484 	addi.d	$r4,$r4,1(0x1)
  2028f4:	29c060a4 	st.d	$r4,$r5,24(0x18)
  2028f8:	02c04063 	addi.d	$r3,$r3,16(0x10)
  2028fc:	4c000020 	jirl	$r0,$r1,0
  202900:	03840406 	ori	$r6,$r0,0x101
  202904:	6c0030a6 	bgeu	$r5,$r6,48(0x30) # 202934 <_ZN79_$LT$allocator..slab..SlabByteAllocator$u20$as$u20$allocator..ByteAllocator$GT$7dealloc17h4f56f6574734f8a8E+0x1f8>
  202908:	14000445 	lu12i.w	$r5,34(0x22)
  20290c:	038920a5 	ori	$r5,$r5,0x248
  202910:	00109505 	add.d	$r5,$r8,$r5
  202914:	28c0e0a6 	ld.d	$r6,$r5,56(0x38)
  202918:	29c00086 	st.d	$r6,$r4,0
  20291c:	29c0e0a4 	st.d	$r4,$r5,56(0x38)
  202920:	28c0c0a4 	ld.d	$r4,$r5,48(0x30)
  202924:	02c00484 	addi.d	$r4,$r4,1(0x1)
  202928:	29c0c0a4 	st.d	$r4,$r5,48(0x30)
  20292c:	02c04063 	addi.d	$r3,$r3,16(0x10)
  202930:	4c000020 	jirl	$r0,$r1,0
  202934:	03880406 	ori	$r6,$r0,0x201
  202938:	6c0030a6 	bgeu	$r5,$r6,48(0x30) # 202968 <_ZN79_$LT$allocator..slab..SlabByteAllocator$u20$as$u20$allocator..ByteAllocator$GT$7dealloc17h4f56f6574734f8a8E+0x22c>
  20293c:	14000445 	lu12i.w	$r5,34(0x22)
  202940:	038920a5 	ori	$r5,$r5,0x248
  202944:	00109505 	add.d	$r5,$r8,$r5
  202948:	28c140a6 	ld.d	$r6,$r5,80(0x50)
  20294c:	29c00086 	st.d	$r6,$r4,0
  202950:	29c140a4 	st.d	$r4,$r5,80(0x50)
  202954:	28c120a4 	ld.d	$r4,$r5,72(0x48)
  202958:	02c00484 	addi.d	$r4,$r4,1(0x1)
  20295c:	29c120a4 	st.d	$r4,$r5,72(0x48)
  202960:	02c04063 	addi.d	$r3,$r3,16(0x10)
  202964:	4c000020 	jirl	$r0,$r1,0
  202968:	03900406 	ori	$r6,$r0,0x401
  20296c:	6c0030a6 	bgeu	$r5,$r6,48(0x30) # 20299c <_ZN79_$LT$allocator..slab..SlabByteAllocator$u20$as$u20$allocator..ByteAllocator$GT$7dealloc17h4f56f6574734f8a8E+0x260>
  202970:	14000445 	lu12i.w	$r5,34(0x22)
  202974:	038920a5 	ori	$r5,$r5,0x248
  202978:	00109505 	add.d	$r5,$r8,$r5
  20297c:	28c1a0a6 	ld.d	$r6,$r5,104(0x68)
  202980:	29c00086 	st.d	$r6,$r4,0
  202984:	29c1a0a4 	st.d	$r4,$r5,104(0x68)
  202988:	28c180a4 	ld.d	$r4,$r5,96(0x60)
  20298c:	02c00484 	addi.d	$r4,$r4,1(0x1)
  202990:	29c180a4 	st.d	$r4,$r5,96(0x60)
  202994:	02c04063 	addi.d	$r3,$r3,16(0x10)
  202998:	4c000020 	jirl	$r0,$r1,0
  20299c:	03a00006 	ori	$r6,$r0,0x800
  2029a0:	6c0030c5 	bgeu	$r6,$r5,48(0x30) # 2029d0 <_ZN79_$LT$allocator..slab..SlabByteAllocator$u20$as$u20$allocator..ByteAllocator$GT$7dealloc17h4f56f6574734f8a8E+0x294>
  2029a4:	14000445 	lu12i.w	$r5,34(0x22)
  2029a8:	038920a5 	ori	$r5,$r5,0x248
  2029ac:	00109505 	add.d	$r5,$r8,$r5
  2029b0:	28c260a6 	ld.d	$r6,$r5,152(0x98)
  2029b4:	29c00086 	st.d	$r6,$r4,0
  2029b8:	29c260a4 	st.d	$r4,$r5,152(0x98)
  2029bc:	28c240a4 	ld.d	$r4,$r5,144(0x90)
  2029c0:	02c00484 	addi.d	$r4,$r4,1(0x1)
  2029c4:	29c240a4 	st.d	$r4,$r5,144(0x90)
  2029c8:	02c04063 	addi.d	$r3,$r3,16(0x10)
  2029cc:	4c000020 	jirl	$r0,$r1,0
  2029d0:	14000445 	lu12i.w	$r5,34(0x22)
  2029d4:	038920a5 	ori	$r5,$r5,0x248
  2029d8:	00109505 	add.d	$r5,$r8,$r5
  2029dc:	28c200a6 	ld.d	$r6,$r5,128(0x80)
  2029e0:	29c00086 	st.d	$r6,$r4,0
  2029e4:	29c200a4 	st.d	$r4,$r5,128(0x80)
  2029e8:	28c1e0a4 	ld.d	$r4,$r5,120(0x78)
  2029ec:	02c00484 	addi.d	$r4,$r4,1(0x1)
  2029f0:	29c1e0a4 	st.d	$r4,$r5,120(0x78)
  2029f4:	02c04063 	addi.d	$r3,$r3,16(0x10)
  2029f8:	4c000020 	jirl	$r0,$r1,0
  2029fc:	03808005 	ori	$r5,$r0,0x20
  202a00:	1a0002c4 	pcalau12i	$r4,22(0x16)
  202a04:	02dec086 	addi.d	$r6,$r4,1968(0x7b0)
  202a08:	001500e4 	move	$r4,$r7
  202a0c:	54dac800 	bl	56008(0xdac8) # 2104d4 <_ZN4core9panicking18panic_bounds_check17h5afa83c7f9faa757E>
  202a10:	38600400 	amswap.w	$r0,$r1,$r0
  202a14:	03808004 	ori	$r4,$r0,0x20
  202a18:	1a0002c5 	pcalau12i	$r5,22(0x16)
  202a1c:	02df20a6 	addi.d	$r6,$r5,1992(0x7c8)
  202a20:	00150085 	move	$r5,$r4
  202a24:	54dab000 	bl	55984(0xdab0) # 2104d4 <_ZN4core9panicking18panic_bounds_check17h5afa83c7f9faa757E>
  202a28:	38600400 	amswap.w	$r0,$r1,$r0
  202a2c:	1a000284 	pcalau12i	$r4,20(0x14)
  202a30:	02c9c084 	addi.d	$r4,$r4,624(0x270)
  202a34:	0380ac05 	ori	$r5,$r0,0x2b
  202a38:	1a0002a6 	pcalau12i	$r6,21(0x15)
  202a3c:	02c6e0c6 	addi.d	$r6,$r6,440(0x1b8)
  202a40:	54d84800 	bl	55368(0xd848) # 210288 <_ZN4core9panicking5panic17hd6bc259b6eb19bb3E>
  202a44:	38600400 	amswap.w	$r0,$r1,$r0
  202a48:	1a000284 	pcalau12i	$r4,20(0x14)
  202a4c:	02f96884 	addi.d	$r4,$r4,-422(0xe5a)
  202a50:	0380ac05 	ori	$r5,$r0,0x2b
  202a54:	02c02066 	addi.d	$r6,$r3,8(0x8)
  202a58:	1a0002a7 	pcalau12i	$r7,21(0x15)
  202a5c:	02c7a0e7 	addi.d	$r7,$r7,488(0x1e8)
  202a60:	1a0002a8 	pcalau12i	$r8,21(0x15)
  202a64:	02c88108 	addi.d	$r8,$r8,544(0x220)
  202a68:	54d7b000 	bl	55216(0xd7b0) # 210218 <_ZN4core6result13unwrap_failed17h1feb0e9befb8d2f9E>
  202a6c:	38600400 	amswap.w	$r0,$r1,$r0
  202a70:	1a000284 	pcalau12i	$r4,20(0x14)
  202a74:	02c9c084 	addi.d	$r4,$r4,624(0x270)
  202a78:	0380ac05 	ori	$r5,$r0,0x2b
  202a7c:	1a0002e6 	pcalau12i	$r6,23(0x17)
  202a80:	02e0a0c6 	addi.d	$r6,$r6,-2008(0x828)
  202a84:	54d80400 	bl	55300(0xd804) # 210288 <_ZN4core9panicking5panic17hd6bc259b6eb19bb3E>
  202a88:	38600400 	amswap.w	$r0,$r1,$r0

0000000000202a8c <_ZN4core9panicking13assert_failed17h77f923b5f390877bE>:
_ZN4core9panicking13assert_failed17h77f923b5f390877bE():
  202a8c:	02ff0063 	addi.d	$r3,$r3,-64(0xfc0)
  202a90:	29c02065 	st.d	$r5,$r3,8(0x8)
  202a94:	29c00064 	st.d	$r4,$r3,0
  202a98:	28c0a0c4 	ld.d	$r4,$r6,40(0x28)
  202a9c:	29c0e064 	st.d	$r4,$r3,56(0x38)
  202aa0:	28c080c4 	ld.d	$r4,$r6,32(0x20)
  202aa4:	29c0c064 	st.d	$r4,$r3,48(0x30)
  202aa8:	28c060c4 	ld.d	$r4,$r6,24(0x18)
  202aac:	29c0a064 	st.d	$r4,$r3,40(0x28)
  202ab0:	28c040c4 	ld.d	$r4,$r6,16(0x10)
  202ab4:	29c08064 	st.d	$r4,$r3,32(0x20)
  202ab8:	28c020c4 	ld.d	$r4,$r6,8(0x8)
  202abc:	29c06064 	st.d	$r4,$r3,24(0x18)
  202ac0:	28c000c4 	ld.d	$r4,$r6,0
  202ac4:	29c04064 	st.d	$r4,$r3,16(0x10)
  202ac8:	02c00064 	addi.d	$r4,$r3,0
  202acc:	02c02065 	addi.d	$r5,$r3,8(0x8)
  202ad0:	02c04066 	addi.d	$r6,$r3,16(0x10)
  202ad4:	54d7f400 	bl	55284(0xd7f4) # 2102c8 <_ZN4core9panicking19assert_failed_inner17h0bbe304d8af4bed6E>
  202ad8:	38600400 	amswap.w	$r0,$r1,$r0

0000000000202adc <_ZN5alloc7raw_vec19RawVec$LT$T$C$A$GT$16reserve_for_push17ha0f03e319b381474E>:
_ZN5alloc7raw_vec19RawVec$LT$T$C$A$GT$16reserve_for_push17ha0f03e319b381474E():
  202adc:	02fec063 	addi.d	$r3,$r3,-80(0xfb0)
  202ae0:	29c12061 	st.d	$r1,$r3,72(0x48)
  202ae4:	29c10076 	st.d	$r22,$r3,64(0x40)
  202ae8:	29c0e077 	st.d	$r23,$r3,56(0x38)
  202aec:	02c004a5 	addi.d	$r5,$r5,1(0x1)
  202af0:	40008ca0 	beqz	$r5,140(0x8c) # 202b7c <_ZN5alloc7raw_vec19RawVec$LT$T$C$A$GT$16reserve_for_push17ha0f03e319b381474E+0xa0>
  202af4:	00150096 	move	$r22,$r4
  202af8:	28c02084 	ld.d	$r4,$r4,8(0x8)
  202afc:	00410486 	slli.d	$r6,$r4,0x1
  202b00:	001298a7 	sltu	$r7,$r5,$r6
  202b04:	00139ca5 	masknez	$r5,$r5,$r7
  202b08:	00131cc6 	maskeqz	$r6,$r6,$r7
  202b0c:	001514c5 	or	$r5,$r6,$r5
  202b10:	03801007 	ori	$r7,$r0,0x4
  202b14:	001294e6 	sltu	$r6,$r7,$r5
  202b18:	001318a5 	maskeqz	$r5,$r5,$r6
  202b1c:	001398e6 	masknez	$r6,$r7,$r6
  202b20:	001518b7 	or	$r23,$r5,$r6
  202b24:	03080005 	lu52i.d	$r5,$r0,512(0x200)
  202b28:	001296e5 	sltu	$r5,$r23,$r5
  202b2c:	00410ae6 	slli.d	$r6,$r23,0x2
  202b30:	004108a5 	slli.d	$r5,$r5,0x2
  202b34:	40001c80 	beqz	$r4,28(0x1c) # 202b50 <_ZN5alloc7raw_vec19RawVec$LT$T$C$A$GT$16reserve_for_push17ha0f03e319b381474E+0x74>
  202b38:	28c002c8 	ld.d	$r8,$r22,0
  202b3c:	00410884 	slli.d	$r4,$r4,0x2
  202b40:	29c0c064 	st.d	$r4,$r3,48(0x30)
  202b44:	29c0a067 	st.d	$r7,$r3,40(0x28)
  202b48:	29c08068 	st.d	$r8,$r3,32(0x20)
  202b4c:	50000800 	b	8(0x8) # 202b54 <_ZN5alloc7raw_vec19RawVec$LT$T$C$A$GT$16reserve_for_push17ha0f03e319b381474E+0x78>
  202b50:	29c0a060 	st.d	$r0,$r3,40(0x28)
  202b54:	02c02064 	addi.d	$r4,$r3,8(0x8)
  202b58:	02c08067 	addi.d	$r7,$r3,32(0x20)
  202b5c:	54005000 	bl	80(0x50) # 202bac <_ZN5alloc7raw_vec11finish_grow17h1528145fc29c2e0eE>
  202b60:	28c04064 	ld.d	$r4,$r3,16(0x10)
  202b64:	28c02065 	ld.d	$r5,$r3,8(0x8)
  202b68:	40001ca0 	beqz	$r5,28(0x1c) # 202b84 <_ZN5alloc7raw_vec19RawVec$LT$T$C$A$GT$16reserve_for_push17ha0f03e319b381474E+0xa8>
  202b6c:	03800405 	ori	$r5,$r0,0x1
  202b70:	032000a5 	lu52i.d	$r5,$r5,-2048(0x800)
  202b74:	58001885 	beq	$r4,$r5,24(0x18) # 202b8c <_ZN5alloc7raw_vec19RawVec$LT$T$C$A$GT$16reserve_for_push17ha0f03e319b381474E+0xb0>
  202b78:	44002880 	bnez	$r4,40(0x28) # 202ba0 <_ZN5alloc7raw_vec19RawVec$LT$T$C$A$GT$16reserve_for_push17ha0f03e319b381474E+0xc4>
  202b7c:	57f4dbff 	bl	-2856(0xffff4d8) # 202054 <_ZN5alloc7raw_vec17capacity_overflow17h68933b2e0f5d11dbE>
  202b80:	38600400 	amswap.w	$r0,$r1,$r0
  202b84:	29c022d7 	st.d	$r23,$r22,8(0x8)
  202b88:	29c002c4 	st.d	$r4,$r22,0
  202b8c:	28c0e077 	ld.d	$r23,$r3,56(0x38)
  202b90:	28c10076 	ld.d	$r22,$r3,64(0x40)
  202b94:	28c12061 	ld.d	$r1,$r3,72(0x48)
  202b98:	02c14063 	addi.d	$r3,$r3,80(0x50)
  202b9c:	4c000020 	jirl	$r0,$r1,0
  202ba0:	28c06064 	ld.d	$r4,$r3,24(0x18)
  202ba4:	57f4abff 	bl	-2904(0xffff4a8) # 20204c <__rust_alloc_error_handler>
  202ba8:	38600400 	amswap.w	$r0,$r1,$r0

0000000000202bac <_ZN5alloc7raw_vec11finish_grow17h1528145fc29c2e0eE>:
_ZN5alloc7raw_vec11finish_grow17h1528145fc29c2e0eE():
  202bac:	02fec063 	addi.d	$r3,$r3,-80(0xfb0)
  202bb0:	29c12061 	st.d	$r1,$r3,72(0x48)
  202bb4:	29c10076 	st.d	$r22,$r3,64(0x40)
  202bb8:	29c0e077 	st.d	$r23,$r3,56(0x38)
  202bbc:	29c0c078 	st.d	$r24,$r3,48(0x30)
  202bc0:	29c0a079 	st.d	$r25,$r3,40(0x28)
  202bc4:	29c0807a 	st.d	$r26,$r3,32(0x20)
  202bc8:	29c0607b 	st.d	$r27,$r3,24(0x18)
  202bcc:	29c0407c 	st.d	$r28,$r3,16(0x10)
  202bd0:	001500d6 	move	$r22,$r6
  202bd4:	00150097 	move	$r23,$r4
  202bd8:	4000b8a0 	beqz	$r5,184(0xb8) # 202c90 <_ZN5alloc7raw_vec11finish_grow17h1528145fc29c2e0eE+0xe4>
  202bdc:	001500b8 	move	$r24,$r5
  202be0:	28c020e4 	ld.d	$r4,$r7,8(0x8)
  202be4:	40007080 	beqz	$r4,112(0x70) # 202c54 <_ZN5alloc7raw_vec11finish_grow17h1528145fc29c2e0eE+0xa8>
  202be8:	28c040fa 	ld.d	$r26,$r7,16(0x10)
  202bec:	40006b40 	beqz	$r26,104(0x68) # 202c54 <_ZN5alloc7raw_vec11finish_grow17h1528145fc29c2e0eE+0xa8>
  202bf0:	28c000fb 	ld.d	$r27,$r7,0
  202bf4:	02c00064 	addi.d	$r4,$r3,0
  202bf8:	001502c5 	move	$r5,$r22
  202bfc:	00150306 	move	$r6,$r24
  202c00:	5424b800 	bl	9400(0x24b8) # 2050b8 <_ZN7axalloc15GlobalAllocator5alloc17hb16ded095c2d389eE>
  202c04:	2a000064 	ld.bu	$r4,$r3,0
  202c08:	4400cc80 	bnez	$r4,204(0xcc) # 202cd4 <_ZN5alloc7raw_vec11finish_grow17h1528145fc29c2e0eE+0x128>
  202c0c:	28c02079 	ld.d	$r25,$r3,8(0x8)
  202c10:	40007320 	beqz	$r25,112(0x70) # 202c80 <_ZN5alloc7raw_vec11finish_grow17h1528145fc29c2e0eE+0xd4>
  202c14:	00150324 	move	$r4,$r25
  202c18:	00150365 	move	$r5,$r27
  202c1c:	00150346 	move	$r6,$r26
  202c20:	550cac00 	bl	68780(0x10cac) # 2138cc <memcpy>
  202c24:	0380101c 	ori	$r28,$r0,0x4
  202c28:	00150004 	move	$r4,$r0
  202c2c:	04000384 	csrxchg	$r4,$r28,0x0
  202c30:	00150364 	move	$r4,$r27
  202c34:	00150345 	move	$r5,$r26
  202c38:	00150306 	move	$r6,$r24
  202c3c:	57fb03ff 	bl	-1280(0xffffb00) # 20273c <_ZN79_$LT$allocator..slab..SlabByteAllocator$u20$as$u20$allocator..ByteAllocator$GT$7dealloc17h4f56f6574734f8a8E>
  202c40:	00150384 	move	$r4,$r28
  202c44:	04000384 	csrxchg	$r4,$r28,0x0
  202c48:	44003f20 	bnez	$r25,60(0x3c) # 202c84 <_ZN5alloc7raw_vec11finish_grow17h1528145fc29c2e0eE+0xd8>
  202c4c:	29c022f8 	st.d	$r24,$r23,8(0x8)
  202c50:	50004400 	b	68(0x44) # 202c94 <_ZN5alloc7raw_vec11finish_grow17h1528145fc29c2e0eE+0xe8>
  202c54:	400076c0 	beqz	$r22,116(0x74) # 202cc8 <_ZN5alloc7raw_vec11finish_grow17h1528145fc29c2e0eE+0x11c>
  202c58:	1a000f44 	pcalau12i	$r4,122(0x7a)
  202c5c:	02d0e084 	addi.d	$r4,$r4,1080(0x438)
  202c60:	28000084 	ld.b	$r4,$r4,0
  202c64:	02c00064 	addi.d	$r4,$r3,0
  202c68:	001502c5 	move	$r5,$r22
  202c6c:	00150306 	move	$r6,$r24
  202c70:	54244800 	bl	9288(0x2448) # 2050b8 <_ZN7axalloc15GlobalAllocator5alloc17hb16ded095c2d389eE>
  202c74:	2a000064 	ld.bu	$r4,$r3,0
  202c78:	44005c80 	bnez	$r4,92(0x5c) # 202cd4 <_ZN5alloc7raw_vec11finish_grow17h1528145fc29c2e0eE+0x128>
  202c7c:	28c02079 	ld.d	$r25,$r3,8(0x8)
  202c80:	43ffcf3f 	beqz	$r25,-52(0x7fffcc) # 202c4c <_ZN5alloc7raw_vec11finish_grow17h1528145fc29c2e0eE+0xa0>
  202c84:	29c022f9 	st.d	$r25,$r23,8(0x8)
  202c88:	00150004 	move	$r4,$r0
  202c8c:	50000c00 	b	12(0xc) # 202c98 <_ZN5alloc7raw_vec11finish_grow17h1528145fc29c2e0eE+0xec>
  202c90:	29c022e0 	st.d	$r0,$r23,8(0x8)
  202c94:	03800404 	ori	$r4,$r0,0x1
  202c98:	29c002e4 	st.d	$r4,$r23,0
  202c9c:	29c042f6 	st.d	$r22,$r23,16(0x10)
  202ca0:	28c0407c 	ld.d	$r28,$r3,16(0x10)
  202ca4:	28c0607b 	ld.d	$r27,$r3,24(0x18)
  202ca8:	28c0807a 	ld.d	$r26,$r3,32(0x20)
  202cac:	28c0a079 	ld.d	$r25,$r3,40(0x28)
  202cb0:	28c0c078 	ld.d	$r24,$r3,48(0x30)
  202cb4:	28c0e077 	ld.d	$r23,$r3,56(0x38)
  202cb8:	28c10076 	ld.d	$r22,$r3,64(0x40)
  202cbc:	28c12061 	ld.d	$r1,$r3,72(0x48)
  202cc0:	02c14063 	addi.d	$r3,$r3,80(0x50)
  202cc4:	4c000020 	jirl	$r0,$r1,0
  202cc8:	00150319 	move	$r25,$r24
  202ccc:	47ffbb3f 	bnez	$r25,-72(0x7fffb8) # 202c84 <_ZN5alloc7raw_vec11finish_grow17h1528145fc29c2e0eE+0xd8>
  202cd0:	53ff7fff 	b	-132(0xfffff7c) # 202c4c <_ZN5alloc7raw_vec11finish_grow17h1528145fc29c2e0eE+0xa0>
  202cd4:	001502c4 	move	$r4,$r22
  202cd8:	57f377ff 	bl	-3212(0xffff374) # 20204c <__rust_alloc_error_handler>
  202cdc:	38600400 	amswap.w	$r0,$r1,$r0

0000000000202ce0 <_ZN4core5slice4sort25insertion_sort_shift_left17hfbdce32ce243f121E>:
_ZN4core5slice4sort25insertion_sort_shift_left17hfbdce32ce243f121E():
  202ce0:	02fffcc7 	addi.d	$r7,$r6,-1(0xfff)
  202ce4:	6c0074e5 	bgeu	$r7,$r5,116(0x74) # 202d58 <_ZN4core5slice4sort25insertion_sort_shift_left17hfbdce32ce243f121E+0x78>
  202ce8:	6c006cc5 	bgeu	$r6,$r5,108(0x6c) # 202d54 <_ZN4core5slice4sort25insertion_sort_shift_left17hfbdce32ce243f121E+0x74>
  202cec:	002c90c7 	alsl.d	$r7,$r6,$r4,0x2
  202cf0:	02fff0e7 	addi.d	$r7,$r7,-4(0xffc)
  202cf4:	03800408 	ori	$r8,$r0,0x1
  202cf8:	50001800 	b	24(0x18) # 202d10 <_ZN4core5slice4sort25insertion_sort_shift_left17hfbdce32ce243f121E+0x30>
  202cfc:	02fff14a 	addi.d	$r10,$r10,-4(0xffc)
  202d00:	29800149 	st.w	$r9,$r10,0
  202d04:	02c004c6 	addi.d	$r6,$r6,1(0x1)
  202d08:	02c010e7 	addi.d	$r7,$r7,4(0x4)
  202d0c:	580048c5 	beq	$r6,$r5,72(0x48) # 202d54 <_ZN4core5slice4sort25insertion_sort_shift_left17hfbdce32ce243f121E+0x74>
  202d10:	004108c9 	slli.d	$r9,$r6,0x2
  202d14:	38282489 	ldx.wu	$r9,$r4,$r9
  202d18:	002c90ca 	alsl.d	$r10,$r6,$r4,0x2
  202d1c:	2abff14b 	ld.wu	$r11,$r10,-4(0xffc)
  202d20:	6fffe52b 	bgeu	$r9,$r11,-28(0x3ffe4) # 202d04 <_ZN4core5slice4sort25insertion_sort_shift_left17hfbdce32ce243f121E+0x24>
  202d24:	2980014b 	st.w	$r11,$r10,0
  202d28:	5bffd4c8 	beq	$r6,$r8,-44(0x3ffd4) # 202cfc <_ZN4core5slice4sort25insertion_sort_shift_left17hfbdce32ce243f121E+0x1c>
  202d2c:	001500ea 	move	$r10,$r7
  202d30:	0015010b 	move	$r11,$r8
  202d34:	2abff14c 	ld.wu	$r12,$r10,-4(0xffc)
  202d38:	6fffc92c 	bgeu	$r9,$r12,-56(0x3ffc8) # 202d00 <_ZN4core5slice4sort25insertion_sort_shift_left17hfbdce32ce243f121E+0x20>
  202d3c:	2980014c 	st.w	$r12,$r10,0
  202d40:	02fff14a 	addi.d	$r10,$r10,-4(0xffc)
  202d44:	02c0056b 	addi.d	$r11,$r11,1(0x1)
  202d48:	5fffeccb 	bne	$r6,$r11,-20(0x3ffec) # 202d34 <_ZN4core5slice4sort25insertion_sort_shift_left17hfbdce32ce243f121E+0x54>
  202d4c:	0015008a 	move	$r10,$r4
  202d50:	53ffb3ff 	b	-80(0xfffffb0) # 202d00 <_ZN4core5slice4sort25insertion_sort_shift_left17hfbdce32ce243f121E+0x20>
  202d54:	4c000020 	jirl	$r0,$r1,0
  202d58:	1a000244 	pcalau12i	$r4,18(0x12)
  202d5c:	02d32084 	addi.d	$r4,$r4,1224(0x4c8)
  202d60:	0380b805 	ori	$r5,$r0,0x2e
  202d64:	1a0002a6 	pcalau12i	$r6,21(0x15)
  202d68:	02cd60c6 	addi.d	$r6,$r6,856(0x358)
  202d6c:	54d51c00 	bl	54556(0xd51c) # 210288 <_ZN4core9panicking5panic17hd6bc259b6eb19bb3E>
  202d70:	38600400 	amswap.w	$r0,$r1,$r0

0000000000202d74 <main>:
main():
  202d74:	02f94063 	addi.d	$r3,$r3,-432(0xe50)
  202d78:	29c6a061 	st.d	$r1,$r3,424(0x1a8)
  202d7c:	29c68076 	st.d	$r22,$r3,416(0x1a0)
  202d80:	29c66077 	st.d	$r23,$r3,408(0x198)
  202d84:	29c64078 	st.d	$r24,$r3,400(0x190)
  202d88:	29c62079 	st.d	$r25,$r3,392(0x188)
  202d8c:	29c6007a 	st.d	$r26,$r3,384(0x180)
  202d90:	29c5e07b 	st.d	$r27,$r3,376(0x178)
  202d94:	29c5c07c 	st.d	$r28,$r3,368(0x170)
  202d98:	29c5a07d 	st.d	$r29,$r3,360(0x168)
  202d9c:	29c5807e 	st.d	$r30,$r3,352(0x160)
  202da0:	29c5607f 	st.d	$r31,$r3,344(0x158)
  202da4:	03800404 	ori	$r4,$r0,0x1
  202da8:	29c0e064 	st.d	$r4,$r3,56(0x38)
  202dac:	29c40064 	st.d	$r4,$r3,256(0x100)
  202db0:	1a0002a4 	pcalau12i	$r4,21(0x15)
  202db4:	02d0e084 	addi.d	$r4,$r4,1080(0x438)
  202db8:	29c3e064 	st.d	$r4,$r3,248(0xf8)
  202dbc:	29c46060 	st.d	$r0,$r3,280(0x118)
  202dc0:	29c44060 	st.d	$r0,$r3,272(0x110)
  202dc4:	1a000284 	pcalau12i	$r4,20(0x14)
  202dc8:	02c42084 	addi.d	$r4,$r4,264(0x108)
  202dcc:	29c02064 	st.d	$r4,$r3,8(0x8)
  202dd0:	29c42064 	st.d	$r4,$r3,264(0x108)
  202dd4:	02c3e064 	addi.d	$r4,$r3,248(0xf8)
  202dd8:	54f0dc00 	bl	61660(0xf0dc) # 211eb4 <_ZN5libax2io5stdio12__print_impl17h8b01988e25d041f4E>
  202ddc:	1a000f44 	pcalau12i	$r4,122(0x7a)
  202de0:	02d0e084 	addi.d	$r4,$r4,1080(0x438)
  202de4:	29c1e064 	st.d	$r4,$r3,120(0x78)
  202de8:	28000084 	ld.b	$r4,$r4,0
  202dec:	14007a04 	lu12i.w	$r4,976(0x3d0)
  202df0:	03a40085 	ori	$r5,$r4,0x900
  202df4:	02c3e064 	addi.d	$r4,$r3,248(0xf8)
  202df8:	03801006 	ori	$r6,$r0,0x4
  202dfc:	29c10066 	st.d	$r6,$r3,64(0x40)
  202e00:	5422b800 	bl	8888(0x22b8) # 2050b8 <_ZN7axalloc15GlobalAllocator5alloc17hb16ded095c2d389eE>
  202e04:	2a03e064 	ld.bu	$r4,$r3,248(0xf8)
  202e08:	4417c080 	bnez	$r4,6080(0x17c0) # 2045c8 <main+0x1854>
  202e0c:	28c40064 	ld.d	$r4,$r3,256(0x100)
  202e10:	4017b880 	beqz	$r4,6072(0x17b8) # 2045c8 <main+0x1854>
  202e14:	29c54060 	st.d	$r0,$r3,336(0x150)
  202e18:	29c50064 	st.d	$r4,$r3,320(0x140)
  202e1c:	14001e84 	lu12i.w	$r4,244(0xf4)
  202e20:	03890096 	ori	$r22,$r4,0x240
  202e24:	29c52076 	st.d	$r22,$r3,328(0x148)
  202e28:	1a0002c4 	pcalau12i	$r4,22(0x16)
  202e2c:	02d1a084 	addi.d	$r4,$r4,1128(0x468)
  202e30:	29c22064 	st.d	$r4,$r3,136(0x88)
  202e34:	02c50064 	addi.d	$r4,$r3,320(0x140)
  202e38:	29c1c064 	st.d	$r4,$r3,112(0x70)
  202e3c:	50002800 	b	40(0x28) # 202e64 <main+0xf0>
  202e40:	004586e4 	srli.d	$r4,$r23,0x21
  202e44:	00410b05 	slli.d	$r5,$r24,0x2
  202e48:	28c5007f 	ld.d	$r31,$r3,320(0x140)
  202e4c:	381817e4 	stx.w	$r4,$r31,$r5
  202e50:	02c0071e 	addi.d	$r30,$r24,1(0x1)
  202e54:	29c5407e 	st.d	$r30,$r3,336(0x150)
  202e58:	02fffed6 	addi.d	$r22,$r22,-1(0xfff)
  202e5c:	29c2a07e 	st.d	$r30,$r3,168(0xa8)
  202e60:	40004ec0 	beqz	$r22,76(0x4c) # 202eac <main+0x138>
  202e64:	14992ae4 	lu12i.w	$r4,313687(0x4c957)
  202e68:	03bcb484 	ori	$r4,$r4,0xf2d
  202e6c:	163e85a4 	lu32i.d	$r4,128045(0x1f42d)
  202e70:	03161484 	lu52i.d	$r4,$r4,1413(0x585)
  202e74:	28c22066 	ld.d	$r6,$r3,136(0x88)
  202e78:	28c000c5 	ld.d	$r5,$r6,0
  202e7c:	001d90a4 	mul.d	$r4,$r5,$r4
  202e80:	02c00497 	addi.d	$r23,$r4,1(0x1)
  202e84:	38720000 	dbar	0x0
  202e88:	3869dcc0 	amswap_db.d	$r0,$r23,$r6
  202e8c:	28c54078 	ld.d	$r24,$r3,336(0x150)
  202e90:	28c52064 	ld.d	$r4,$r3,328(0x148)
  202e94:	5fffaf04 	bne	$r24,$r4,-84(0x3ffac) # 202e40 <main+0xcc>
  202e98:	28c1c064 	ld.d	$r4,$r3,112(0x70)
  202e9c:	00150305 	move	$r5,$r24
  202ea0:	57fc3fff 	bl	-964(0xffffc3c) # 202adc <_ZN5alloc7raw_vec19RawVec$LT$T$C$A$GT$16reserve_for_push17ha0f03e319b381474E>
  202ea4:	28c54078 	ld.d	$r24,$r3,336(0x150)
  202ea8:	53ff9bff 	b	-104(0xfffff98) # 202e40 <main+0xcc>
  202eac:	03805404 	ori	$r4,$r0,0x15
  202eb0:	6c0023c4 	bgeu	$r30,$r4,32(0x20) # 202ed0 <main+0x15c>
  202eb4:	03800404 	ori	$r4,$r0,0x1
  202eb8:	6c05849e 	bgeu	$r4,$r30,1412(0x584) # 20343c <main+0x6c8>
  202ebc:	03800406 	ori	$r6,$r0,0x1
  202ec0:	001503e4 	move	$r4,$r31
  202ec4:	001503c5 	move	$r5,$r30
  202ec8:	57fe1bff 	bl	-488(0xffffe18) # 202ce0 <_ZN4core5slice4sort25insertion_sort_shift_left17hfbdce32ce243f121E>
  202ecc:	50057000 	b	1392(0x570) # 20343c <main+0x6c8>
  202ed0:	28c1e064 	ld.d	$r4,$r3,120(0x78)
  202ed4:	28000084 	ld.b	$r4,$r4,0
  202ed8:	02bff004 	addi.w	$r4,$r0,-4(0xffc)
  202edc:	29c24064 	st.d	$r4,$r3,144(0x90)
  202ee0:	031ffc84 	lu52i.d	$r4,$r4,2047(0x7ff)
  202ee4:	004107c5 	slli.d	$r5,$r30,0x1
  202ee8:	001490b6 	and	$r22,$r5,$r4
  202eec:	02c3e064 	addi.d	$r4,$r3,248(0xf8)
  202ef0:	03801006 	ori	$r6,$r0,0x4
  202ef4:	001502c5 	move	$r5,$r22
  202ef8:	29c0c066 	st.d	$r6,$r3,48(0x30)
  202efc:	5421bc00 	bl	8636(0x21bc) # 2050b8 <_ZN7axalloc15GlobalAllocator5alloc17hb16ded095c2d389eE>
  202f00:	2a03e064 	ld.bu	$r4,$r3,248(0xf8)
  202f04:	4416d480 	bnez	$r4,5844(0x16d4) # 2045d8 <main+0x1864>
  202f08:	28c4007d 	ld.d	$r29,$r3,256(0x100)
  202f0c:	4016dba0 	beqz	$r29,5848(0x16d8) # 2045e4 <main+0x1870>
  202f10:	28c1e064 	ld.d	$r4,$r3,120(0x78)
  202f14:	28000084 	ld.b	$r4,$r4,0
  202f18:	02c3e064 	addi.d	$r4,$r3,248(0xf8)
  202f1c:	03840005 	ori	$r5,$r0,0x100
  202f20:	03802006 	ori	$r6,$r0,0x8
  202f24:	54219400 	bl	8596(0x2194) # 2050b8 <_ZN7axalloc15GlobalAllocator5alloc17hb16ded095c2d389eE>
  202f28:	2a03e064 	ld.bu	$r4,$r3,248(0xf8)
  202f2c:	4416d480 	bnez	$r4,5844(0x16d4) # 204600 <main+0x188c>
  202f30:	29c00076 	st.d	$r22,$r3,0
  202f34:	29c06078 	st.d	$r24,$r3,24(0x18)
  202f38:	28c4007b 	ld.d	$r27,$r3,256(0x100)
  202f3c:	4016d360 	beqz	$r27,5840(0x16d0) # 20460c <main+0x1898>
  202f40:	03804004 	ori	$r4,$r0,0x10
  202f44:	29c16064 	st.d	$r4,$r3,88(0x58)
  202f48:	02fff3e4 	addi.d	$r4,$r31,-4(0xffc)
  202f4c:	29c1a064 	st.d	$r4,$r3,104(0x68)
  202f50:	02c023e4 	addi.d	$r4,$r31,8(0x8)
  202f54:	29c04064 	st.d	$r4,$r3,16(0x10)
  202f58:	03800804 	ori	$r4,$r0,0x2
  202f5c:	29c14064 	st.d	$r4,$r3,80(0x50)
  202f60:	03802804 	ori	$r4,$r0,0xa
  202f64:	29c12064 	st.d	$r4,$r3,72(0x48)
  202f68:	02c3e064 	addi.d	$r4,$r3,248(0xf8)
  202f6c:	29c0a064 	st.d	$r4,$r3,40(0x28)
  202f70:	03802004 	ori	$r4,$r0,0x8
  202f74:	29c08064 	st.d	$r4,$r3,32(0x20)
  202f78:	00150005 	move	$r5,$r0
  202f7c:	0015001c 	move	$r28,$r0
  202f80:	50001000 	b	16(0x10) # 202f90 <main+0x21c>
  202f84:	28c2007c 	ld.d	$r28,$r3,128(0x80)
  202f88:	28c18065 	ld.d	$r5,$r3,96(0x60)
  202f8c:	6c0464be 	bgeu	$r5,$r30,1124(0x464) # 2033f0 <main+0x67c>
  202f90:	001503e4 	move	$r4,$r31
  202f94:	001500bf 	move	$r31,$r5
  202f98:	29c28064 	st.d	$r4,$r3,160(0xa0)
  202f9c:	002c90a4 	alsl.d	$r4,$r5,$r4,0x2
  202fa0:	001197c6 	sub.d	$r6,$r30,$r5
  202fa4:	28c14065 	ld.d	$r5,$r3,80(0x50)
  202fa8:	6c006cc5 	bgeu	$r6,$r5,108(0x6c) # 203014 <main+0x2a0>
  202fac:	001500c5 	move	$r5,$r6
  202fb0:	0010fcb8 	add.d	$r24,$r5,$r31
  202fb4:	6814ff1f 	bltu	$r24,$r31,5372(0x14fc) # 2044b0 <main+0x173c>
  202fb8:	6814fbd8 	bltu	$r30,$r24,5368(0x14f8) # 2044b0 <main+0x173c>
  202fbc:	6c00a71e 	bgeu	$r24,$r30,164(0xa4) # 203060 <main+0x2ec>
  202fc0:	28c12066 	ld.d	$r6,$r3,72(0x48)
  202fc4:	6c009ca6 	bgeu	$r5,$r6,156(0x9c) # 203060 <main+0x2ec>
  202fc8:	02c02be6 	addi.d	$r6,$r31,10(0xa)
  202fcc:	0012f8c7 	sltu	$r7,$r6,$r30
  202fd0:	00139fc8 	masknez	$r8,$r30,$r7
  202fd4:	00131cc6 	maskeqz	$r6,$r6,$r7
  202fd8:	001520d8 	or	$r24,$r6,$r8
  202fdc:	68151b1f 	bltu	$r24,$r31,5400(0x1518) # 2044f4 <main+0x1780>
  202fe0:	28c0e067 	ld.d	$r7,$r3,56(0x38)
  202fe4:	001294e6 	sltu	$r6,$r7,$r5
  202fe8:	001398e7 	masknez	$r7,$r7,$r6
  202fec:	001318a5 	maskeqz	$r5,$r5,$r6
  202ff0:	00151ca6 	or	$r6,$r5,$r7
  202ff4:	0011ff16 	sub.d	$r22,$r24,$r31
  202ff8:	001502c5 	move	$r5,$r22
  202ffc:	57fce7ff 	bl	-796(0xffffce4) # 202ce0 <_ZN4core5slice4sort25insertion_sort_shift_left17hfbdce32ce243f121E>
  203000:	00411397 	slli.d	$r23,$r28,0x4
  203004:	28c16064 	ld.d	$r4,$r3,88(0x58)
  203008:	29c18078 	st.d	$r24,$r3,96(0x60)
  20300c:	58006b84 	beq	$r28,$r4,104(0x68) # 203074 <main+0x300>
  203010:	5000d000 	b	208(0xd0) # 2030e0 <main+0x36c>
  203014:	2a801087 	ld.wu	$r7,$r4,4(0x4)
  203018:	2a800085 	ld.wu	$r5,$r4,0
  20301c:	6c0338e5 	bgeu	$r7,$r5,824(0x338) # 203354 <main+0x5e0>
  203020:	03800805 	ori	$r5,$r0,0x2
  203024:	580374c5 	beq	$r6,$r5,884(0x374) # 203398 <main+0x624>
  203028:	28c04065 	ld.d	$r5,$r3,16(0x10)
  20302c:	002c97e5 	alsl.d	$r5,$r31,$r5,0x2
  203030:	28c06068 	ld.d	$r8,$r3,24(0x18)
  203034:	0011fd09 	sub.d	$r9,$r8,$r31
  203038:	03800408 	ori	$r8,$r0,0x1
  20303c:	2a8000aa 	ld.wu	$r10,$r5,0
  203040:	00df00e7 	bstrpick.d	$r7,$r7,0x1f,0x0
  203044:	6c035147 	bgeu	$r10,$r7,848(0x350) # 203394 <main+0x620>
  203048:	02c010a5 	addi.d	$r5,$r5,4(0x4)
  20304c:	02c00508 	addi.d	$r8,$r8,1(0x1)
  203050:	00150147 	move	$r7,$r10
  203054:	5fffe928 	bne	$r9,$r8,-24(0x3ffe8) # 20303c <main+0x2c8>
  203058:	001500c5 	move	$r5,$r6
  20305c:	50033c00 	b	828(0x33c) # 203398 <main+0x624>
  203060:	0011ff16 	sub.d	$r22,$r24,$r31
  203064:	00411397 	slli.d	$r23,$r28,0x4
  203068:	28c16064 	ld.d	$r4,$r3,88(0x58)
  20306c:	29c18078 	st.d	$r24,$r3,96(0x60)
  203070:	5c007384 	bne	$r28,$r4,112(0x70) # 2030e0 <main+0x36c>
  203074:	28c1e064 	ld.d	$r4,$r3,120(0x78)
  203078:	28000084 	ld.b	$r4,$r4,0
  20307c:	0041179a 	slli.d	$r26,$r28,0x5
  203080:	28c0a064 	ld.d	$r4,$r3,40(0x28)
  203084:	00150345 	move	$r5,$r26
  203088:	28c08066 	ld.d	$r6,$r3,32(0x20)
  20308c:	54202c00 	bl	8236(0x202c) # 2050b8 <_ZN7axalloc15GlobalAllocator5alloc17hb16ded095c2d389eE>
  203090:	2a03e064 	ld.bu	$r4,$r3,248(0xf8)
  203094:	44146c80 	bnez	$r4,5228(0x146c) # 204500 <main+0x178c>
  203098:	28c4007a 	ld.d	$r26,$r3,256(0x100)
  20309c:	40147340 	beqz	$r26,5232(0x1470) # 20450c <main+0x1798>
  2030a0:	00410784 	slli.d	$r4,$r28,0x1
  2030a4:	29c16064 	st.d	$r4,$r3,88(0x58)
  2030a8:	00150344 	move	$r4,$r26
  2030ac:	00150365 	move	$r5,$r27
  2030b0:	001502e6 	move	$r6,$r23
  2030b4:	55081800 	bl	67608(0x10818) # 2138cc <memcpy>
  2030b8:	00150004 	move	$r4,$r0
  2030bc:	28c0c078 	ld.d	$r24,$r3,48(0x30)
  2030c0:	04000304 	csrxchg	$r4,$r24,0x0
  2030c4:	03802006 	ori	$r6,$r0,0x8
  2030c8:	00150364 	move	$r4,$r27
  2030cc:	001502e5 	move	$r5,$r23
  2030d0:	57f66fff 	bl	-2452(0xffff66c) # 20273c <_ZN79_$LT$allocator..slab..SlabByteAllocator$u20$as$u20$allocator..ByteAllocator$GT$7dealloc17h4f56f6574734f8a8E>
  2030d4:	00150304 	move	$r4,$r24
  2030d8:	04000304 	csrxchg	$r4,$r24,0x0
  2030dc:	0015035b 	move	$r27,$r26
  2030e0:	381c5f76 	stx.d	$r22,$r27,$r23
  2030e4:	002def84 	alsl.d	$r4,$r28,$r27,0x4
  2030e8:	29c0209f 	st.d	$r31,$r4,8(0x8)
  2030ec:	02c00799 	addi.d	$r25,$r28,1(0x1)
  2030f0:	03800804 	ori	$r4,$r0,0x2
  2030f4:	0015033c 	move	$r28,$r25
  2030f8:	28c2807f 	ld.d	$r31,$r3,160(0xa0)
  2030fc:	29c20064 	st.d	$r4,$r3,128(0x80)
  203100:	29c2607b 	st.d	$r27,$r3,152(0x98)
  203104:	6c006724 	bgeu	$r25,$r4,100(0x64) # 203168 <main+0x3f4>
  203108:	53fe83ff 	b	-384(0xffffe80) # 202f88 <main+0x214>
  20310c:	00150397 	move	$r23,$r28
  203110:	001503a5 	move	$r5,$r29
  203114:	28c2a07e 	ld.d	$r30,$r3,168(0xa8)
  203118:	28c2807f 	ld.d	$r31,$r3,160(0xa0)
  20311c:	02c0231a 	addi.d	$r26,$r24,8(0x8)
  203120:	00119486 	sub.d	$r6,$r4,$r5
  203124:	001502e4 	move	$r4,$r23
  203128:	5507a400 	bl	67492(0x107a4) # 2138cc <memcpy>
  20312c:	28c2c064 	ld.d	$r4,$r3,176(0xb0)
  203130:	0010ec84 	add.d	$r4,$r4,$r27
  203134:	29c00304 	st.d	$r4,$r24,0
  203138:	29c00356 	st.d	$r22,$r26,0
  20313c:	28c30064 	ld.d	$r4,$r3,192(0xc0)
  203140:	00140084 	nor	$r4,$r4,$r0
  203144:	00109324 	add.d	$r4,$r25,$r4
  203148:	00411086 	slli.d	$r6,$r4,0x4
  20314c:	28c2e064 	ld.d	$r4,$r3,184(0xb8)
  203150:	02c04085 	addi.d	$r5,$r4,16(0x10)
  203154:	5503e000 	bl	66528(0x103e0) # 213534 <memmove>
  203158:	0380041c 	ori	$r28,$r0,0x1
  20315c:	28c2607b 	ld.d	$r27,$r3,152(0x98)
  203160:	28c32079 	ld.d	$r25,$r3,200(0xc8)
  203164:	6ffe2799 	bgeu	$r28,$r25,-476(0x3fe24) # 202f88 <main+0x214>
  203168:	02ffff29 	addi.d	$r9,$r25,-1(0xfff)
  20316c:	00411124 	slli.d	$r4,$r9,0x4
  203170:	380c1364 	ldx.d	$r4,$r27,$r4
  203174:	002ded25 	alsl.d	$r5,$r9,$r27,0x4
  203178:	28c020a5 	ld.d	$r5,$r5,8(0x8)
  20317c:	00109485 	add.d	$r5,$r4,$r5
  203180:	580044be 	beq	$r5,$r30,68(0x44) # 2031c4 <main+0x450>
  203184:	002def26 	alsl.d	$r6,$r25,$r27,0x4
  203188:	28ff80c7 	ld.d	$r7,$r6,-32(0xfe0)
  20318c:	6c003887 	bgeu	$r4,$r7,56(0x38) # 2031c4 <main+0x450>
  203190:	28c20065 	ld.d	$r5,$r3,128(0x80)
  203194:	6ffdf0b9 	bgeu	$r5,$r25,-528(0x3fdf0) # 202f84 <main+0x210>
  203198:	02fff72a 	addi.d	$r10,$r25,-3(0xffd)
  20319c:	00411145 	slli.d	$r5,$r10,0x4
  2031a0:	380c1765 	ldx.d	$r5,$r27,$r5
  2031a4:	001090e8 	add.d	$r8,$r7,$r4
  2031a8:	6c003105 	bgeu	$r8,$r5,48(0x30) # 2031d8 <main+0x464>
  2031ac:	03800c1c 	ori	$r28,$r0,0x3
  2031b0:	6ffddb99 	bgeu	$r28,$r25,-552(0x3fdd8) # 202f88 <main+0x214>
  2031b4:	00109ca7 	add.d	$r7,$r5,$r7
  2031b8:	28ff00c6 	ld.d	$r6,$r6,-64(0xfc0)
  2031bc:	6c001ce6 	bgeu	$r7,$r6,28(0x1c) # 2031d8 <main+0x464>
  2031c0:	50022800 	b	552(0x228) # 2033e8 <main+0x674>
  2031c4:	03800c05 	ori	$r5,$r0,0x3
  2031c8:	68001725 	bltu	$r25,$r5,20(0x14) # 2031dc <main+0x468>
  2031cc:	02fff72a 	addi.d	$r10,$r25,-3(0xffd)
  2031d0:	00411145 	slli.d	$r5,$r10,0x4
  2031d4:	380c1765 	ldx.d	$r5,$r27,$r5
  2031d8:	680008a4 	bltu	$r5,$r4,8(0x8) # 2031e0 <main+0x46c>
  2031dc:	02fffb2a 	addi.d	$r10,$r25,-2(0xffe)
  2031e0:	6c117159 	bgeu	$r10,$r25,4464(0x1170) # 204350 <main+0x15dc>
  2031e4:	02c00544 	addi.d	$r4,$r10,1(0x1)
  2031e8:	6c11a099 	bgeu	$r4,$r25,4512(0x11a0) # 204388 <main+0x1614>
  2031ec:	002ded46 	alsl.d	$r6,$r10,$r27,0x4
  2031f0:	28c020d6 	ld.d	$r22,$r6,8(0x8)
  2031f4:	00411085 	slli.d	$r5,$r4,0x4
  2031f8:	380c1765 	ldx.d	$r5,$r27,$r5
  2031fc:	002dec98 	alsl.d	$r24,$r4,$r27,0x4
  203200:	28c02304 	ld.d	$r4,$r24,8(0x8)
  203204:	0010949a 	add.d	$r26,$r4,$r5
  203208:	6811bb56 	bltu	$r26,$r22,4536(0x11b8) # 2043c0 <main+0x164c>
  20320c:	6811cfda 	bltu	$r30,$r26,4556(0x11cc) # 2043d8 <main+0x1664>
  203210:	29c2c065 	st.d	$r5,$r3,176(0xb0)
  203214:	29c2e066 	st.d	$r6,$r3,184(0xb8)
  203218:	29c32069 	st.d	$r9,$r3,200(0xc8)
  20321c:	29c3006a 	st.d	$r10,$r3,192(0xc0)
  203220:	00411144 	slli.d	$r4,$r10,0x4
  203224:	380c137b 	ldx.d	$r27,$r27,$r4
  203228:	0011db5e 	sub.d	$r30,$r26,$r22
  20322c:	002cfedc 	alsl.d	$r28,$r22,$r31,0x2
  203230:	002cf377 	alsl.d	$r23,$r27,$r28,0x2
  203234:	0011efdf 	sub.d	$r31,$r30,$r27
  203238:	6c0093fb 	bgeu	$r31,$r27,144(0x90) # 2032c8 <main+0x554>
  20323c:	00410be6 	slli.d	$r6,$r31,0x2
  203240:	001503a4 	move	$r4,$r29
  203244:	001502e5 	move	$r5,$r23
  203248:	55068400 	bl	67204(0x10684) # 2138cc <memcpy>
  20324c:	002cf7e4 	alsl.d	$r4,$r31,$r29,0x2
  203250:	03800405 	ori	$r5,$r0,0x1
  203254:	63febf65 	blt	$r27,$r5,-324(0x3febc) # 203110 <main+0x39c>
  203258:	28c2a07e 	ld.d	$r30,$r3,168(0xa8)
  20325c:	28c24069 	ld.d	$r9,$r3,144(0x90)
  203260:	6000d7e5 	blt	$r31,$r5,212(0xd4) # 203334 <main+0x5c0>
  203264:	28c1a065 	ld.d	$r5,$r3,104(0x68)
  203268:	002c9746 	alsl.d	$r6,$r26,$r5,0x2
  20326c:	28c2807f 	ld.d	$r31,$r3,160(0xa0)
  203270:	2abff2e5 	ld.wu	$r5,$r23,-4(0xffc)
  203274:	2abff087 	ld.wu	$r7,$r4,-4(0xffc)
  203278:	001294e5 	sltu	$r5,$r7,$r5
  20327c:	03c004a7 	xori	$r7,$r5,0x1
  203280:	00139c08 	masknez	$r8,$r0,$r7
  203284:	00131d27 	maskeqz	$r7,$r9,$r7
  203288:	001520e7 	or	$r7,$r7,$r8
  20328c:	00109c84 	add.d	$r4,$r4,$r7
  203290:	00139407 	masknez	$r7,$r0,$r5
  203294:	00131528 	maskeqz	$r8,$r9,$r5
  203298:	00151d07 	or	$r7,$r8,$r7
  20329c:	00109ef7 	add.d	$r23,$r23,$r7
  2032a0:	001316e7 	maskeqz	$r7,$r23,$r5
  2032a4:	00139485 	masknez	$r5,$r4,$r5
  2032a8:	001514e5 	or	$r5,$r7,$r5
  2032ac:	288000a5 	ld.w	$r5,$r5,0
  2032b0:	298000c5 	st.w	$r5,$r6,0
  2032b4:	6c008b97 	bgeu	$r28,$r23,136(0x88) # 20333c <main+0x5c8>
  2032b8:	02fff0c6 	addi.d	$r6,$r6,-4(0xffc)
  2032bc:	001503a5 	move	$r5,$r29
  2032c0:	6bffb3a4 	bltu	$r29,$r4,-80(0x3ffb0) # 203270 <main+0x4fc>
  2032c4:	53fe5bff 	b	-424(0xffffe58) # 20311c <main+0x3a8>
  2032c8:	00410b66 	slli.d	$r6,$r27,0x2
  2032cc:	001503a4 	move	$r4,$r29
  2032d0:	00150385 	move	$r5,$r28
  2032d4:	5505f800 	bl	67064(0x105f8) # 2138cc <memcpy>
  2032d8:	002cf764 	alsl.d	$r4,$r27,$r29,0x2
  2032dc:	03800405 	ori	$r5,$r0,0x1
  2032e0:	63fe2f65 	blt	$r27,$r5,-468(0x3fe2c) # 20310c <main+0x398>
  2032e4:	28c2807f 	ld.d	$r31,$r3,160(0xa0)
  2032e8:	64005f7e 	bge	$r27,$r30,92(0x5c) # 203344 <main+0x5d0>
  2032ec:	002cff46 	alsl.d	$r6,$r26,$r31,0x2
  2032f0:	001503a5 	move	$r5,$r29
  2032f4:	28c2a07e 	ld.d	$r30,$r3,168(0xa8)
  2032f8:	2a8000a8 	ld.wu	$r8,$r5,0
  2032fc:	2a8002e9 	ld.wu	$r9,$r23,0
  203300:	0012a127 	sltu	$r7,$r9,$r8
  203304:	00139d08 	masknez	$r8,$r8,$r7
  203308:	00131d29 	maskeqz	$r9,$r9,$r7
  20330c:	00152128 	or	$r8,$r9,$r8
  203310:	29800388 	st.w	$r8,$r28,0
  203314:	03c004e8 	xori	$r8,$r7,0x1
  203318:	002c9505 	alsl.d	$r5,$r8,$r5,0x2
  20331c:	02c0139c 	addi.d	$r28,$r28,4(0x4)
  203320:	6c000ca4 	bgeu	$r5,$r4,12(0xc) # 20332c <main+0x5b8>
  203324:	002cdcf7 	alsl.d	$r23,$r7,$r23,0x2
  203328:	6bffd2e6 	bltu	$r23,$r6,-48(0x3ffd0) # 2032f8 <main+0x584>
  20332c:	00150397 	move	$r23,$r28
  203330:	53fdefff 	b	-532(0xffffdec) # 20311c <main+0x3a8>
  203334:	001503a5 	move	$r5,$r29
  203338:	53fde3ff 	b	-544(0xffffde0) # 203118 <main+0x3a4>
  20333c:	001503a5 	move	$r5,$r29
  203340:	53fddfff 	b	-548(0xffffddc) # 20311c <main+0x3a8>
  203344:	00150397 	move	$r23,$r28
  203348:	001503a5 	move	$r5,$r29
  20334c:	28c2a07e 	ld.d	$r30,$r3,168(0xa8)
  203350:	53fdcfff 	b	-564(0xffffdcc) # 20311c <main+0x3a8>
  203354:	28c14068 	ld.d	$r8,$r3,80(0x50)
  203358:	00150105 	move	$r5,$r8
  20335c:	5bfc54c8 	beq	$r6,$r8,-940(0x3fc54) # 202fb0 <main+0x23c>
  203360:	28c04065 	ld.d	$r5,$r3,16(0x10)
  203364:	002c97e5 	alsl.d	$r5,$r31,$r5,0x2
  203368:	28c06068 	ld.d	$r8,$r3,24(0x18)
  20336c:	0011fd08 	sub.d	$r8,$r8,$r31
  203370:	28c0e069 	ld.d	$r9,$r3,56(0x38)
  203374:	2a8000aa 	ld.wu	$r10,$r5,0
  203378:	00df00e7 	bstrpick.d	$r7,$r7,0x1f,0x0
  20337c:	68006547 	bltu	$r10,$r7,100(0x64) # 2033e0 <main+0x66c>
  203380:	02c00529 	addi.d	$r9,$r9,1(0x1)
  203384:	02c010a5 	addi.d	$r5,$r5,4(0x4)
  203388:	00150147 	move	$r7,$r10
  20338c:	5fffe909 	bne	$r8,$r9,-24(0x3ffe8) # 203374 <main+0x600>
  203390:	53fc1fff 	b	-996(0xffffc1c) # 202fac <main+0x238>
  203394:	02c00505 	addi.d	$r5,$r8,1(0x1)
  203398:	0010fcb8 	add.d	$r24,$r5,$r31
  20339c:	6811d305 	bltu	$r24,$r5,4560(0x11d0) # 20456c <main+0x17f8>
  2033a0:	6811e7d8 	bltu	$r30,$r24,4580(0x11e4) # 204584 <main+0x1810>
  2033a4:	03800806 	ori	$r6,$r0,0x2
  2033a8:	6bfc0ca6 	bltu	$r5,$r6,-1012(0x3fc0c) # 202fb4 <main+0x240>
  2033ac:	004504a6 	srli.d	$r6,$r5,0x1
  2033b0:	28c1a067 	ld.d	$r7,$r3,104(0x68)
  2033b4:	002c9f07 	alsl.d	$r7,$r24,$r7,0x2
  2033b8:	00150088 	move	$r8,$r4
  2033bc:	28800109 	ld.w	$r9,$r8,0
  2033c0:	288000ea 	ld.w	$r10,$r7,0
  2033c4:	2980010a 	st.w	$r10,$r8,0
  2033c8:	298000e9 	st.w	$r9,$r7,0
  2033cc:	02fff0e7 	addi.d	$r7,$r7,-4(0xffc)
  2033d0:	02c01108 	addi.d	$r8,$r8,4(0x4)
  2033d4:	02fffcc6 	addi.d	$r6,$r6,-1(0xfff)
  2033d8:	47ffe4df 	bnez	$r6,-28(0x7fffe4) # 2033bc <main+0x648>
  2033dc:	53fbdbff 	b	-1064(0xffffbd8) # 202fb4 <main+0x240>
  2033e0:	02c00525 	addi.d	$r5,$r9,1(0x1)
  2033e4:	53fbcfff 	b	-1076(0xffffbcc) # 202fb0 <main+0x23c>
  2033e8:	0015033c 	move	$r28,$r25
  2033ec:	53fb9fff 	b	-1124(0xffffb9c) # 202f88 <main+0x214>
  2033f0:	00150004 	move	$r4,$r0
  2033f4:	28c0c076 	ld.d	$r22,$r3,48(0x30)
  2033f8:	040002c4 	csrxchg	$r4,$r22,0x0
  2033fc:	28c16064 	ld.d	$r4,$r3,88(0x58)
  203400:	00411085 	slli.d	$r5,$r4,0x4
  203404:	03802006 	ori	$r6,$r0,0x8
  203408:	00150364 	move	$r4,$r27
  20340c:	57f333ff 	bl	-3280(0xffff330) # 20273c <_ZN79_$LT$allocator..slab..SlabByteAllocator$u20$as$u20$allocator..ByteAllocator$GT$7dealloc17h4f56f6574734f8a8E>
  203410:	001502c4 	move	$r4,$r22
  203414:	040002c4 	csrxchg	$r4,$r22,0x0
  203418:	00150004 	move	$r4,$r0
  20341c:	040002c4 	csrxchg	$r4,$r22,0x0
  203420:	001503a4 	move	$r4,$r29
  203424:	28c00065 	ld.d	$r5,$r3,0
  203428:	001502c6 	move	$r6,$r22
  20342c:	57f313ff 	bl	-3312(0xffff310) # 20273c <_ZN79_$LT$allocator..slab..SlabByteAllocator$u20$as$u20$allocator..ByteAllocator$GT$7dealloc17h4f56f6574734f8a8E>
  203430:	001502c4 	move	$r4,$r22
  203434:	040002c4 	csrxchg	$r4,$r22,0x0
  203438:	28c5407e 	ld.d	$r30,$r3,336(0x150)
  20343c:	0380041a 	ori	$r26,$r0,0x1
  203440:	0012fb44 	sltu	$r4,$r26,$r30
  203444:	00139345 	masknez	$r5,$r26,$r4
  203448:	001313c4 	maskeqz	$r4,$r30,$r4
  20344c:	00151484 	or	$r4,$r4,$r5
  203450:	02c013e5 	addi.d	$r5,$r31,4(0x4)
  203454:	00150006 	move	$r6,$r0
  203458:	14001e87 	lu12i.w	$r7,244(0xf4)
  20345c:	0388fce7 	ori	$r7,$r7,0x23f
  203460:	580040c7 	beq	$r6,$r7,64(0x40) # 2034a0 <main+0x72c>
  203464:	580eafc6 	beq	$r30,$r6,3756(0xeac) # 204310 <main+0x159c>
  203468:	02c004c6 	addi.d	$r6,$r6,1(0x1)
  20346c:	580eb486 	beq	$r4,$r6,3764(0xeb4) # 204320 <main+0x15ac>
  203470:	02c010a7 	addi.d	$r7,$r5,4(0x4)
  203474:	2abff0a8 	ld.wu	$r8,$r5,-4(0xffc)
  203478:	2a8000a9 	ld.wu	$r9,$r5,0
  20347c:	001500e5 	move	$r5,$r7
  203480:	6fffd928 	bgeu	$r9,$r8,-40(0x3ffd8) # 203458 <main+0x6e4>
  203484:	1a000224 	pcalau12i	$r4,17(0x11)
  203488:	02d47484 	addi.d	$r4,$r4,1309(0x51d)
  20348c:	03808805 	ori	$r5,$r0,0x22
  203490:	1a000286 	pcalau12i	$r6,20(0x14)
  203494:	02cec0c6 	addi.d	$r6,$r6,944(0x3b0)
  203498:	54cdf000 	bl	52720(0xcdf0) # 210288 <_ZN4core9panicking5panic17hd6bc259b6eb19bb3E>
  20349c:	38600400 	amswap.w	$r0,$r1,$r0
  2034a0:	29c4007a 	st.d	$r26,$r3,256(0x100)
  2034a4:	1a000284 	pcalau12i	$r4,20(0x14)
  2034a8:	02cdc084 	addi.d	$r4,$r4,880(0x370)
  2034ac:	29c3e064 	st.d	$r4,$r3,248(0xf8)
  2034b0:	29c46060 	st.d	$r0,$r3,280(0x118)
  2034b4:	29c44060 	st.d	$r0,$r3,272(0x110)
  2034b8:	28c02064 	ld.d	$r4,$r3,8(0x8)
  2034bc:	29c42064 	st.d	$r4,$r3,264(0x108)
  2034c0:	02c3e064 	addi.d	$r4,$r3,248(0xf8)
  2034c4:	54e9f000 	bl	59888(0xe9f0) # 211eb4 <_ZN5libax2io5stdio12__print_impl17h8b01988e25d041f4E>
  2034c8:	28c52065 	ld.d	$r5,$r3,328(0x148)
  2034cc:	400028a0 	beqz	$r5,40(0x28) # 2034f4 <main+0x780>
  2034d0:	28c50064 	ld.d	$r4,$r3,320(0x140)
  2034d4:	00150006 	move	$r6,$r0
  2034d8:	28c10076 	ld.d	$r22,$r3,64(0x40)
  2034dc:	040002c6 	csrxchg	$r6,$r22,0x0
  2034e0:	004108a5 	slli.d	$r5,$r5,0x2
  2034e4:	001502c6 	move	$r6,$r22
  2034e8:	57f257ff 	bl	-3500(0xffff254) # 20273c <_ZN79_$LT$allocator..slab..SlabByteAllocator$u20$as$u20$allocator..ByteAllocator$GT$7dealloc17h4f56f6574734f8a8E>
  2034ec:	001502c4 	move	$r4,$r22
  2034f0:	040002c4 	csrxchg	$r4,$r22,0x0
  2034f4:	29c38060 	st.d	$r0,$r3,224(0xe0)
  2034f8:	29c34060 	st.d	$r0,$r3,208(0xd0)
  2034fc:	1a000184 	pcalau12i	$r4,12(0xc)
  203500:	02c5f084 	addi.d	$r4,$r4,380(0x17c)
  203504:	29c28064 	st.d	$r4,$r3,160(0xa0)
  203508:	02c3b064 	addi.d	$r4,$r3,236(0xec)
  20350c:	29c26064 	st.d	$r4,$r3,152(0x98)
  203510:	02c3e078 	addi.d	$r24,$r3,248(0xf8)
  203514:	03802017 	ori	$r23,$r0,0x8
  203518:	02c4a064 	addi.d	$r4,$r3,296(0x128)
  20351c:	29c24064 	st.d	$r4,$r3,144(0x90)
  203520:	1a000284 	pcalau12i	$r4,20(0x14)
  203524:	02d0a084 	addi.d	$r4,$r4,1064(0x428)
  203528:	29c20064 	st.d	$r4,$r3,128(0x80)
  20352c:	02c3c064 	addi.d	$r4,$r3,240(0xf0)
  203530:	29c1a064 	st.d	$r4,$r3,104(0x68)
  203534:	1a000284 	pcalau12i	$r4,20(0x14)
  203538:	02c48084 	addi.d	$r4,$r4,288(0x120)
  20353c:	29c18064 	st.d	$r4,$r3,96(0x60)
  203540:	02c34064 	addi.d	$r4,$r3,208(0xd0)
  203544:	29c0e064 	st.d	$r4,$r3,56(0x38)
  203548:	03850016 	ori	$r22,$r0,0x140
  20354c:	02bffc04 	addi.w	$r4,$r0,-1(0xfff)
  203550:	29c2c064 	st.d	$r4,$r3,176(0xb0)
  203554:	0380601d 	ori	$r29,$r0,0x18
  203558:	03802c04 	ori	$r4,$r0,0xb
  20355c:	29c06064 	st.d	$r4,$r3,24(0x18)
  203560:	00150019 	move	$r25,$r0
  203564:	29c3207d 	st.d	$r29,$r3,200(0xc8)
  203568:	29c12076 	st.d	$r22,$r3,72(0x48)
  20356c:	29c16077 	st.d	$r23,$r3,88(0x58)
  203570:	29c14078 	st.d	$r24,$r3,80(0x50)
  203574:	50003400 	b	52(0x34) # 2035a8 <main+0x834>
  203578:	28c2e07f 	ld.d	$r31,$r3,184(0xb8)
  20357c:	28c0e07c 	ld.d	$r28,$r3,56(0x38)
  203580:	28c16077 	ld.d	$r23,$r3,88(0x58)
  203584:	28c14078 	ld.d	$r24,$r3,80(0x50)
  203588:	28c2a079 	ld.d	$r25,$r3,168(0xa8)
  20358c:	28c30065 	ld.d	$r5,$r3,192(0xc0)
  203590:	002cff84 	alsl.d	$r4,$r28,$r31,0x2
  203594:	29844085 	st.w	$r5,$r4,272(0x110)
  203598:	02c00739 	addi.d	$r25,$r25,1(0x1)
  20359c:	14000044 	lu12i.w	$r4,2(0x2)
  2035a0:	039c4084 	ori	$r4,$r4,0x710
  2035a4:	58090b24 	beq	$r25,$r4,2312(0x908) # 203eac <main+0x1138>
  2035a8:	14992ae4 	lu12i.w	$r4,313687(0x4c957)
  2035ac:	03bcb484 	ori	$r4,$r4,0xf2d
  2035b0:	163e85a4 	lu32i.d	$r4,128045(0x1f42d)
  2035b4:	03161484 	lu52i.d	$r4,$r4,1413(0x585)
  2035b8:	28c22066 	ld.d	$r6,$r3,136(0x88)
  2035bc:	28c000c5 	ld.d	$r5,$r6,0
  2035c0:	001d90a4 	mul.d	$r4,$r5,$r4
  2035c4:	02c00484 	addi.d	$r4,$r4,1(0x1)
  2035c8:	38720000 	dbar	0x0
  2035cc:	386990c0 	amswap_db.d	$r0,$r4,$r6
  2035d0:	00458484 	srli.d	$r4,$r4,0x21
  2035d4:	2983b064 	st.w	$r4,$r3,236(0xec)
  2035d8:	28c28064 	ld.d	$r4,$r3,160(0xa0)
  2035dc:	29c4c064 	st.d	$r4,$r3,304(0x130)
  2035e0:	28c26064 	ld.d	$r4,$r3,152(0x98)
  2035e4:	29c4a064 	st.d	$r4,$r3,296(0x128)
  2035e8:	28c1e064 	ld.d	$r4,$r3,120(0x78)
  2035ec:	28000084 	ld.b	$r4,$r4,0
  2035f0:	00150304 	move	$r4,$r24
  2035f4:	001502e5 	move	$r5,$r23
  2035f8:	00150346 	move	$r6,$r26
  2035fc:	541abc00 	bl	6844(0x1abc) # 2050b8 <_ZN7axalloc15GlobalAllocator5alloc17hb16ded095c2d389eE>
  203600:	2a03e064 	ld.bu	$r4,$r3,248(0xf8)
  203604:	440e7880 	bnez	$r4,3704(0xe78) # 20447c <main+0x1708>
  203608:	28c40064 	ld.d	$r4,$r3,256(0x100)
  20360c:	400e7080 	beqz	$r4,3696(0xe70) # 20447c <main+0x1708>
  203610:	29c52077 	st.d	$r23,$r3,328(0x148)
  203614:	29c50064 	st.d	$r4,$r3,320(0x140)
  203618:	29c54060 	st.d	$r0,$r3,336(0x150)
  20361c:	28c1c064 	ld.d	$r4,$r3,112(0x70)
  203620:	29c3c064 	st.d	$r4,$r3,240(0xf0)
  203624:	29c46060 	st.d	$r0,$r3,280(0x118)
  203628:	28c24064 	ld.d	$r4,$r3,144(0x90)
  20362c:	29c42064 	st.d	$r4,$r3,264(0x108)
  203630:	29c4407a 	st.d	$r26,$r3,272(0x110)
  203634:	29c4007a 	st.d	$r26,$r3,256(0x100)
  203638:	28c20064 	ld.d	$r4,$r3,128(0x80)
  20363c:	29c3e064 	st.d	$r4,$r3,248(0xf8)
  203640:	28c1a064 	ld.d	$r4,$r3,104(0x68)
  203644:	28c18065 	ld.d	$r5,$r3,96(0x60)
  203648:	00150306 	move	$r6,$r24
  20364c:	54d59800 	bl	54680(0xd598) # 210be4 <_ZN4core3fmt5write17hf855db0f875ea3deE>
  203650:	440e3880 	bnez	$r4,3640(0xe38) # 204488 <main+0x1714>
  203654:	2883b064 	ld.w	$r4,$r3,236(0xec)
  203658:	29c30064 	st.d	$r4,$r3,192(0xc0)
  20365c:	28c5407b 	ld.d	$r27,$r3,336(0x150)
  203660:	28c52064 	ld.d	$r4,$r3,328(0x148)
  203664:	29c2e064 	st.d	$r4,$r3,184(0xb8)
  203668:	28c5007e 	ld.d	$r30,$r3,320(0x140)
  20366c:	28c3407f 	ld.d	$r31,$r3,208(0xd0)
  203670:	4000dfe0 	beqz	$r31,220(0xdc) # 20374c <main+0x9d8>
  203674:	29c2a079 	st.d	$r25,$r3,168(0xa8)
  203678:	28c36079 	ld.d	$r25,$r3,216(0xd8)
  20367c:	2a44fbf8 	ld.hu	$r24,$r31,318(0x13e)
  203680:	001df717 	mul.d	$r23,$r24,$r29
  203684:	02c023fd 	addi.d	$r29,$r31,8(0x8)
  203688:	28c2c07c 	ld.d	$r28,$r3,176(0xb0)
  20368c:	400076e0 	beqz	$r23,116(0x74) # 203700 <main+0x98c>
  203690:	28c043b6 	ld.d	$r22,$r29,16(0x10)
  203694:	0012db64 	sltu	$r4,$r27,$r22
  203698:	001392c5 	masknez	$r5,$r22,$r4
  20369c:	00131364 	maskeqz	$r4,$r27,$r4
  2036a0:	00151486 	or	$r6,$r4,$r5
  2036a4:	28c003a5 	ld.d	$r5,$r29,0
  2036a8:	001503c4 	move	$r4,$r30
  2036ac:	55021c00 	bl	66076(0x1021c) # 2138c8 <memcmp>
  2036b0:	0011db65 	sub.d	$r5,$r27,$r22
  2036b4:	02400486 	sltui	$r6,$r4,1(0x1)
  2036b8:	00139884 	masknez	$r4,$r4,$r6
  2036bc:	001318a5 	maskeqz	$r5,$r5,$r6
  2036c0:	001510a4 	or	$r4,$r5,$r4
  2036c4:	02000085 	slti	$r5,$r4,0
  2036c8:	00129004 	sltu	$r4,$r0,$r4
  2036cc:	00139484 	masknez	$r4,$r4,$r5
  2036d0:	02bffc06 	addi.w	$r6,$r0,-1(0xfff)
  2036d4:	001314c5 	maskeqz	$r5,$r6,$r5
  2036d8:	001510a4 	or	$r4,$r5,$r4
  2036dc:	02c0079c 	addi.d	$r28,$r28,1(0x1)
  2036e0:	02ffa2f7 	addi.d	$r23,$r23,-24(0xfe8)
  2036e4:	02c063bd 	addi.d	$r29,$r29,24(0x18)
  2036e8:	5bffa49a 	beq	$r4,$r26,-92(0x3ffa4) # 20368c <main+0x918>
  2036ec:	0343fc84 	andi	$r4,$r4,0xff
  2036f0:	40002c80 	beqz	$r4,44(0x2c) # 20371c <main+0x9a8>
  2036f4:	28c3207d 	ld.d	$r29,$r3,200(0xc8)
  2036f8:	44001720 	bnez	$r25,20(0x14) # 20370c <main+0x998>
  2036fc:	5000b800 	b	184(0xb8) # 2037b4 <main+0xa40>
  203700:	0015031c 	move	$r28,$r24
  203704:	28c3207d 	ld.d	$r29,$r3,200(0xc8)
  203708:	4000af20 	beqz	$r25,172(0xac) # 2037b4 <main+0xa40>
  20370c:	002d7f84 	alsl.d	$r4,$r28,$r31,0x3
  203710:	02ffff39 	addi.d	$r25,$r25,-1(0xfff)
  203714:	28c5009f 	ld.d	$r31,$r4,320(0x140)
  203718:	53ff67ff 	b	-156(0xfffff64) # 20367c <main+0x908>
  20371c:	28c3207d 	ld.d	$r29,$r3,200(0xc8)
  203720:	28c2e065 	ld.d	$r5,$r3,184(0xb8)
  203724:	43fe5cbf 	beqz	$r5,-420(0x7ffe5c) # 203580 <main+0x80c>
  203728:	00150004 	move	$r4,$r0
  20372c:	28c10076 	ld.d	$r22,$r3,64(0x40)
  203730:	040002c4 	csrxchg	$r4,$r22,0x0
  203734:	03800406 	ori	$r6,$r0,0x1
  203738:	001503c4 	move	$r4,$r30
  20373c:	57f003ff 	bl	-4096(0xffff000) # 20273c <_ZN79_$LT$allocator..slab..SlabByteAllocator$u20$as$u20$allocator..ByteAllocator$GT$7dealloc17h4f56f6574734f8a8E>
  203740:	001502c4 	move	$r4,$r22
  203744:	040002c4 	csrxchg	$r4,$r22,0x0
  203748:	53fe3bff 	b	-456(0xffffe38) # 203580 <main+0x80c>
  20374c:	40005fc0 	beqz	$r30,92(0x5c) # 2037a8 <main+0xa34>
  203750:	28c1e064 	ld.d	$r4,$r3,120(0x78)
  203754:	28000084 	ld.b	$r4,$r4,0
  203758:	00150304 	move	$r4,$r24
  20375c:	28c12065 	ld.d	$r5,$r3,72(0x48)
  203760:	001502e6 	move	$r6,$r23
  203764:	54195400 	bl	6484(0x1954) # 2050b8 <_ZN7axalloc15GlobalAllocator5alloc17hb16ded095c2d389eE>
  203768:	2a03e064 	ld.bu	$r4,$r3,248(0xf8)
  20376c:	440d6080 	bnez	$r4,3424(0xd60) # 2044cc <main+0x1758>
  203770:	28c40064 	ld.d	$r4,$r3,256(0x100)
  203774:	400d5880 	beqz	$r4,3416(0xd58) # 2044cc <main+0x1758>
  203778:	28c30065 	ld.d	$r5,$r3,192(0xc0)
  20377c:	29844085 	st.w	$r5,$r4,272(0x110)
  203780:	29c0609b 	st.d	$r27,$r4,24(0x18)
  203784:	28c2e065 	ld.d	$r5,$r3,184(0xb8)
  203788:	29c04085 	st.d	$r5,$r4,16(0x10)
  20378c:	29c0209e 	st.d	$r30,$r4,8(0x8)
  203790:	2944f89a 	st.h	$r26,$r4,318(0x13e)
  203794:	29c00080 	st.d	$r0,$r4,0
  203798:	29c36060 	st.d	$r0,$r3,216(0xd8)
  20379c:	29c34064 	st.d	$r4,$r3,208(0xd0)
  2037a0:	29c3807a 	st.d	$r26,$r3,224(0xe0)
  2037a4:	53fdf7ff 	b	-524(0xffffdf4) # 203598 <main+0x824>
  2037a8:	28c2e07f 	ld.d	$r31,$r3,184(0xb8)
  2037ac:	28c0e07c 	ld.d	$r28,$r3,56(0x38)
  2037b0:	53fddfff 	b	-548(0xffffddc) # 20358c <main+0x818>
  2037b4:	43fdc7df 	beqz	$r30,-572(0x7ffdc4) # 203578 <main+0x804>
  2037b8:	28c16077 	ld.d	$r23,$r3,88(0x58)
  2037bc:	28c14078 	ld.d	$r24,$r3,80(0x50)
  2037c0:	28c2a079 	ld.d	$r25,$r3,168(0xa8)
  2037c4:	43ff8fff 	beqz	$r31,-116(0x7fff8c) # 203750 <main+0x9dc>
  2037c8:	2a44fbf8 	ld.hu	$r24,$r31,318(0x13e)
  2037cc:	28c06064 	ld.d	$r4,$r3,24(0x18)
  2037d0:	6c002f04 	bgeu	$r24,$r4,44(0x2c) # 2037fc <main+0xa88>
  2037d4:	001df785 	mul.d	$r5,$r28,$r29
  2037d8:	02c023e4 	addi.d	$r4,$r31,8(0x8)
  2037dc:	00109499 	add.d	$r25,$r4,$r5
  2037e0:	02c00797 	addi.d	$r23,$r28,1(0x1)
  2037e4:	6c002f17 	bgeu	$r24,$r23,44(0x2c) # 203810 <main+0xa9c>
  2037e8:	29c0433b 	st.d	$r27,$r25,16(0x10)
  2037ec:	28c2e064 	ld.d	$r4,$r3,184(0xb8)
  2037f0:	29c02324 	st.d	$r4,$r25,8(0x8)
  2037f4:	29c0033e 	st.d	$r30,$r25,0
  2037f8:	50005400 	b	84(0x54) # 20384c <main+0xad8>
  2037fc:	03801404 	ori	$r4,$r0,0x5
  203800:	6c006784 	bgeu	$r28,$r4,100(0x64) # 203864 <main+0xaf0>
  203804:	28c10078 	ld.d	$r24,$r3,64(0x40)
  203808:	00150356 	move	$r22,$r26
  20380c:	50008800 	b	136(0x88) # 203894 <main+0xb20>
  203810:	001df6e5 	mul.d	$r5,$r23,$r29
  203814:	00109484 	add.d	$r4,$r4,$r5
  203818:	0011f316 	sub.d	$r22,$r24,$r28
  20381c:	001df6c6 	mul.d	$r6,$r22,$r29
  203820:	00150325 	move	$r5,$r25
  203824:	54fd1000 	bl	64784(0xfd10) # 213534 <memmove>
  203828:	29c0433b 	st.d	$r27,$r25,16(0x10)
  20382c:	28c2e064 	ld.d	$r4,$r3,184(0xb8)
  203830:	29c02324 	st.d	$r4,$r25,8(0x8)
  203834:	29c0033e 	st.d	$r30,$r25,0
  203838:	02c443e5 	addi.d	$r5,$r31,272(0x110)
  20383c:	002c96e4 	alsl.d	$r4,$r23,$r5,0x2
  203840:	002c9785 	alsl.d	$r5,$r28,$r5,0x2
  203844:	00410ac6 	slli.d	$r6,$r22,0x2
  203848:	54fcec00 	bl	64748(0xfcec) # 213534 <memmove>
  20384c:	002cff84 	alsl.d	$r4,$r28,$r31,0x2
  203850:	28c30065 	ld.d	$r5,$r3,192(0xc0)
  203854:	29844085 	st.w	$r5,$r4,272(0x110)
  203858:	02c00704 	addi.d	$r4,$r24,1(0x1)
  20385c:	2944fbe4 	st.h	$r4,$r31,318(0x13e)
  203860:	50055400 	b	1364(0x554) # 203db4 <main+0x1040>
  203864:	58001f84 	beq	$r28,$r4,28(0x1c) # 203880 <main+0xb0c>
  203868:	03801818 	ori	$r24,$r0,0x6
  20386c:	5c002398 	bne	$r28,$r24,32(0x20) # 20388c <main+0xb18>
  203870:	00150098 	move	$r24,$r4
  203874:	00150016 	move	$r22,$r0
  203878:	0015001c 	move	$r28,$r0
  20387c:	50001800 	b	24(0x18) # 203894 <main+0xb20>
  203880:	00150398 	move	$r24,$r28
  203884:	00150356 	move	$r22,$r26
  203888:	50000c00 	b	12(0xc) # 203894 <main+0xb20>
  20388c:	02ffe79c 	addi.d	$r28,$r28,-7(0xff9)
  203890:	00150016 	move	$r22,$r0
  203894:	28c1e064 	ld.d	$r4,$r3,120(0x78)
  203898:	28000084 	ld.b	$r4,$r4,0
  20389c:	02c3e064 	addi.d	$r4,$r3,248(0xf8)
  2038a0:	03850005 	ori	$r5,$r0,0x140
  2038a4:	03802006 	ori	$r6,$r0,0x8
  2038a8:	54181000 	bl	6160(0x1810) # 2050b8 <_ZN7axalloc15GlobalAllocator5alloc17hb16ded095c2d389eE>
  2038ac:	2a03e064 	ld.bu	$r4,$r3,248(0xf8)
  2038b0:	440c1c80 	bnez	$r4,3100(0xc1c) # 2044cc <main+0x1758>
  2038b4:	28c40079 	ld.d	$r25,$r3,256(0x100)
  2038b8:	400c1720 	beqz	$r25,3092(0xc14) # 2044cc <main+0x1758>
  2038bc:	2944fb20 	st.h	$r0,$r25,318(0x13e)
  2038c0:	29c00320 	st.d	$r0,$r25,0
  2038c4:	00140304 	nor	$r4,$r24,$r0
  2038c8:	2a44fbe5 	ld.hu	$r5,$r31,318(0x13e)
  2038cc:	001090a9 	add.d	$r9,$r5,$r4
  2038d0:	2944fb29 	st.h	$r9,$r25,318(0x13e)
  2038d4:	001df706 	mul.d	$r6,$r24,$r29
  2038d8:	02c023e4 	addi.d	$r4,$r31,8(0x8)
  2038dc:	00109887 	add.d	$r7,$r4,$r6
  2038e0:	28c040e8 	ld.d	$r8,$r7,16(0x10)
  2038e4:	29c42068 	st.d	$r8,$r3,264(0x108)
  2038e8:	28c020e7 	ld.d	$r7,$r7,8(0x8)
  2038ec:	29c40067 	st.d	$r7,$r3,256(0x100)
  2038f0:	380c1886 	ldx.d	$r6,$r4,$r6
  2038f4:	29c3e066 	st.d	$r6,$r3,248(0xf8)
  2038f8:	03803006 	ori	$r6,$r0,0xc
  2038fc:	29c0a066 	st.d	$r6,$r3,40(0x28)
  203900:	6c0d2926 	bgeu	$r9,$r6,3368(0xd28) # 204628 <main+0x18b4>
  203904:	29c08076 	st.d	$r22,$r3,32(0x20)
  203908:	02c00717 	addi.d	$r23,$r24,1(0x1)
  20390c:	0011dca5 	sub.d	$r5,$r5,$r23
  203910:	5c0c40a9 	bne	$r5,$r9,3136(0xc40) # 204550 <main+0x17dc>
  203914:	00410b05 	slli.d	$r5,$r24,0x2
  203918:	02c443f6 	addi.d	$r22,$r31,272(0x110)
  20391c:	380816c5 	ldx.w	$r5,$r22,$r5
  203920:	29c0c065 	st.d	$r5,$r3,48(0x30)
  203924:	001df6e5 	mul.d	$r5,$r23,$r29
  203928:	00109485 	add.d	$r5,$r4,$r5
  20392c:	001df526 	mul.d	$r6,$r9,$r29
  203930:	02c02324 	addi.d	$r4,$r25,8(0x8)
  203934:	29c04069 	st.d	$r9,$r3,16(0x10)
  203938:	54ff9400 	bl	65428(0xff94) # 2138cc <memcpy>
  20393c:	002cdae5 	alsl.d	$r5,$r23,$r22,0x2
  203940:	28c04064 	ld.d	$r4,$r3,16(0x10)
  203944:	00410886 	slli.d	$r6,$r4,0x2
  203948:	02c44324 	addi.d	$r4,$r25,272(0x110)
  20394c:	54ff8000 	bl	65408(0xff80) # 2138cc <memcpy>
  203950:	2944fbf8 	st.h	$r24,$r31,318(0x13e)
  203954:	28c08078 	ld.d	$r24,$r3,32(0x20)
  203958:	0013e324 	masknez	$r4,$r25,$r24
  20395c:	001363e5 	maskeqz	$r5,$r31,$r24
  203960:	28c3e066 	ld.d	$r6,$r3,248(0xf8)
  203964:	29c50066 	st.d	$r6,$r3,320(0x140)
  203968:	28c40066 	ld.d	$r6,$r3,256(0x100)
  20396c:	29c52066 	st.d	$r6,$r3,328(0x148)
  203970:	28c42066 	ld.d	$r6,$r3,264(0x108)
  203974:	29c54066 	st.d	$r6,$r3,336(0x150)
  203978:	001510b7 	or	$r23,$r5,$r4
  20397c:	001df785 	mul.d	$r5,$r28,$r29
  203980:	02c022e4 	addi.d	$r4,$r23,8(0x8)
  203984:	00109496 	add.d	$r22,$r4,$r5
  203988:	001503a6 	move	$r6,$r29
  20398c:	02c0079d 	addi.d	$r29,$r28,1(0x1)
  203990:	2a44faf8 	ld.hu	$r24,$r23,318(0x13e)
  203994:	6c001b1d 	bgeu	$r24,$r29,24(0x18) # 2039ac <main+0xc38>
  203998:	29c042db 	st.d	$r27,$r22,16(0x10)
  20399c:	28c2e064 	ld.d	$r4,$r3,184(0xb8)
  2039a0:	29c022c4 	st.d	$r4,$r22,8(0x8)
  2039a4:	29c002de 	st.d	$r30,$r22,0
  2039a8:	50004800 	b	72(0x48) # 2039f0 <main+0xc7c>
  2039ac:	001d9ba7 	mul.d	$r7,$r29,$r6
  2039b0:	00109c84 	add.d	$r4,$r4,$r7
  2039b4:	0011f307 	sub.d	$r7,$r24,$r28
  2039b8:	29c08067 	st.d	$r7,$r3,32(0x20)
  2039bc:	001d98e6 	mul.d	$r6,$r7,$r6
  2039c0:	001502c5 	move	$r5,$r22
  2039c4:	54fb7000 	bl	64368(0xfb70) # 213534 <memmove>
  2039c8:	29c042db 	st.d	$r27,$r22,16(0x10)
  2039cc:	28c2e064 	ld.d	$r4,$r3,184(0xb8)
  2039d0:	29c022c4 	st.d	$r4,$r22,8(0x8)
  2039d4:	29c002de 	st.d	$r30,$r22,0
  2039d8:	02c442e5 	addi.d	$r5,$r23,272(0x110)
  2039dc:	002c97a4 	alsl.d	$r4,$r29,$r5,0x2
  2039e0:	002c9785 	alsl.d	$r5,$r28,$r5,0x2
  2039e4:	28c08066 	ld.d	$r6,$r3,32(0x20)
  2039e8:	004108c6 	slli.d	$r6,$r6,0x2
  2039ec:	54fb4800 	bl	64328(0xfb48) # 213534 <memmove>
  2039f0:	002cdf84 	alsl.d	$r4,$r28,$r23,0x2
  2039f4:	28c30065 	ld.d	$r5,$r3,192(0xc0)
  2039f8:	29844085 	st.w	$r5,$r4,272(0x110)
  2039fc:	02c00704 	addi.d	$r4,$r24,1(0x1)
  203a00:	2944fae4 	st.h	$r4,$r23,318(0x13e)
  203a04:	28c54064 	ld.d	$r4,$r3,336(0x150)
  203a08:	29c4e064 	st.d	$r4,$r3,312(0x138)
  203a0c:	28c52064 	ld.d	$r4,$r3,328(0x148)
  203a10:	29c4c064 	st.d	$r4,$r3,304(0x130)
  203a14:	28c50064 	ld.d	$r4,$r3,320(0x140)
  203a18:	29c4a064 	st.d	$r4,$r3,296(0x128)
  203a1c:	28c003e4 	ld.d	$r4,$r31,0
  203a20:	4002dc80 	beqz	$r4,732(0x2dc) # 203cfc <main+0xf88>
  203a24:	0015033c 	move	$r28,$r25
  203a28:	28c0c066 	ld.d	$r6,$r3,48(0x30)
  203a2c:	29c30060 	st.d	$r0,$r3,192(0xc0)
  203a30:	28c3207d 	ld.d	$r29,$r3,200(0xc8)
  203a34:	50003400 	b	52(0x34) # 203a68 <main+0xcf4>
  203a38:	28c42064 	ld.d	$r4,$r3,264(0x108)
  203a3c:	29c4e064 	st.d	$r4,$r3,312(0x138)
  203a40:	28c40064 	ld.d	$r4,$r3,256(0x100)
  203a44:	29c4c064 	st.d	$r4,$r3,304(0x130)
  203a48:	28c3e064 	ld.d	$r4,$r3,248(0xf8)
  203a4c:	29c4a064 	st.d	$r4,$r3,296(0x128)
  203a50:	28c003c4 	ld.d	$r4,$r30,0
  203a54:	0015033c 	move	$r28,$r25
  203a58:	28c0c078 	ld.d	$r24,$r3,48(0x30)
  203a5c:	00150306 	move	$r6,$r24
  203a60:	001503df 	move	$r31,$r30
  203a64:	4002a480 	beqz	$r4,676(0x2a4) # 203d08 <main+0xf94>
  203a68:	0015009e 	move	$r30,$r4
  203a6c:	2a44f3f7 	ld.hu	$r23,$r31,316(0x13c)
  203a70:	2a44f89b 	ld.hu	$r27,$r4,318(0x13e)
  203a74:	28c06064 	ld.d	$r4,$r3,24(0x18)
  203a78:	68035b64 	bltu	$r27,$r4,856(0x358) # 203dd0 <main+0x105c>
  203a7c:	29c2e07c 	st.d	$r28,$r3,184(0xb8)
  203a80:	0380041f 	ori	$r31,$r0,0x1
  203a84:	03801404 	ori	$r4,$r0,0x5
  203a88:	6c000ee4 	bgeu	$r23,$r4,12(0xc) # 203a94 <main+0xd20>
  203a8c:	0380101c 	ori	$r28,$r0,0x4
  203a90:	50002c00 	b	44(0x2c) # 203abc <main+0xd48>
  203a94:	001502fc 	move	$r28,$r23
  203a98:	580026e4 	beq	$r23,$r4,36(0x24) # 203abc <main+0xd48>
  203a9c:	0380181c 	ori	$r28,$r0,0x6
  203aa0:	5c0016fc 	bne	$r23,$r28,20(0x14) # 203ab4 <main+0xd40>
  203aa4:	0015009c 	move	$r28,$r4
  203aa8:	0015001f 	move	$r31,$r0
  203aac:	00150017 	move	$r23,$r0
  203ab0:	50000c00 	b	12(0xc) # 203abc <main+0xd48>
  203ab4:	02ffe6f7 	addi.d	$r23,$r23,-7(0xff9)
  203ab8:	0015001f 	move	$r31,$r0
  203abc:	29c08066 	st.d	$r6,$r3,32(0x20)
  203ac0:	28c1e064 	ld.d	$r4,$r3,120(0x78)
  203ac4:	28000084 	ld.b	$r4,$r4,0
  203ac8:	02c3e064 	addi.d	$r4,$r3,248(0xf8)
  203acc:	03868005 	ori	$r5,$r0,0x1a0
  203ad0:	03802006 	ori	$r6,$r0,0x8
  203ad4:	5415e400 	bl	5604(0x15e4) # 2050b8 <_ZN7axalloc15GlobalAllocator5alloc17hb16ded095c2d389eE>
  203ad8:	2a03e064 	ld.bu	$r4,$r3,248(0xf8)
  203adc:	440a6880 	bnez	$r4,2664(0xa68) # 204544 <main+0x17d0>
  203ae0:	28c40079 	ld.d	$r25,$r3,256(0x100)
  203ae4:	400a6320 	beqz	$r25,2656(0xa60) # 204544 <main+0x17d0>
  203ae8:	2944fb20 	st.h	$r0,$r25,318(0x13e)
  203aec:	29c00320 	st.d	$r0,$r25,0
  203af0:	00140384 	nor	$r4,$r28,$r0
  203af4:	2a44fbc5 	ld.hu	$r5,$r30,318(0x13e)
  203af8:	001090b6 	add.d	$r22,$r5,$r4
  203afc:	2944fb36 	st.h	$r22,$r25,318(0x13e)
  203b00:	001df786 	mul.d	$r6,$r28,$r29
  203b04:	02c023c4 	addi.d	$r4,$r30,8(0x8)
  203b08:	00109887 	add.d	$r7,$r4,$r6
  203b0c:	28c040e8 	ld.d	$r8,$r7,16(0x10)
  203b10:	29c42068 	st.d	$r8,$r3,264(0x108)
  203b14:	28c020e7 	ld.d	$r7,$r7,8(0x8)
  203b18:	29c40067 	st.d	$r7,$r3,256(0x100)
  203b1c:	380c1886 	ldx.d	$r6,$r4,$r6
  203b20:	29c3e066 	st.d	$r6,$r3,248(0xf8)
  203b24:	28c0a066 	ld.d	$r6,$r3,40(0x28)
  203b28:	6c0a76c6 	bgeu	$r22,$r6,2676(0xa74) # 20459c <main+0x1828>
  203b2c:	02c00798 	addi.d	$r24,$r28,1(0x1)
  203b30:	0011e0a5 	sub.d	$r5,$r5,$r24
  203b34:	5c0a1cb6 	bne	$r5,$r22,2588(0xa1c) # 204550 <main+0x17dc>
  203b38:	00410b85 	slli.d	$r5,$r28,0x2
  203b3c:	02c443dd 	addi.d	$r29,$r30,272(0x110)
  203b40:	380817a5 	ldx.w	$r5,$r29,$r5
  203b44:	29c0c065 	st.d	$r5,$r3,48(0x30)
  203b48:	28c32066 	ld.d	$r6,$r3,200(0xc8)
  203b4c:	001d9b05 	mul.d	$r5,$r24,$r6
  203b50:	00109485 	add.d	$r5,$r4,$r5
  203b54:	001d9ac6 	mul.d	$r6,$r22,$r6
  203b58:	02c02324 	addi.d	$r4,$r25,8(0x8)
  203b5c:	54fd7000 	bl	64880(0xfd70) # 2138cc <memcpy>
  203b60:	002cf705 	alsl.d	$r5,$r24,$r29,0x2
  203b64:	00410ac6 	slli.d	$r6,$r22,0x2
  203b68:	02c44324 	addi.d	$r4,$r25,272(0x110)
  203b6c:	54fd6000 	bl	64864(0xfd60) # 2138cc <memcpy>
  203b70:	2944fbdc 	st.h	$r28,$r30,318(0x13e)
  203b74:	28c3e064 	ld.d	$r4,$r3,248(0xf8)
  203b78:	29c50064 	st.d	$r4,$r3,320(0x140)
  203b7c:	28c40064 	ld.d	$r4,$r3,256(0x100)
  203b80:	29c52064 	st.d	$r4,$r3,328(0x148)
  203b84:	28c42064 	ld.d	$r4,$r3,264(0x108)
  203b88:	29c54064 	st.d	$r4,$r3,336(0x150)
  203b8c:	2a44fb3d 	ld.hu	$r29,$r25,318(0x13e)
  203b90:	02c007a4 	addi.d	$r4,$r29,1(0x1)
  203b94:	28c0a065 	ld.d	$r5,$r3,40(0x28)
  203b98:	6c0a1fa5 	bgeu	$r29,$r5,2588(0xa1c) # 2045b4 <main+0x1840>
  203b9c:	0011f366 	sub.d	$r6,$r27,$r28
  203ba0:	5c09b0c4 	bne	$r6,$r4,2480(0x9b0) # 204550 <main+0x17dc>
  203ba4:	28c30064 	ld.d	$r4,$r3,192(0xc0)
  203ba8:	02c00484 	addi.d	$r4,$r4,1(0x1)
  203bac:	29c30064 	st.d	$r4,$r3,192(0xc0)
  203bb0:	002d7b04 	alsl.d	$r4,$r24,$r30,0x3
  203bb4:	02c50336 	addi.d	$r22,$r25,320(0x140)
  203bb8:	02c50085 	addi.d	$r5,$r4,320(0x140)
  203bbc:	00410cc6 	slli.d	$r6,$r6,0x3
  203bc0:	001502c4 	move	$r4,$r22
  203bc4:	54fd0800 	bl	64776(0xfd08) # 2138cc <memcpy>
  203bc8:	00150004 	move	$r4,$r0
  203bcc:	00410c85 	slli.d	$r5,$r4,0x3
  203bd0:	380c16c5 	ldx.d	$r5,$r22,$r5
  203bd4:	29c000b9 	st.d	$r25,$r5,0
  203bd8:	2944f0a4 	st.h	$r4,$r5,316(0x13c)
  203bdc:	6c00109d 	bgeu	$r4,$r29,16(0x10) # 203bec <main+0xe78>
  203be0:	0012f485 	sltu	$r5,$r4,$r29
  203be4:	00109484 	add.d	$r4,$r4,$r5
  203be8:	6fffe7a4 	bgeu	$r29,$r4,-28(0x3ffe4) # 203bcc <main+0xe58>
  203bec:	0013ff24 	masknez	$r4,$r25,$r31
  203bf0:	00137fc5 	maskeqz	$r5,$r30,$r31
  203bf4:	28c54066 	ld.d	$r6,$r3,336(0x150)
  203bf8:	29c42066 	st.d	$r6,$r3,264(0x108)
  203bfc:	28c52066 	ld.d	$r6,$r3,328(0x148)
  203c00:	29c40066 	st.d	$r6,$r3,256(0x100)
  203c04:	28c50066 	ld.d	$r6,$r3,320(0x140)
  203c08:	29c3e066 	st.d	$r6,$r3,248(0xf8)
  203c0c:	001510bb 	or	$r27,$r5,$r4
  203c10:	28c3207d 	ld.d	$r29,$r3,200(0xc8)
  203c14:	001df6e5 	mul.d	$r5,$r23,$r29
  203c18:	02c02364 	addi.d	$r4,$r27,8(0x8)
  203c1c:	00109496 	add.d	$r22,$r4,$r5
  203c20:	2a44fb7f 	ld.hu	$r31,$r27,318(0x13e)
  203c24:	02c006fc 	addi.d	$r28,$r23,1(0x1)
  203c28:	0011dff8 	sub.d	$r24,$r31,$r23
  203c2c:	29c04078 	st.d	$r24,$r3,16(0x10)
  203c30:	6c0023fc 	bgeu	$r31,$r28,32(0x20) # 203c50 <main+0xedc>
  203c34:	28c4e064 	ld.d	$r4,$r3,312(0x138)
  203c38:	29c042c4 	st.d	$r4,$r22,16(0x10)
  203c3c:	28c4c064 	ld.d	$r4,$r3,304(0x130)
  203c40:	29c022c4 	st.d	$r4,$r22,8(0x8)
  203c44:	28c4a064 	ld.d	$r4,$r3,296(0x128)
  203c48:	29c002c4 	st.d	$r4,$r22,0
  203c4c:	50004400 	b	68(0x44) # 203c90 <main+0xf1c>
  203c50:	001df785 	mul.d	$r5,$r28,$r29
  203c54:	00109484 	add.d	$r4,$r4,$r5
  203c58:	001df706 	mul.d	$r6,$r24,$r29
  203c5c:	001502c5 	move	$r5,$r22
  203c60:	54f8d400 	bl	63700(0xf8d4) # 213534 <memmove>
  203c64:	28c4a064 	ld.d	$r4,$r3,296(0x128)
  203c68:	29c002c4 	st.d	$r4,$r22,0
  203c6c:	28c4c064 	ld.d	$r4,$r3,304(0x130)
  203c70:	29c022c4 	st.d	$r4,$r22,8(0x8)
  203c74:	28c4e064 	ld.d	$r4,$r3,312(0x138)
  203c78:	29c042c4 	st.d	$r4,$r22,16(0x10)
  203c7c:	02c44365 	addi.d	$r5,$r27,272(0x110)
  203c80:	002c9784 	alsl.d	$r4,$r28,$r5,0x2
  203c84:	002c96e5 	alsl.d	$r5,$r23,$r5,0x2
  203c88:	00410b06 	slli.d	$r6,$r24,0x2
  203c8c:	54f8a800 	bl	63656(0xf8a8) # 213534 <memmove>
  203c90:	28c08065 	ld.d	$r5,$r3,32(0x20)
  203c94:	002ceee4 	alsl.d	$r4,$r23,$r27,0x2
  203c98:	29844085 	st.w	$r5,$r4,272(0x110)
  203c9c:	02c50378 	addi.d	$r24,$r27,320(0x140)
  203ca0:	02c00ae4 	addi.d	$r4,$r23,2(0x2)
  203ca4:	02c00bf6 	addi.d	$r22,$r31,2(0x2)
  203ca8:	6c001896 	bgeu	$r4,$r22,24(0x18) # 203cc0 <main+0xf4c>
  203cac:	002d6084 	alsl.d	$r4,$r4,$r24,0x3
  203cb0:	002d6385 	alsl.d	$r5,$r28,$r24,0x3
  203cb4:	28c04066 	ld.d	$r6,$r3,16(0x10)
  203cb8:	00410cc6 	slli.d	$r6,$r6,0x3
  203cbc:	54f87800 	bl	63608(0xf878) # 213534 <memmove>
  203cc0:	02c007e4 	addi.d	$r4,$r31,1(0x1)
  203cc4:	00410f85 	slli.d	$r5,$r28,0x3
  203cc8:	28c2e066 	ld.d	$r6,$r3,184(0xb8)
  203ccc:	381c1706 	stx.d	$r6,$r24,$r5
  203cd0:	2944fb64 	st.h	$r4,$r27,318(0x13e)
  203cd4:	6ffd6796 	bgeu	$r28,$r22,-668(0x3fd64) # 203a38 <main+0xcc4>
  203cd8:	00410ee5 	slli.d	$r5,$r23,0x3
  203cdc:	02c520a5 	addi.d	$r5,$r5,328(0x148)
  203ce0:	380c1766 	ldx.d	$r6,$r27,$r5
  203ce4:	29c000db 	st.d	$r27,$r6,0
  203ce8:	02c006f7 	addi.d	$r23,$r23,1(0x1)
  203cec:	2944f0d7 	st.h	$r23,$r6,316(0x13c)
  203cf0:	02c020a5 	addi.d	$r5,$r5,8(0x8)
  203cf4:	5fffec97 	bne	$r4,$r23,-20(0x3ffec) # 203ce0 <main+0xf6c>
  203cf8:	53fd43ff 	b	-704(0xffffd40) # 203a38 <main+0xcc4>
  203cfc:	29c30060 	st.d	$r0,$r3,192(0xc0)
  203d00:	28c3207d 	ld.d	$r29,$r3,200(0xc8)
  203d04:	28c0c078 	ld.d	$r24,$r3,48(0x30)
  203d08:	28c34076 	ld.d	$r22,$r3,208(0xd0)
  203d0c:	400936c0 	beqz	$r22,2356(0x934) # 204640 <main+0x18cc>
  203d10:	28c1e064 	ld.d	$r4,$r3,120(0x78)
  203d14:	28000084 	ld.b	$r4,$r4,0
  203d18:	28c36077 	ld.d	$r23,$r3,216(0xd8)
  203d1c:	02c3e064 	addi.d	$r4,$r3,248(0xf8)
  203d20:	03868005 	ori	$r5,$r0,0x1a0
  203d24:	03802006 	ori	$r6,$r0,0x8
  203d28:	54139000 	bl	5008(0x1390) # 2050b8 <_ZN7axalloc15GlobalAllocator5alloc17hb16ded095c2d389eE>
  203d2c:	2a03e064 	ld.bu	$r4,$r3,248(0xf8)
  203d30:	44081480 	bnez	$r4,2068(0x814) # 204544 <main+0x17d0>
  203d34:	28c40064 	ld.d	$r4,$r3,256(0x100)
  203d38:	40080c80 	beqz	$r4,2060(0x80c) # 204544 <main+0x17d0>
  203d3c:	29c50096 	st.d	$r22,$r4,320(0x140)
  203d40:	2944f880 	st.h	$r0,$r4,318(0x13e)
  203d44:	29c00080 	st.d	$r0,$r4,0
  203d48:	2944f2c0 	st.h	$r0,$r22,316(0x13c)
  203d4c:	29c002c4 	st.d	$r4,$r22,0
  203d50:	02c006e5 	addi.d	$r5,$r23,1(0x1)
  203d54:	29c36065 	st.d	$r5,$r3,216(0xd8)
  203d58:	29c34064 	st.d	$r4,$r3,208(0xd0)
  203d5c:	28c30065 	ld.d	$r5,$r3,192(0xc0)
  203d60:	5c08fee5 	bne	$r23,$r5,2300(0x8fc) # 20465c <main+0x18e8>
  203d64:	2a44f885 	ld.hu	$r5,$r4,318(0x13e)
  203d68:	03802806 	ori	$r6,$r0,0xa
  203d6c:	68090cc5 	bltu	$r6,$r5,2316(0x90c) # 204678 <main+0x1904>
  203d70:	02c50086 	addi.d	$r6,$r4,320(0x140)
  203d74:	02c004a7 	addi.d	$r7,$r5,1(0x1)
  203d78:	2944f887 	st.h	$r7,$r4,318(0x13e)
  203d7c:	001df4a8 	mul.d	$r8,$r5,$r29
  203d80:	0010a088 	add.d	$r8,$r4,$r8
  203d84:	28c4e069 	ld.d	$r9,$r3,312(0x138)
  203d88:	29c06109 	st.d	$r9,$r8,24(0x18)
  203d8c:	28c4c069 	ld.d	$r9,$r3,304(0x130)
  203d90:	29c04109 	st.d	$r9,$r8,16(0x10)
  203d94:	28c4a069 	ld.d	$r9,$r3,296(0x128)
  203d98:	29c02109 	st.d	$r9,$r8,8(0x8)
  203d9c:	002c90a5 	alsl.d	$r5,$r5,$r4,0x2
  203da0:	298440b8 	st.w	$r24,$r5,272(0x110)
  203da4:	00410ce5 	slli.d	$r5,$r7,0x3
  203da8:	381c14d9 	stx.d	$r25,$r6,$r5
  203dac:	2944f327 	st.h	$r7,$r25,316(0x13c)
  203db0:	29c00324 	st.d	$r4,$r25,0
  203db4:	28c16077 	ld.d	$r23,$r3,88(0x58)
  203db8:	28c14078 	ld.d	$r24,$r3,80(0x50)
  203dbc:	28c2a079 	ld.d	$r25,$r3,168(0xa8)
  203dc0:	28c38064 	ld.d	$r4,$r3,224(0xe0)
  203dc4:	02c00484 	addi.d	$r4,$r4,1(0x1)
  203dc8:	29c38064 	st.d	$r4,$r3,224(0xe0)
  203dcc:	53f7cfff 	b	-2100(0xffff7cc) # 203598 <main+0x824>
  203dd0:	001df6e5 	mul.d	$r5,$r23,$r29
  203dd4:	02c006f9 	addi.d	$r25,$r23,1(0x1)
  203dd8:	02c023c4 	addi.d	$r4,$r30,8(0x8)
  203ddc:	00109496 	add.d	$r22,$r4,$r5
  203de0:	6c0072fb 	bgeu	$r23,$r27,112(0x70) # 203e50 <main+0x10dc>
  203de4:	001df725 	mul.d	$r5,$r25,$r29
  203de8:	00109484 	add.d	$r4,$r4,$r5
  203dec:	0011df78 	sub.d	$r24,$r27,$r23
  203df0:	001500df 	move	$r31,$r6
  203df4:	001df706 	mul.d	$r6,$r24,$r29
  203df8:	001502c5 	move	$r5,$r22
  203dfc:	54f73800 	bl	63288(0xf738) # 213534 <memmove>
  203e00:	28c4a064 	ld.d	$r4,$r3,296(0x128)
  203e04:	29c002c4 	st.d	$r4,$r22,0
  203e08:	28c4c064 	ld.d	$r4,$r3,304(0x130)
  203e0c:	29c022c4 	st.d	$r4,$r22,8(0x8)
  203e10:	28c4e064 	ld.d	$r4,$r3,312(0x138)
  203e14:	29c042c4 	st.d	$r4,$r22,16(0x10)
  203e18:	02c443d6 	addi.d	$r22,$r30,272(0x110)
  203e1c:	002cdb24 	alsl.d	$r4,$r25,$r22,0x2
  203e20:	002cdae5 	alsl.d	$r5,$r23,$r22,0x2
  203e24:	00410b06 	slli.d	$r6,$r24,0x2
  203e28:	54f70c00 	bl	63244(0xf70c) # 213534 <memmove>
  203e2c:	00410ae4 	slli.d	$r4,$r23,0x2
  203e30:	381812df 	stx.w	$r31,$r22,$r4
  203e34:	02c503c4 	addi.d	$r4,$r30,320(0x140)
  203e38:	002d1325 	alsl.d	$r5,$r25,$r4,0x3
  203e3c:	002d12e4 	alsl.d	$r4,$r23,$r4,0x3
  203e40:	00410f06 	slli.d	$r6,$r24,0x3
  203e44:	02c04084 	addi.d	$r4,$r4,16(0x10)
  203e48:	54f6ec00 	bl	63212(0xf6ec) # 213534 <memmove>
  203e4c:	50002400 	b	36(0x24) # 203e70 <main+0x10fc>
  203e50:	28c4e064 	ld.d	$r4,$r3,312(0x138)
  203e54:	29c042c4 	st.d	$r4,$r22,16(0x10)
  203e58:	28c4c064 	ld.d	$r4,$r3,304(0x130)
  203e5c:	29c022c4 	st.d	$r4,$r22,8(0x8)
  203e60:	28c4a064 	ld.d	$r4,$r3,296(0x128)
  203e64:	29c002c4 	st.d	$r4,$r22,0
  203e68:	002cfae4 	alsl.d	$r4,$r23,$r30,0x2
  203e6c:	29844086 	st.w	$r6,$r4,272(0x110)
  203e70:	02c00764 	addi.d	$r4,$r27,1(0x1)
  203e74:	002d7b25 	alsl.d	$r5,$r25,$r30,0x3
  203e78:	29c500bc 	st.d	$r28,$r5,320(0x140)
  203e7c:	2944fbc4 	st.h	$r4,$r30,318(0x13e)
  203e80:	02c00b65 	addi.d	$r5,$r27,2(0x2)
  203e84:	6fff3325 	bgeu	$r25,$r5,-208(0x3ff30) # 203db4 <main+0x1040>
  203e88:	00410ee5 	slli.d	$r5,$r23,0x3
  203e8c:	02c520a5 	addi.d	$r5,$r5,328(0x148)
  203e90:	380c17c6 	ldx.d	$r6,$r30,$r5
  203e94:	29c000de 	st.d	$r30,$r6,0
  203e98:	02c006f7 	addi.d	$r23,$r23,1(0x1)
  203e9c:	2944f0d7 	st.h	$r23,$r6,316(0x13c)
  203ea0:	02c020a5 	addi.d	$r5,$r5,8(0x8)
  203ea4:	5fffec97 	bne	$r4,$r23,-20(0x3ffec) # 203e90 <main+0x111c>
  203ea8:	53ff0fff 	b	-244(0xfffff0c) # 203db4 <main+0x1040>
  203eac:	28c3406b 	ld.d	$r11,$r3,208(0xd0)
  203eb0:	40001560 	beqz	$r11,20(0x14) # 203ec4 <main+0x1150>
  203eb4:	03800407 	ori	$r7,$r0,0x1
  203eb8:	28c38064 	ld.d	$r4,$r3,224(0xe0)
  203ebc:	28c36068 	ld.d	$r8,$r3,216(0xd8)
  203ec0:	50000c00 	b	12(0xc) # 203ecc <main+0x1158>
  203ec4:	00150004 	move	$r4,$r0
  203ec8:	00150007 	move	$r7,$r0
  203ecc:	03800406 	ori	$r6,$r0,0x1
  203ed0:	0380101a 	ori	$r26,$r0,0x4
  203ed4:	00150009 	move	$r9,$r0
  203ed8:	4001bc80 	beqz	$r4,444(0x1bc) # 204094 <main+0x1320>
  203edc:	40002ce0 	beqz	$r7,44(0x2c) # 203f08 <main+0x1194>
  203ee0:	44002920 	bnez	$r9,40(0x28) # 203f08 <main+0x1194>
  203ee4:	00150169 	move	$r9,$r11
  203ee8:	40001100 	beqz	$r8,16(0x10) # 203ef8 <main+0x1184>
  203eec:	02fffd08 	addi.d	$r8,$r8,-1(0xfff)
  203ef0:	28c50129 	ld.d	$r9,$r9,320(0x140)
  203ef4:	47fff91f 	bnez	$r8,-8(0x7ffff8) # 203eec <main+0x1178>
  203ef8:	00150008 	move	$r8,$r0
  203efc:	0015000b 	move	$r11,$r0
  203f00:	001500c7 	move	$r7,$r6
  203f04:	50000800 	b	8(0x8) # 203f0c <main+0x1198>
  203f08:	4005d0e0 	beqz	$r7,1488(0x5d0) # 2044d8 <main+0x1764>
  203f0c:	2a44f925 	ld.hu	$r5,$r9,318(0x13e)
  203f10:	68002105 	bltu	$r8,$r5,32(0x20) # 203f30 <main+0x11bc>
  203f14:	28c00125 	ld.d	$r5,$r9,0
  203f18:	40041ca0 	beqz	$r5,1052(0x41c) # 204334 <main+0x15c0>
  203f1c:	02c0056b 	addi.d	$r11,$r11,1(0x1)
  203f20:	2a44f128 	ld.hu	$r8,$r9,316(0x13c)
  203f24:	2a44f8aa 	ld.hu	$r10,$r5,318(0x13e)
  203f28:	001500a9 	move	$r9,$r5
  203f2c:	6fffe90a 	bgeu	$r8,$r10,-24(0x3ffe8) # 203f14 <main+0x11a0>
  203f30:	00150125 	move	$r5,$r9
  203f34:	0015010a 	move	$r10,$r8
  203f38:	02c00508 	addi.d	$r8,$r8,1(0x1)
  203f3c:	40002960 	beqz	$r11,40(0x28) # 203f64 <main+0x11f0>
  203f40:	002d1508 	alsl.d	$r8,$r8,$r5,0x3
  203f44:	28c50109 	ld.d	$r9,$r8,320(0x140)
  203f48:	02fffd68 	addi.d	$r8,$r11,-1(0xfff)
  203f4c:	40001100 	beqz	$r8,16(0x10) # 203f5c <main+0x11e8>
  203f50:	28c50129 	ld.d	$r9,$r9,320(0x140)
  203f54:	02fffd08 	addi.d	$r8,$r8,-1(0xfff)
  203f58:	47fff91f 	bnez	$r8,-8(0x7ffff8) # 203f50 <main+0x11dc>
  203f5c:	00150008 	move	$r8,$r0
  203f60:	50000800 	b	8(0x8) # 203f68 <main+0x11f4>
  203f64:	001500a9 	move	$r9,$r5
  203f68:	02fffc84 	addi.d	$r4,$r4,-1(0xfff)
  203f6c:	001df54b 	mul.d	$r11,$r10,$r29
  203f70:	0010acac 	add.d	$r12,$r5,$r11
  203f74:	28c0618d 	ld.d	$r13,$r12,24(0x18)
  203f78:	0015000b 	move	$r11,$r0
  203f7c:	6bff5dba 	bltu	$r13,$r26,-164(0x3ff5c) # 203ed8 <main+0x1164>
  203f80:	28c0218e 	ld.d	$r14,$r12,8(0x8)
  203f84:	2a0005cb 	ld.bu	$r11,$r14,1(0x1)
  203f88:	0041216b 	slli.d	$r11,$r11,0x8
  203f8c:	2a0001cc 	ld.bu	$r12,$r14,0
  203f90:	0015316b 	or	$r11,$r11,$r12
  203f94:	2a0009cc 	ld.bu	$r12,$r14,2(0x2)
  203f98:	0041418c 	slli.d	$r12,$r12,0x10
  203f9c:	2a000dcf 	ld.bu	$r15,$r14,3(0x3)
  203fa0:	004161ef 	slli.d	$r15,$r15,0x18
  203fa4:	001531ec 	or	$r12,$r15,$r12
  203fa8:	00152d8c 	or	$r12,$r12,$r11
  203fac:	14bef2cb 	lu12i.w	$r11,391062(0x5f796)
  203fb0:	0395ad6f 	ori	$r15,$r11,0x56b
  203fb4:	0015000b 	move	$r11,$r0
  203fb8:	5fff218f 	bne	$r12,$r15,-224(0x3ff20) # 203ed8 <main+0x1164>
  203fbc:	02fff1ab 	addi.d	$r11,$r13,-4(0xffc)
  203fc0:	40056960 	beqz	$r11,1384(0x568) # 204528 <main+0x17b4>
  203fc4:	02c011cc 	addi.d	$r12,$r14,4(0x4)
  203fc8:	2a00018f 	ld.bu	$r15,$r12,0
  203fcc:	0380ac10 	ori	$r16,$r0,0x2b
  203fd0:	580069f0 	beq	$r15,$r16,104(0x68) # 204038 <main+0x12c4>
  203fd4:	0380b40d 	ori	$r13,$r0,0x2d
  203fd8:	5c000ded 	bne	$r15,$r13,12(0xc) # 203fe4 <main+0x1270>
  203fdc:	0380040d 	ori	$r13,$r0,0x1
  203fe0:	5804716d 	beq	$r11,$r13,1136(0x470) # 204450 <main+0x16dc>
  203fe4:	0015000d 	move	$r13,$r0
  203fe8:	6c0066eb 	bgeu	$r23,$r11,100(0x64) # 20404c <main+0x12d8>
  203fec:	40008960 	beqz	$r11,136(0x88) # 204074 <main+0x1300>
  203ff0:	2a00018e 	ld.bu	$r14,$r12,0
  203ff4:	02ff41ce 	addi.d	$r14,$r14,-48(0xfd0)
  203ff8:	0380240f 	ori	$r15,$r0,0x9
  203ffc:	680435ee 	bltu	$r15,$r14,1076(0x434) # 204430 <main+0x16bc>
  204000:	00df01ad 	bstrpick.d	$r13,$r13,0x1f,0x0
  204004:	03802810 	ori	$r16,$r0,0xa
  204008:	001dc1ad 	mul.d	$r13,$r13,$r16
  20400c:	004581b0 	srli.d	$r16,$r13,0x20
  204010:	0012c010 	sltu	$r16,$r0,$r16
  204014:	44041e00 	bnez	$r16,1052(0x41c) # 204430 <main+0x16bc>
  204018:	00df01ce 	bstrpick.d	$r14,$r14,0x1f,0x0
  20401c:	00df01ad 	bstrpick.d	$r13,$r13,0x1f,0x0
  204020:	0010b9ad 	add.d	$r13,$r13,$r14
  204024:	02fffd6b 	addi.d	$r11,$r11,-1(0xfff)
  204028:	02c0058c 	addi.d	$r12,$r12,1(0x1)
  20402c:	00df01ae 	bstrpick.d	$r14,$r13,0x1f,0x0
  204030:	5bffbdcd 	beq	$r14,$r13,-68(0x3ffbc) # 203fec <main+0x1278>
  204034:	50041800 	b	1048(0x418) # 20444c <main+0x16d8>
  204038:	02ffedab 	addi.d	$r11,$r13,-5(0xffb)
  20403c:	4003ed60 	beqz	$r11,1004(0x3ec) # 204428 <main+0x16b4>
  204040:	02c015cc 	addi.d	$r12,$r14,5(0x5)
  204044:	0015000d 	move	$r13,$r0
  204048:	6bffa6eb 	bltu	$r23,$r11,-92(0x3ffa4) # 203fec <main+0x1278>
  20404c:	2a00018e 	ld.bu	$r14,$r12,0
  204050:	02ff41ce 	addi.d	$r14,$r14,-48(0xfd0)
  204054:	0380240f 	ori	$r15,$r0,0x9
  204058:	6803d1ee 	bltu	$r15,$r14,976(0x3d0) # 204428 <main+0x16b4>
  20405c:	0380280f 	ori	$r15,$r0,0xa
  204060:	001dbdad 	mul.d	$r13,$r13,$r15
  204064:	0010b5cd 	add.d	$r13,$r14,$r13
  204068:	02c0058c 	addi.d	$r12,$r12,1(0x1)
  20406c:	02fffd6b 	addi.d	$r11,$r11,-1(0xfff)
  204070:	47ffdd7f 	bnez	$r11,-36(0x7fffdc) # 20404c <main+0x12d8>
  204074:	002c9545 	alsl.d	$r5,$r10,$r5,0x2
  204078:	02c440a5 	addi.d	$r5,$r5,272(0x110)
  20407c:	2985006d 	st.w	$r13,$r3,320(0x140)
  204080:	00df01aa 	bstrpick.d	$r10,$r13,0x1f,0x0
  204084:	2a8000ab 	ld.wu	$r11,$r5,0
  204088:	5c04a96a 	bne	$r11,$r10,1192(0x4a8) # 204530 <main+0x17bc>
  20408c:	0015000b 	move	$r11,$r0
  204090:	53fe4bff 	b	-440(0xffffe48) # 203ed8 <main+0x1164>
  204094:	03800419 	ori	$r25,$r0,0x1
  204098:	29c40079 	st.d	$r25,$r3,256(0x100)
  20409c:	1a000264 	pcalau12i	$r4,19(0x13)
  2040a0:	02cf2084 	addi.d	$r4,$r4,968(0x3c8)
  2040a4:	29c3e064 	st.d	$r4,$r3,248(0xf8)
  2040a8:	29c46060 	st.d	$r0,$r3,280(0x118)
  2040ac:	29c44060 	st.d	$r0,$r3,272(0x110)
  2040b0:	28c02064 	ld.d	$r4,$r3,8(0x8)
  2040b4:	29c42064 	st.d	$r4,$r3,264(0x108)
  2040b8:	02c3e064 	addi.d	$r4,$r3,248(0xf8)
  2040bc:	54ddf800 	bl	56824(0xddf8) # 211eb4 <_ZN5libax2io5stdio12__print_impl17h8b01988e25d041f4E>
  2040c0:	28c3407b 	ld.d	$r27,$r3,208(0xd0)
  2040c4:	4001f360 	beqz	$r27,496(0x1f0) # 2042b4 <main+0x1540>
  2040c8:	28c3607e 	ld.d	$r30,$r3,216(0xd8)
  2040cc:	28c3807c 	ld.d	$r28,$r3,224(0xe0)
  2040d0:	40001f80 	beqz	$r28,28(0x1c) # 2040ec <main+0x1378>
  2040d4:	03800416 	ori	$r22,$r0,0x1
  2040d8:	00150017 	move	$r23,$r0
  2040dc:	0015037d 	move	$r29,$r27
  2040e0:	50004400 	b	68(0x44) # 204124 <main+0x13b0>
  2040e4:	02ffffde 	addi.d	$r30,$r30,-1(0xfff)
  2040e8:	28c5037b 	ld.d	$r27,$r27,320(0x140)
  2040ec:	47fffbdf 	bnez	$r30,-8(0x7ffff8) # 2040e4 <main+0x1370>
  2040f0:	00150377 	move	$r23,$r27
  2040f4:	50012c00 	b	300(0x12c) # 204220 <main+0x14ac>
  2040f8:	02c02084 	addi.d	$r4,$r4,8(0x8)
  2040fc:	28c00084 	ld.d	$r4,$r4,0
  204100:	00150006 	move	$r6,$r0
  204104:	04000346 	csrxchg	$r6,$r26,0x0
  204108:	001502c6 	move	$r6,$r22
  20410c:	57e633ff 	bl	-6608(0xfffe630) # 20273c <_ZN79_$LT$allocator..slab..SlabByteAllocator$u20$as$u20$allocator..ByteAllocator$GT$7dealloc17h4f56f6574734f8a8E>
  204110:	00150344 	move	$r4,$r26
  204114:	04000344 	csrxchg	$r4,$r26,0x0
  204118:	02ffff9c 	addi.d	$r28,$r28,-1(0xfff)
  20411c:	0015001d 	move	$r29,$r0
  204120:	4000ff80 	beqz	$r28,252(0xfc) # 20421c <main+0x14a8>
  204124:	400066e0 	beqz	$r23,100(0x64) # 204188 <main+0x1414>
  204128:	001502e4 	move	$r4,$r23
  20412c:	001503df 	move	$r31,$r30
  204130:	2a44f885 	ld.hu	$r5,$r4,318(0x13e)
  204134:	28c12078 	ld.d	$r24,$r3,72(0x48)
  204138:	6c006fe5 	bgeu	$r31,$r5,108(0x6c) # 2041a4 <main+0x1430>
  20413c:	02c007fe 	addi.d	$r30,$r31,1(0x1)
  204140:	4000bba0 	beqz	$r29,184(0xb8) # 2041f8 <main+0x1484>
  204144:	002d13c5 	alsl.d	$r5,$r30,$r4,0x3
  204148:	28c500b7 	ld.d	$r23,$r5,320(0x140)
  20414c:	02ffffa5 	addi.d	$r5,$r29,-1(0xfff)
  204150:	4000b0a0 	beqz	$r5,176(0xb0) # 204200 <main+0x148c>
  204154:	28c502f7 	ld.d	$r23,$r23,320(0x140)
  204158:	02fffca5 	addi.d	$r5,$r5,-1(0xfff)
  20415c:	47fff8bf 	bnez	$r5,-8(0x7ffff8) # 204154 <main+0x13e0>
  204160:	28c32065 	ld.d	$r5,$r3,200(0xc8)
  204164:	40015080 	beqz	$r4,336(0x150) # 2042b4 <main+0x1540>
  204168:	0015001e 	move	$r30,$r0
  20416c:	001d97e5 	mul.d	$r5,$r31,$r5
  204170:	00109484 	add.d	$r4,$r4,$r5
  204174:	28c04085 	ld.d	$r5,$r4,16(0x10)
  204178:	47ff80bf 	bnez	$r5,-128(0x7fff80) # 2040f8 <main+0x1384>
  20417c:	53ff9fff 	b	-100(0xfffff9c) # 204118 <main+0x13a4>
  204180:	02ffffde 	addi.d	$r30,$r30,-1(0xfff)
  204184:	28c503bd 	ld.d	$r29,$r29,320(0x140)
  204188:	47fffbdf 	bnez	$r30,-8(0x7ffff8) # 204180 <main+0x140c>
  20418c:	001503a4 	move	$r4,$r29
  204190:	0015001d 	move	$r29,$r0
  204194:	0015001f 	move	$r31,$r0
  204198:	2a44f885 	ld.hu	$r5,$r4,318(0x13e)
  20419c:	28c12078 	ld.d	$r24,$r3,72(0x48)
  2041a0:	6bff9fe5 	bltu	$r31,$r5,-100(0x3ff9c) # 20413c <main+0x13c8>
  2041a4:	28c00097 	ld.d	$r23,$r4,0
  2041a8:	40024ae0 	beqz	$r23,584(0x248) # 2043f0 <main+0x167c>
  2041ac:	2a44f09f 	ld.hu	$r31,$r4,316(0x13c)
  2041b0:	00150005 	move	$r5,$r0
  2041b4:	04000345 	csrxchg	$r5,$r26,0x0
  2041b8:	024007a5 	sltui	$r5,$r29,1(0x1)
  2041bc:	03868006 	ori	$r6,$r0,0x1a0
  2041c0:	001394c6 	masknez	$r6,$r6,$r5
  2041c4:	00131705 	maskeqz	$r5,$r24,$r5
  2041c8:	001518a5 	or	$r5,$r5,$r6
  2041cc:	03802006 	ori	$r6,$r0,0x8
  2041d0:	57e56fff 	bl	-6804(0xfffe56c) # 20273c <_ZN79_$LT$allocator..slab..SlabByteAllocator$u20$as$u20$allocator..ByteAllocator$GT$7dealloc17h4f56f6574734f8a8E>
  2041d4:	00150344 	move	$r4,$r26
  2041d8:	04000344 	csrxchg	$r4,$r26,0x0
  2041dc:	02c007bd 	addi.d	$r29,$r29,1(0x1)
  2041e0:	2a44fae5 	ld.hu	$r5,$r23,318(0x13e)
  2041e4:	001502e4 	move	$r4,$r23
  2041e8:	6fffbfe5 	bgeu	$r31,$r5,-68(0x3ffbc) # 2041a4 <main+0x1430>
  2041ec:	001502e4 	move	$r4,$r23
  2041f0:	02c007fe 	addi.d	$r30,$r31,1(0x1)
  2041f4:	47ff53bf 	bnez	$r29,-176(0x7fff50) # 204144 <main+0x13d0>
  2041f8:	00150097 	move	$r23,$r4
  2041fc:	50000800 	b	8(0x8) # 204204 <main+0x1490>
  204200:	0015001e 	move	$r30,$r0
  204204:	28c32065 	ld.d	$r5,$r3,200(0xc8)
  204208:	001d97e5 	mul.d	$r5,$r31,$r5
  20420c:	00109484 	add.d	$r4,$r4,$r5
  204210:	28c04085 	ld.d	$r5,$r4,16(0x10)
  204214:	47fee4bf 	bnez	$r5,-284(0x7ffee4) # 2040f8 <main+0x1384>
  204218:	53ff03ff 	b	-256(0xfffff00) # 204118 <main+0x13a4>
  20421c:	40009b60 	beqz	$r27,152(0x98) # 2042b4 <main+0x1540>
  204220:	28c002e5 	ld.d	$r5,$r23,0
  204224:	400058a0 	beqz	$r5,88(0x58) # 20427c <main+0x1508>
  204228:	0386801b 	ori	$r27,$r0,0x1a0
  20422c:	03802016 	ori	$r22,$r0,0x8
  204230:	00150018 	move	$r24,$r0
  204234:	001502e4 	move	$r4,$r23
  204238:	28c1207c 	ld.d	$r28,$r3,72(0x48)
  20423c:	001500b7 	move	$r23,$r5
  204240:	00150005 	move	$r5,$r0
  204244:	04000345 	csrxchg	$r5,$r26,0x0
  204248:	02400705 	sltui	$r5,$r24,1(0x1)
  20424c:	00139766 	masknez	$r6,$r27,$r5
  204250:	00131785 	maskeqz	$r5,$r28,$r5
  204254:	001518a5 	or	$r5,$r5,$r6
  204258:	001502c6 	move	$r6,$r22
  20425c:	57e4e3ff 	bl	-6944(0xfffe4e0) # 20273c <_ZN79_$LT$allocator..slab..SlabByteAllocator$u20$as$u20$allocator..ByteAllocator$GT$7dealloc17h4f56f6574734f8a8E>
  204260:	00150344 	move	$r4,$r26
  204264:	04000344 	csrxchg	$r4,$r26,0x0
  204268:	02c00718 	addi.d	$r24,$r24,1(0x1)
  20426c:	28c002e5 	ld.d	$r5,$r23,0
  204270:	001502e4 	move	$r4,$r23
  204274:	47ffc8bf 	bnez	$r5,-56(0x7fffc8) # 20423c <main+0x14c8>
  204278:	50000c00 	b	12(0xc) # 204284 <main+0x1510>
  20427c:	00150018 	move	$r24,$r0
  204280:	28c1207c 	ld.d	$r28,$r3,72(0x48)
  204284:	00150004 	move	$r4,$r0
  204288:	04000344 	csrxchg	$r4,$r26,0x0
  20428c:	02400704 	sltui	$r4,$r24,1(0x1)
  204290:	03868005 	ori	$r5,$r0,0x1a0
  204294:	001390a5 	masknez	$r5,$r5,$r4
  204298:	00131384 	maskeqz	$r4,$r28,$r4
  20429c:	00151485 	or	$r5,$r4,$r5
  2042a0:	03802006 	ori	$r6,$r0,0x8
  2042a4:	001502e4 	move	$r4,$r23
  2042a8:	57e497ff 	bl	-7020(0xfffe494) # 20273c <_ZN79_$LT$allocator..slab..SlabByteAllocator$u20$as$u20$allocator..ByteAllocator$GT$7dealloc17h4f56f6574734f8a8E>
  2042ac:	00150344 	move	$r4,$r26
  2042b0:	04000344 	csrxchg	$r4,$r26,0x0
  2042b4:	29c40079 	st.d	$r25,$r3,256(0x100)
  2042b8:	1a000264 	pcalau12i	$r4,19(0x13)
  2042bc:	02d12084 	addi.d	$r4,$r4,1096(0x448)
  2042c0:	29c3e064 	st.d	$r4,$r3,248(0xf8)
  2042c4:	29c46060 	st.d	$r0,$r3,280(0x118)
  2042c8:	29c44060 	st.d	$r0,$r3,272(0x110)
  2042cc:	28c02064 	ld.d	$r4,$r3,8(0x8)
  2042d0:	29c42064 	st.d	$r4,$r3,264(0x108)
  2042d4:	02c3e064 	addi.d	$r4,$r3,248(0xf8)
  2042d8:	54dbdc00 	bl	56284(0xdbdc) # 211eb4 <_ZN5libax2io5stdio12__print_impl17h8b01988e25d041f4E>
  2042dc:	28c5607f 	ld.d	$r31,$r3,344(0x158)
  2042e0:	28c5807e 	ld.d	$r30,$r3,352(0x160)
  2042e4:	28c5a07d 	ld.d	$r29,$r3,360(0x168)
  2042e8:	28c5c07c 	ld.d	$r28,$r3,368(0x170)
  2042ec:	28c5e07b 	ld.d	$r27,$r3,376(0x178)
  2042f0:	28c6007a 	ld.d	$r26,$r3,384(0x180)
  2042f4:	28c62079 	ld.d	$r25,$r3,392(0x188)
  2042f8:	28c64078 	ld.d	$r24,$r3,400(0x190)
  2042fc:	28c66077 	ld.d	$r23,$r3,408(0x198)
  204300:	28c68076 	ld.d	$r22,$r3,416(0x1a0)
  204304:	28c6a061 	ld.d	$r1,$r3,424(0x1a8)
  204308:	02c6c063 	addi.d	$r3,$r3,432(0x1b0)
  20430c:	4c000020 	jirl	$r0,$r1,0
  204310:	1a000264 	pcalau12i	$r4,19(0x13)
  204314:	02ce0086 	addi.d	$r6,$r4,896(0x380)
  204318:	001503c4 	move	$r4,$r30
  20431c:	50000c00 	b	12(0xc) # 204328 <main+0x15b4>
  204320:	1a000265 	pcalau12i	$r5,19(0x13)
  204324:	02ce60a6 	addi.d	$r6,$r5,920(0x398)
  204328:	001503c5 	move	$r5,$r30
  20432c:	54c1a800 	bl	49576(0xc1a8) # 2104d4 <_ZN4core9panicking18panic_bounds_check17h5afa83c7f9faa757E>
  204330:	38600400 	amswap.w	$r0,$r1,$r0
  204334:	1a000244 	pcalau12i	$r4,18(0x12)
  204338:	02c9c084 	addi.d	$r4,$r4,624(0x270)
  20433c:	0380ac05 	ori	$r5,$r0,0x2b
  204340:	1a000266 	pcalau12i	$r6,19(0x13)
  204344:	02c2a0c6 	addi.d	$r6,$r6,168(0xa8)
  204348:	54bf4000 	bl	48960(0xbf40) # 210288 <_ZN4core9panicking5panic17hd6bc259b6eb19bb3E>
  20434c:	38600400 	amswap.w	$r0,$r1,$r0
  204350:	03800404 	ori	$r4,$r0,0x1
  204354:	29c40064 	st.d	$r4,$r3,256(0x100)
  204358:	1a000264 	pcalau12i	$r4,19(0x13)
  20435c:	02c9c084 	addi.d	$r4,$r4,624(0x270)
  204360:	29c3e064 	st.d	$r4,$r3,248(0xf8)
  204364:	29c46060 	st.d	$r0,$r3,280(0x118)
  204368:	29c44060 	st.d	$r0,$r3,272(0x110)
  20436c:	28c02064 	ld.d	$r4,$r3,8(0x8)
  204370:	29c42064 	st.d	$r4,$r3,264(0x108)
  204374:	02c3e064 	addi.d	$r4,$r3,248(0xf8)
  204378:	1a000265 	pcalau12i	$r5,19(0x13)
  20437c:	02ca60a5 	addi.d	$r5,$r5,664(0x298)
  204380:	54c05c00 	bl	49244(0xc05c) # 2103dc <_ZN4core9panicking9panic_fmt17ha745c27c594dd0a5E>
  204384:	38600400 	amswap.w	$r0,$r1,$r0
  204388:	03800404 	ori	$r4,$r0,0x1
  20438c:	29c40064 	st.d	$r4,$r3,256(0x100)
  204390:	1a000264 	pcalau12i	$r4,19(0x13)
  204394:	02c9c084 	addi.d	$r4,$r4,624(0x270)
  204398:	29c3e064 	st.d	$r4,$r3,248(0xf8)
  20439c:	29c46060 	st.d	$r0,$r3,280(0x118)
  2043a0:	29c44060 	st.d	$r0,$r3,272(0x110)
  2043a4:	28c02064 	ld.d	$r4,$r3,8(0x8)
  2043a8:	29c42064 	st.d	$r4,$r3,264(0x108)
  2043ac:	02c3e064 	addi.d	$r4,$r3,248(0xf8)
  2043b0:	1a000265 	pcalau12i	$r5,19(0x13)
  2043b4:	02cac0a5 	addi.d	$r5,$r5,688(0x2b0)
  2043b8:	54c02400 	bl	49188(0xc024) # 2103dc <_ZN4core9panicking9panic_fmt17ha745c27c594dd0a5E>
  2043bc:	38600400 	amswap.w	$r0,$r1,$r0
  2043c0:	1a000264 	pcalau12i	$r4,19(0x13)
  2043c4:	02cb2086 	addi.d	$r6,$r4,712(0x2c8)
  2043c8:	001502c4 	move	$r4,$r22
  2043cc:	00150345 	move	$r5,$r26
  2043d0:	54c0a400 	bl	49316(0xc0a4) # 210474 <_ZN4core5slice5index22slice_index_order_fail17h463cb24654d29f77E>
  2043d4:	38600400 	amswap.w	$r0,$r1,$r0
  2043d8:	1a000264 	pcalau12i	$r4,19(0x13)
  2043dc:	02cb2086 	addi.d	$r6,$r4,712(0x2c8)
  2043e0:	00150344 	move	$r4,$r26
  2043e4:	001503c5 	move	$r5,$r30
  2043e8:	54c02c00 	bl	49196(0xc02c) # 210414 <_ZN4core5slice5index24slice_end_index_len_fail17h69ee3763533eb493E>
  2043ec:	38600400 	amswap.w	$r0,$r1,$r0
  2043f0:	024007a5 	sltui	$r5,$r29,1(0x1)
  2043f4:	03868006 	ori	$r6,$r0,0x1a0
  2043f8:	001394c6 	masknez	$r6,$r6,$r5
  2043fc:	00131705 	maskeqz	$r5,$r24,$r5
  204400:	001518a5 	or	$r5,$r5,$r6
  204404:	03802006 	ori	$r6,$r0,0x8
  204408:	5429f000 	bl	10736(0x29f0) # 206df8 <__rust_dealloc>
  20440c:	1a000244 	pcalau12i	$r4,18(0x12)
  204410:	02c9c084 	addi.d	$r4,$r4,624(0x270)
  204414:	0380ac05 	ori	$r5,$r0,0x2b
  204418:	1a000266 	pcalau12i	$r6,19(0x13)
  20441c:	02c240c6 	addi.d	$r6,$r6,144(0x90)
  204420:	54be6800 	bl	48744(0xbe68) # 210288 <_ZN4core9panicking5panic17hd6bc259b6eb19bb3E>
  204424:	38600400 	amswap.w	$r0,$r1,$r0
  204428:	0380040d 	ori	$r13,$r0,0x1
  20442c:	50002400 	b	36(0x24) # 204450 <main+0x16dc>
  204430:	0012b9e4 	sltu	$r4,$r15,$r14
  204434:	03800805 	ori	$r5,$r0,0x2
  204438:	001390a5 	masknez	$r5,$r5,$r4
  20443c:	03800406 	ori	$r6,$r0,0x1
  204440:	001310c4 	maskeqz	$r4,$r6,$r4
  204444:	0015148d 	or	$r13,$r4,$r5
  204448:	50000800 	b	8(0x8) # 204450 <main+0x16dc>
  20444c:	0380080d 	ori	$r13,$r0,0x2
  204450:	2903e06d 	st.b	$r13,$r3,248(0xf8)
  204454:	1a000244 	pcalau12i	$r4,18(0x12)
  204458:	02f96884 	addi.d	$r4,$r4,-422(0xe5a)
  20445c:	0380ac05 	ori	$r5,$r0,0x2b
  204460:	02c3e066 	addi.d	$r6,$r3,248(0xf8)
  204464:	1a000267 	pcalau12i	$r7,19(0x13)
  204468:	02cfc0e7 	addi.d	$r7,$r7,1008(0x3f0)
  20446c:	1a000268 	pcalau12i	$r8,19(0x13)
  204470:	02d04108 	addi.d	$r8,$r8,1040(0x410)
  204474:	54bda400 	bl	48548(0xbda4) # 210218 <_ZN4core6result13unwrap_failed17h1feb0e9befb8d2f9E>
  204478:	38600400 	amswap.w	$r0,$r1,$r0
  20447c:	03802004 	ori	$r4,$r0,0x8
  204480:	57dbcfff 	bl	-9268(0xfffdbcc) # 20204c <__rust_alloc_error_handler>
  204484:	38600400 	amswap.w	$r0,$r1,$r0
  204488:	1a000204 	pcalau12i	$r4,16(0x10)
  20448c:	02ce2084 	addi.d	$r4,$r4,904(0x388)
  204490:	0380cc05 	ori	$r5,$r0,0x33
  204494:	02c3e066 	addi.d	$r6,$r3,248(0xf8)
  204498:	1a000267 	pcalau12i	$r7,19(0x13)
  20449c:	02c540e7 	addi.d	$r7,$r7,336(0x150)
  2044a0:	1a000268 	pcalau12i	$r8,19(0x13)
  2044a4:	02c5c108 	addi.d	$r8,$r8,368(0x170)
  2044a8:	54bd7000 	bl	48496(0xbd70) # 210218 <_ZN4core6result13unwrap_failed17h1feb0e9befb8d2f9E>
  2044ac:	38600400 	amswap.w	$r0,$r1,$r0
  2044b0:	1a000204 	pcalau12i	$r4,16(0x10)
  2044b4:	02d27084 	addi.d	$r4,$r4,1180(0x49c)
  2044b8:	0380b005 	ori	$r5,$r0,0x2c
  2044bc:	1a000266 	pcalau12i	$r6,19(0x13)
  2044c0:	02cd00c6 	addi.d	$r6,$r6,832(0x340)
  2044c4:	54bdc400 	bl	48580(0xbdc4) # 210288 <_ZN4core9panicking5panic17hd6bc259b6eb19bb3E>
  2044c8:	38600400 	amswap.w	$r0,$r1,$r0
  2044cc:	03850004 	ori	$r4,$r0,0x140
  2044d0:	57db7fff 	bl	-9348(0xfffdb7c) # 20204c <__rust_alloc_error_handler>
  2044d4:	38600400 	amswap.w	$r0,$r1,$r0
  2044d8:	1a000244 	pcalau12i	$r4,18(0x12)
  2044dc:	02c9c084 	addi.d	$r4,$r4,624(0x270)
  2044e0:	0380ac05 	ori	$r5,$r0,0x2b
  2044e4:	1a000266 	pcalau12i	$r6,19(0x13)
  2044e8:	02c8e0c6 	addi.d	$r6,$r6,568(0x238)
  2044ec:	54bd9c00 	bl	48540(0xbd9c) # 210288 <_ZN4core9panicking5panic17hd6bc259b6eb19bb3E>
  2044f0:	38600400 	amswap.w	$r0,$r1,$r0
  2044f4:	1a000264 	pcalau12i	$r4,19(0x13)
  2044f8:	02cca086 	addi.d	$r6,$r4,808(0x328)
  2044fc:	50007800 	b	120(0x78) # 204574 <main+0x1800>
  204500:	00150344 	move	$r4,$r26
  204504:	57db4bff 	bl	-9400(0xfffdb48) # 20204c <__rust_alloc_error_handler>
  204508:	38600400 	amswap.w	$r0,$r1,$r0
  20450c:	1a000244 	pcalau12i	$r4,18(0x12)
  204510:	02c9c084 	addi.d	$r4,$r4,624(0x270)
  204514:	0380ac05 	ori	$r5,$r0,0x2b
  204518:	1a000266 	pcalau12i	$r6,19(0x13)
  20451c:	02cc40c6 	addi.d	$r6,$r6,784(0x310)
  204520:	54bd6800 	bl	48488(0xbd68) # 210288 <_ZN4core9panicking5panic17hd6bc259b6eb19bb3E>
  204524:	38600400 	amswap.w	$r0,$r1,$r0
  204528:	0015000d 	move	$r13,$r0
  20452c:	53ff27ff 	b	-220(0xfffff24) # 204450 <main+0x16dc>
  204530:	29c3e060 	st.d	$r0,$r3,248(0xf8)
  204534:	02c50064 	addi.d	$r4,$r3,320(0x140)
  204538:	02c3e066 	addi.d	$r6,$r3,248(0xf8)
  20453c:	57e553ff 	bl	-6832(0xfffe550) # 202a8c <_ZN4core9panicking13assert_failed17h77f923b5f390877bE>
  204540:	38600400 	amswap.w	$r0,$r1,$r0
  204544:	03868004 	ori	$r4,$r0,0x1a0
  204548:	57db07ff 	bl	-9468(0xfffdb04) # 20204c <__rust_alloc_error_handler>
  20454c:	38600400 	amswap.w	$r0,$r1,$r0
  204550:	1a000204 	pcalau12i	$r4,16(0x10)
  204554:	02cbdc84 	addi.d	$r4,$r4,759(0x2f7)
  204558:	0380a005 	ori	$r5,$r0,0x28
  20455c:	1a000266 	pcalau12i	$r6,19(0x13)
  204560:	02c120c6 	addi.d	$r6,$r6,72(0x48)
  204564:	54bd2400 	bl	48420(0xbd24) # 210288 <_ZN4core9panicking5panic17hd6bc259b6eb19bb3E>
  204568:	38600400 	amswap.w	$r0,$r1,$r0
  20456c:	1a000264 	pcalau12i	$r4,19(0x13)
  204570:	02ca0086 	addi.d	$r6,$r4,640(0x280)
  204574:	001503e4 	move	$r4,$r31
  204578:	00150305 	move	$r5,$r24
  20457c:	54bef800 	bl	48888(0xbef8) # 210474 <_ZN4core5slice5index22slice_index_order_fail17h463cb24654d29f77E>
  204580:	38600400 	amswap.w	$r0,$r1,$r0
  204584:	1a000264 	pcalau12i	$r4,19(0x13)
  204588:	02ca0086 	addi.d	$r6,$r4,640(0x280)
  20458c:	00150304 	move	$r4,$r24
  204590:	001503c5 	move	$r5,$r30
  204594:	54be8000 	bl	48768(0xbe80) # 210414 <_ZN4core5slice5index24slice_end_index_len_fail17h69ee3763533eb493E>
  204598:	38600400 	amswap.w	$r0,$r1,$r0
  20459c:	03802c05 	ori	$r5,$r0,0xb
  2045a0:	1a000264 	pcalau12i	$r4,19(0x13)
  2045a4:	02c18086 	addi.d	$r6,$r4,96(0x60)
  2045a8:	001502c4 	move	$r4,$r22
  2045ac:	54be6800 	bl	48744(0xbe68) # 210414 <_ZN4core5slice5index24slice_end_index_len_fail17h69ee3763533eb493E>
  2045b0:	38600400 	amswap.w	$r0,$r1,$r0
  2045b4:	03803005 	ori	$r5,$r0,0xc
  2045b8:	1a000266 	pcalau12i	$r6,19(0x13)
  2045bc:	02c1e0c6 	addi.d	$r6,$r6,120(0x78)
  2045c0:	54be5400 	bl	48724(0xbe54) # 210414 <_ZN4core5slice5index24slice_end_index_len_fail17h69ee3763533eb493E>
  2045c4:	38600400 	amswap.w	$r0,$r1,$r0
  2045c8:	14007a04 	lu12i.w	$r4,976(0x3d0)
  2045cc:	03a40084 	ori	$r4,$r4,0x900
  2045d0:	57da7fff 	bl	-9604(0xfffda7c) # 20204c <__rust_alloc_error_handler>
  2045d4:	38600400 	amswap.w	$r0,$r1,$r0
  2045d8:	001502c4 	move	$r4,$r22
  2045dc:	57da73ff 	bl	-9616(0xfffda70) # 20204c <__rust_alloc_error_handler>
  2045e0:	38600400 	amswap.w	$r0,$r1,$r0
  2045e4:	1a000244 	pcalau12i	$r4,18(0x12)
  2045e8:	02c9c084 	addi.d	$r4,$r4,624(0x270)
  2045ec:	0380ac05 	ori	$r5,$r0,0x2b
  2045f0:	1a000266 	pcalau12i	$r6,19(0x13)
  2045f4:	02cb80c6 	addi.d	$r6,$r6,736(0x2e0)
  2045f8:	54bc9000 	bl	48272(0xbc90) # 210288 <_ZN4core9panicking5panic17hd6bc259b6eb19bb3E>
  2045fc:	38600400 	amswap.w	$r0,$r1,$r0
  204600:	03840004 	ori	$r4,$r0,0x100
  204604:	57da4bff 	bl	-9656(0xfffda48) # 20204c <__rust_alloc_error_handler>
  204608:	38600400 	amswap.w	$r0,$r1,$r0
  20460c:	1a000244 	pcalau12i	$r4,18(0x12)
  204610:	02c9c084 	addi.d	$r4,$r4,624(0x270)
  204614:	0380ac05 	ori	$r5,$r0,0x2b
  204618:	1a000266 	pcalau12i	$r6,19(0x13)
  20461c:	02cbe0c6 	addi.d	$r6,$r6,760(0x2f8)
  204620:	54bc6800 	bl	48232(0xbc68) # 210288 <_ZN4core9panicking5panic17hd6bc259b6eb19bb3E>
  204624:	38600400 	amswap.w	$r0,$r1,$r0
  204628:	03802c05 	ori	$r5,$r0,0xb
  20462c:	1a000264 	pcalau12i	$r4,19(0x13)
  204630:	02c18086 	addi.d	$r6,$r4,96(0x60)
  204634:	00150124 	move	$r4,$r9
  204638:	54bddc00 	bl	48604(0xbddc) # 210414 <_ZN4core5slice5index24slice_end_index_len_fail17h69ee3763533eb493E>
  20463c:	38600400 	amswap.w	$r0,$r1,$r0
  204640:	1a000244 	pcalau12i	$r4,18(0x12)
  204644:	02c9c084 	addi.d	$r4,$r4,624(0x270)
  204648:	0380ac05 	ori	$r5,$r0,0x2b
  20464c:	1a000266 	pcalau12i	$r6,19(0x13)
  204650:	02c000c6 	addi.d	$r6,$r6,0
  204654:	54bc3400 	bl	48180(0xbc34) # 210288 <_ZN4core9panicking5panic17hd6bc259b6eb19bb3E>
  204658:	38600400 	amswap.w	$r0,$r1,$r0
  20465c:	1a000204 	pcalau12i	$r4,16(0x10)
  204660:	02cb1c84 	addi.d	$r4,$r4,711(0x2c7)
  204664:	0380c005 	ori	$r5,$r0,0x30
  204668:	1a000266 	pcalau12i	$r6,19(0x13)
  20466c:	02c0c0c6 	addi.d	$r6,$r6,48(0x30)
  204670:	54bc1800 	bl	48152(0xbc18) # 210288 <_ZN4core9panicking5panic17hd6bc259b6eb19bb3E>
  204674:	38600400 	amswap.w	$r0,$r1,$r0
  204678:	1a000204 	pcalau12i	$r4,16(0x10)
  20467c:	02c82084 	addi.d	$r4,$r4,520(0x208)
  204680:	03808005 	ori	$r5,$r0,0x20
  204684:	1a000266 	pcalau12i	$r6,19(0x13)
  204688:	02c060c6 	addi.d	$r6,$r6,24(0x18)
  20468c:	54bbfc00 	bl	48124(0xbbfc) # 210288 <_ZN4core9panicking5panic17hd6bc259b6eb19bb3E>
  204690:	38600400 	amswap.w	$r0,$r1,$r0

0000000000204694 <_ZN42_$LT$$RF$T$u20$as$u20$core..fmt..Debug$GT$3fmt17h3427b717f1eb5765E>:
_ZN42_$LT$$RF$T$u20$as$u20$core..fmt..Debug$GT$3fmt17h3427b717f1eb5765E():
  204694:	02fdc063 	addi.d	$r3,$r3,-144(0xf70)
  204698:	29c22061 	st.d	$r1,$r3,136(0x88)
  20469c:	28c00084 	ld.d	$r4,$r4,0
  2046a0:	2a80d0a6 	ld.wu	$r6,$r5,52(0x34)
  2046a4:	034040c7 	andi	$r7,$r6,0x10
  2046a8:	440018e0 	bnez	$r7,24(0x18) # 2046c0 <_ZN42_$LT$$RF$T$u20$as$u20$core..fmt..Debug$GT$3fmt17h3427b717f1eb5765E+0x2c>
  2046ac:	034080c6 	andi	$r6,$r6,0x20
  2046b0:	440060c0 	bnez	$r6,96(0x60) # 204710 <_ZN42_$LT$$RF$T$u20$as$u20$core..fmt..Debug$GT$3fmt17h3427b717f1eb5765E+0x7c>
  2046b4:	28c22061 	ld.d	$r1,$r3,136(0x88)
  2046b8:	02c24063 	addi.d	$r3,$r3,144(0x90)
  2046bc:	50aac000 	b	43712(0xaac0) # 20f17c <_ZN4core3fmt3num3imp52_$LT$impl$u20$core..fmt..Display$u20$for$u20$u32$GT$3fmt17hb8f49ff0e63859a2E>
  2046c0:	28800089 	ld.w	$r9,$r4,0
  2046c4:	03815c04 	ori	$r4,$r0,0x57
  2046c8:	0380c008 	ori	$r8,$r0,0x30
  2046cc:	02c02066 	addi.d	$r6,$r3,8(0x8)
  2046d0:	0380400a 	ori	$r10,$r0,0x10
  2046d4:	00150007 	move	$r7,$r0
  2046d8:	03403d2b 	andi	$r11,$r9,0xf
  2046dc:	0240296c 	sltui	$r12,$r11,10(0xa)
  2046e0:	0013b08d 	masknez	$r13,$r4,$r12
  2046e4:	0013310c 	maskeqz	$r12,$r8,$r12
  2046e8:	0015358c 	or	$r12,$r12,$r13
  2046ec:	0010ad8b 	add.d	$r11,$r12,$r11
  2046f0:	00109ccc 	add.d	$r12,$r6,$r7
  2046f4:	2901fd8b 	st.b	$r11,$r12,127(0x7f)
  2046f8:	02fffce7 	addi.d	$r7,$r7,-1(0xfff)
  2046fc:	00df112b 	bstrpick.d	$r11,$r9,0x1f,0x4
  204700:	00df012c 	bstrpick.d	$r12,$r9,0x1f,0x0
  204704:	00150169 	move	$r9,$r11
  204708:	6fffd18a 	bgeu	$r12,$r10,-48(0x3ffd0) # 2046d8 <_ZN42_$LT$$RF$T$u20$as$u20$core..fmt..Debug$GT$3fmt17h3427b717f1eb5765E+0x44>
  20470c:	50005000 	b	80(0x50) # 20475c <_ZN42_$LT$$RF$T$u20$as$u20$core..fmt..Debug$GT$3fmt17h3427b717f1eb5765E+0xc8>
  204710:	28800089 	ld.w	$r9,$r4,0
  204714:	0380dc04 	ori	$r4,$r0,0x37
  204718:	0380c008 	ori	$r8,$r0,0x30
  20471c:	02c02066 	addi.d	$r6,$r3,8(0x8)
  204720:	0380400a 	ori	$r10,$r0,0x10
  204724:	00150007 	move	$r7,$r0
  204728:	03403d2b 	andi	$r11,$r9,0xf
  20472c:	0240296c 	sltui	$r12,$r11,10(0xa)
  204730:	0013b08d 	masknez	$r13,$r4,$r12
  204734:	0013310c 	maskeqz	$r12,$r8,$r12
  204738:	0015358c 	or	$r12,$r12,$r13
  20473c:	0010ad8b 	add.d	$r11,$r12,$r11
  204740:	00109ccc 	add.d	$r12,$r6,$r7
  204744:	2901fd8b 	st.b	$r11,$r12,127(0x7f)
  204748:	02fffce7 	addi.d	$r7,$r7,-1(0xfff)
  20474c:	00df112b 	bstrpick.d	$r11,$r9,0x1f,0x4
  204750:	00df012c 	bstrpick.d	$r12,$r9,0x1f,0x0
  204754:	00150169 	move	$r9,$r11
  204758:	6fffd18a 	bgeu	$r12,$r10,-48(0x3ffd0) # 204728 <_ZN42_$LT$$RF$T$u20$as$u20$core..fmt..Debug$GT$3fmt17h3427b717f1eb5765E+0x94>
  20475c:	02c200e4 	addi.d	$r4,$r7,128(0x80)
  204760:	03820408 	ori	$r8,$r0,0x81
  204764:	6c003488 	bgeu	$r4,$r8,52(0x34) # 204798 <_ZN42_$LT$$RF$T$u20$as$u20$core..fmt..Debug$GT$3fmt17h3427b717f1eb5765E+0x104>
  204768:	00119c08 	sub.d	$r8,$r0,$r7
  20476c:	00109cc4 	add.d	$r4,$r6,$r7
  204770:	02c20087 	addi.d	$r7,$r4,128(0x80)
  204774:	1a000244 	pcalau12i	$r4,18(0x12)
  204778:	02c59889 	addi.d	$r9,$r4,358(0x166)
  20477c:	03800806 	ori	$r6,$r0,0x2
  204780:	001500a4 	move	$r4,$r5
  204784:	00150125 	move	$r5,$r9
  204788:	54c6cc00 	bl	50892(0xc6cc) # 210e54 <_ZN4core3fmt9Formatter12pad_integral17hfdb629c44e553f8dE>
  20478c:	28c22061 	ld.d	$r1,$r3,136(0x88)
  204790:	02c24063 	addi.d	$r3,$r3,144(0x90)
  204794:	4c000020 	jirl	$r0,$r1,0
  204798:	03820005 	ori	$r5,$r0,0x80
  20479c:	1a000286 	pcalau12i	$r6,20(0x14)
  2047a0:	02ccc0c6 	addi.d	$r6,$r6,816(0x330)
  2047a4:	54bdcc00 	bl	48588(0xbdcc) # 210570 <_ZN4core5slice5index26slice_start_index_len_fail17h7935edb336fdba66E>
  2047a8:	38600400 	amswap.w	$r0,$r1,$r0

00000000002047ac <_ZN92_$LT$allocator..bitmap..BitmapPageAllocator$LT$_$GT$$u20$as$u20$allocator..PageAllocator$GT$11alloc_pages17hf34805857cf55369E>:
_ZN92_$LT$allocator..bitmap..BitmapPageAllocator$LT$_$GT$$u20$as$u20$allocator..PageAllocator$GT$11alloc_pages17hf34805857cf55369E():
  2047ac:	02fcc063 	addi.d	$r3,$r3,-208(0xf30)
  2047b0:	29c32061 	st.d	$r1,$r3,200(0xc8)
  2047b4:	29c30076 	st.d	$r22,$r3,192(0xc0)
  2047b8:	29c2e077 	st.d	$r23,$r3,184(0xb8)
  2047bc:	29c2c078 	st.d	$r24,$r3,176(0xb0)
  2047c0:	29c2a079 	st.d	$r25,$r3,168(0xa8)
  2047c4:	29c2807a 	st.d	$r26,$r3,160(0xa0)
  2047c8:	29c2607b 	st.d	$r27,$r3,152(0x98)
  2047cc:	29c2407c 	st.d	$r28,$r3,144(0x90)
  2047d0:	29c2207d 	st.d	$r29,$r3,136(0x88)
  2047d4:	29c2007e 	st.d	$r30,$r3,128(0x80)
  2047d8:	29c1e07f 	st.d	$r31,$r3,120(0x78)
  2047dc:	0015008b 	move	$r11,$r4
  2047e0:	14000444 	lu12i.w	$r4,34(0x22)
  2047e4:	0388e084 	ori	$r4,$r4,0x238
  2047e8:	1a000ac6 	pcalau12i	$r6,86(0x56)
  2047ec:	02c000ca 	addi.d	$r10,$r6,0
  2047f0:	38041149 	ldx.h	$r9,$r10,$r4
  2047f4:	03800406 	ori	$r6,$r0,0x1
  2047f8:	00cf0127 	bstrpick.d	$r7,$r9,0xf,0x0
  2047fc:	29c16065 	st.d	$r5,$r3,88(0x58)
  204800:	5c00dca6 	bne	$r5,$r6,220(0xdc) # 2048dc <_ZN92_$LT$allocator..bitmap..BitmapPageAllocator$LT$_$GT$$u20$as$u20$allocator..PageAllocator$GT$11alloc_pages17hf34805857cf55369E+0x130>
  204804:	400340e0 	beqz	$r7,832(0x340) # 204b44 <_ZN92_$LT$allocator..bitmap..BitmapPageAllocator$LT$_$GT$$u20$as$u20$allocator..PageAllocator$GT$11alloc_pages17hf34805857cf55369E+0x398>
  204808:	00002d27 	ctz.d	$r7,$r9
  20480c:	14000045 	lu12i.w	$r5,2(0x2)
  204810:	038888a4 	ori	$r4,$r5,0x222
  204814:	001d90e4 	mul.d	$r4,$r7,$r4
  204818:	00109144 	add.d	$r4,$r10,$r4
  20481c:	0388e0a6 	ori	$r6,$r5,0x238
  204820:	38241888 	ldx.hu	$r8,$r4,$r6
  204824:	40083d00 	beqz	$r8,2108(0x83c) # 205060 <_ZN92_$LT$allocator..bitmap..BitmapPageAllocator$LT$_$GT$$u20$as$u20$allocator..PageAllocator$GT$11alloc_pages17hf34805857cf55369E+0x8b4>
  204828:	00150174 	move	$r20,$r11
  20482c:	14000045 	lu12i.w	$r5,2(0x2)
  204830:	038888a5 	ori	$r5,$r5,0x222
  204834:	001d94e5 	mul.d	$r5,$r7,$r5
  204838:	00150156 	move	$r22,$r10
  20483c:	00109545 	add.d	$r5,$r10,$r5
  204840:	00002d0a 	ctz.d	$r10,$r8
  204844:	0388880b 	ori	$r11,$r0,0x222
  204848:	001dad4b 	mul.d	$r11,$r10,$r11
  20484c:	0010acac 	add.d	$r12,$r5,$r11
  204850:	2a48e185 	ld.hu	$r5,$r12,568(0x238)
  204854:	40080ca0 	beqz	$r5,2060(0x80c) # 205060 <_ZN92_$LT$allocator..bitmap..BitmapPageAllocator$LT$_$GT$$u20$as$u20$allocator..PageAllocator$GT$11alloc_pages17hf34805857cf55369E+0x8b4>
  204858:	02c0618d 	addi.d	$r13,$r12,24(0x18)
  20485c:	00002cab 	ctz.d	$r11,$r5
  204860:	0380880e 	ori	$r14,$r0,0x22
  204864:	001db96e 	mul.d	$r14,$r11,$r14
  204868:	0010b9b0 	add.d	$r16,$r13,$r14
  20486c:	2a40820d 	ld.hu	$r13,$r16,32(0x20)
  204870:	4007f1a0 	beqz	$r13,2032(0x7f0) # 205060 <_ZN92_$LT$allocator..bitmap..BitmapPageAllocator$LT$_$GT$$u20$as$u20$allocator..PageAllocator$GT$11alloc_pages17hf34805857cf55369E+0x8b4>
  204874:	00002daf 	ctz.d	$r15,$r13
  204878:	004105ee 	slli.d	$r14,$r15,0x1
  20487c:	38043a12 	ldx.h	$r18,$r16,$r14
  204880:	1400020e 	lu12i.w	$r14,16(0x10)
  204884:	00153a4e 	or	$r14,$r18,$r14
  204888:	00002dce 	ctz.d	$r14,$r14
  20488c:	03804011 	ori	$r17,$r0,0x10
  204890:	6c07d1d1 	bgeu	$r14,$r17,2000(0x7d0) # 205060 <_ZN92_$LT$allocator..bitmap..BitmapPageAllocator$LT$_$GT$$u20$as$u20$allocator..PageAllocator$GT$11alloc_pages17hf34805857cf55369E+0x8b4>
  204894:	00109886 	add.d	$r6,$r4,$r6
  204898:	02c8e18c 	addi.d	$r12,$r12,568(0x238)
  20489c:	02c08211 	addi.d	$r17,$r16,32(0x20)
  2048a0:	002c41f0 	alsl.d	$r16,$r15,$r16,0x1
  2048a4:	03800404 	ori	$r4,$r0,0x1
  2048a8:	0018b893 	sll.d	$r19,$r4,$r14
  2048ac:	0016ce52 	andn	$r18,$r18,$r19
  2048b0:	29400212 	st.h	$r18,$r16,0
  2048b4:	0018bc90 	sll.d	$r16,$r4,$r15
  2048b8:	004111ef 	slli.d	$r15,$r15,0x4
  2048bc:	00cf0252 	bstrpick.d	$r18,$r18,0xf,0x0
  2048c0:	40029640 	beqz	$r18,660(0x294) # 204b54 <_ZN92_$LT$allocator..bitmap..BitmapPageAllocator$LT$_$GT$$u20$as$u20$allocator..PageAllocator$GT$11alloc_pages17hf34805857cf55369E+0x3a8>
  2048c4:	001541ad 	or	$r13,$r13,$r16
  2048c8:	2940022d 	st.h	$r13,$r17,0
  2048cc:	0041216d 	slli.d	$r13,$r11,0x8
  2048d0:	001535ed 	or	$r13,$r15,$r13
  2048d4:	0010b9ad 	add.d	$r13,$r13,$r14
  2048d8:	50029400 	b	660(0x294) # 204b6c <_ZN92_$LT$allocator..bitmap..BitmapPageAllocator$LT$_$GT$$u20$as$u20$allocator..PageAllocator$GT$11alloc_pages17hf34805857cf55369E+0x3c0>
  2048dc:	400268e0 	beqz	$r7,616(0x268) # 204b44 <_ZN92_$LT$allocator..bitmap..BitmapPageAllocator$LT$_$GT$$u20$as$u20$allocator..PageAllocator$GT$11alloc_pages17hf34805857cf55369E+0x398>
  2048e0:	29c0a066 	st.d	$r6,$r3,40(0x28)
  2048e4:	29c1206a 	st.d	$r10,$r3,72(0x48)
  2048e8:	29c0c06b 	st.d	$r11,$r3,48(0x30)
  2048ec:	0380400c 	ori	$r12,$r0,0x10
  2048f0:	03888804 	ori	$r4,$r0,0x222
  2048f4:	29c14064 	st.d	$r4,$r3,80(0x50)
  2048f8:	03808804 	ori	$r4,$r0,0x22
  2048fc:	29c1c064 	st.d	$r4,$r3,112(0x70)
  204900:	00150006 	move	$r6,$r0
  204904:	14002004 	lu12i.w	$r4,256(0x100)
  204908:	00129885 	sltu	$r5,$r4,$r6
  20490c:	00139484 	masknez	$r4,$r4,$r5
  204910:	001314c5 	maskeqz	$r5,$r6,$r5
  204914:	001510a4 	or	$r4,$r5,$r4
  204918:	29c10064 	st.d	$r4,$r3,64(0x40)
  20491c:	001500c9 	move	$r9,$r6
  204920:	29c0e066 	st.d	$r6,$r3,56(0x38)
  204924:	28c10064 	ld.d	$r4,$r3,64(0x40)
  204928:	58022124 	beq	$r9,$r4,544(0x220) # 204b48 <_ZN92_$LT$allocator..bitmap..BitmapPageAllocator$LT$_$GT$$u20$as$u20$allocator..PageAllocator$GT$11alloc_pages17hf34805857cf55369E+0x39c>
  20492c:	037ffd24 	andi	$r4,$r9,0xfff
  204930:	29c1a064 	st.d	$r4,$r3,104(0x68)
  204934:	00cf3124 	bstrpick.d	$r4,$r9,0xf,0xc
  204938:	29c18064 	st.d	$r4,$r3,96(0x60)
  20493c:	00454132 	srli.d	$r18,$r9,0x10
  204940:	00150251 	move	$r17,$r18
  204944:	001500f0 	move	$r16,$r7
  204948:	001944e4 	srl.d	$r4,$r7,$r17
  20494c:	03400484 	andi	$r4,$r4,0x1
  204950:	40019480 	beqz	$r4,404(0x194) # 204ae4 <_ZN92_$LT$allocator..bitmap..BitmapPageAllocator$LT$_$GT$$u20$as$u20$allocator..PageAllocator$GT$11alloc_pages17hf34805857cf55369E+0x338>
  204954:	0015c644 	xor	$r4,$r18,$r17
  204958:	14000045 	lu12i.w	$r5,2(0x2)
  20495c:	038888a6 	ori	$r6,$r5,0x222
  204960:	001d9a26 	mul.d	$r6,$r17,$r6
  204964:	02400484 	sltui	$r4,$r4,1(0x1)
  204968:	28c1a067 	ld.d	$r7,$r3,104(0x68)
  20496c:	001310e7 	maskeqz	$r7,$r7,$r4
  204970:	00139008 	masknez	$r8,$r0,$r4
  204974:	28c1806a 	ld.d	$r10,$r3,96(0x60)
  204978:	00131144 	maskeqz	$r4,$r10,$r4
  20497c:	00152093 	or	$r19,$r4,$r8
  204980:	001520f4 	or	$r20,$r7,$r8
  204984:	28c12064 	ld.d	$r4,$r3,72(0x48)
  204988:	00109884 	add.d	$r4,$r4,$r6
  20498c:	0388e0a5 	ori	$r5,$r5,0x238
  204990:	38041496 	ldx.h	$r22,$r4,$r5
  204994:	02c06098 	addi.d	$r24,$r4,24(0x18)
  204998:	00452299 	srli.d	$r25,$r20,0x8
  20499c:	00150277 	move	$r23,$r19
  2049a0:	00cf02c4 	bstrpick.d	$r4,$r22,0xf,0x0
  2049a4:	00195c84 	srl.d	$r4,$r4,$r23
  2049a8:	03400484 	andi	$r4,$r4,0x1
  2049ac:	40013080 	beqz	$r4,304(0x130) # 204adc <_ZN92_$LT$allocator..bitmap..BitmapPageAllocator$LT$_$GT$$u20$as$u20$allocator..PageAllocator$GT$11alloc_pages17hf34805857cf55369E+0x330>
  2049b0:	0015de64 	xor	$r4,$r19,$r23
  2049b4:	02400484 	sltui	$r4,$r4,1(0x1)
  2049b8:	00131325 	maskeqz	$r5,$r25,$r4
  2049bc:	00139006 	masknez	$r6,$r0,$r4
  2049c0:	00131284 	maskeqz	$r4,$r20,$r4
  2049c4:	0015189a 	or	$r26,$r4,$r6
  2049c8:	001518bb 	or	$r27,$r5,$r6
  2049cc:	28c14064 	ld.d	$r4,$r3,80(0x50)
  2049d0:	001d92e4 	mul.d	$r4,$r23,$r4
  2049d4:	0010931c 	add.d	$r28,$r24,$r4
  2049d8:	2848839d 	ld.h	$r29,$r28,544(0x220)
  2049dc:	0015037e 	move	$r30,$r27
  2049e0:	50000c00 	b	12(0xc) # 2049ec <_ZN92_$LT$allocator..bitmap..BitmapPageAllocator$LT$_$GT$$u20$as$u20$allocator..PageAllocator$GT$11alloc_pages17hf34805857cf55369E+0x240>
  2049e4:	02c007de 	addi.d	$r30,$r30,1(0x1)
  2049e8:	5800f7cc 	beq	$r30,$r12,244(0xf4) # 204adc <_ZN92_$LT$allocator..bitmap..BitmapPageAllocator$LT$_$GT$$u20$as$u20$allocator..PageAllocator$GT$11alloc_pages17hf34805857cf55369E+0x330>
  2049ec:	00cf03a4 	bstrpick.d	$r4,$r29,0xf,0x0
  2049f0:	00197884 	srl.d	$r4,$r4,$r30
  2049f4:	03400484 	andi	$r4,$r4,0x1
  2049f8:	43ffec9f 	beqz	$r4,-20(0x7fffec) # 2049e4 <_ZN92_$LT$allocator..bitmap..BitmapPageAllocator$LT$_$GT$$u20$as$u20$allocator..PageAllocator$GT$11alloc_pages17hf34805857cf55369E+0x238>
  2049fc:	004123df 	slli.d	$r31,$r30,0x8
  204a00:	0011ff44 	sub.d	$r4,$r26,$r31
  204a04:	0015fb65 	xor	$r5,$r27,$r30
  204a08:	024004a5 	sltui	$r5,$r5,1(0x1)
  204a0c:	00131484 	maskeqz	$r4,$r4,$r5
  204a10:	00139405 	masknez	$r5,$r0,$r5
  204a14:	00151481 	or	$r1,$r4,$r5
  204a18:	28c1c064 	ld.d	$r4,$r3,112(0x70)
  204a1c:	001d93c5 	mul.d	$r5,$r30,$r4
  204a20:	00451026 	srli.d	$r6,$r1,0x4
  204a24:	00129984 	sltu	$r4,$r12,$r6
  204a28:	00139187 	masknez	$r7,$r12,$r4
  204a2c:	001310c4 	maskeqz	$r4,$r6,$r4
  204a30:	00151c84 	or	$r4,$r4,$r7
  204a34:	00109785 	add.d	$r5,$r28,$r5
  204a38:	284080ab 	ld.h	$r11,$r5,32(0x20)
  204a3c:	001500cd 	move	$r13,$r6
  204a40:	50001000 	b	16(0x10) # 204a50 <_ZN92_$LT$allocator..bitmap..BitmapPageAllocator$LT$_$GT$$u20$as$u20$allocator..PageAllocator$GT$11alloc_pages17hf34805857cf55369E+0x2a4>
  204a44:	00150008 	move	$r8,$r0
  204a48:	02c005ad 	addi.d	$r13,$r13,1(0x1)
  204a4c:	4400a900 	bnez	$r8,168(0xa8) # 204af4 <_ZN92_$LT$allocator..bitmap..BitmapPageAllocator$LT$_$GT$$u20$as$u20$allocator..PageAllocator$GT$11alloc_pages17hf34805857cf55369E+0x348>
  204a50:	5bff95a4 	beq	$r13,$r4,-108(0x3ff94) # 2049e4 <_ZN92_$LT$allocator..bitmap..BitmapPageAllocator$LT$_$GT$$u20$as$u20$allocator..PageAllocator$GT$11alloc_pages17hf34805857cf55369E+0x238>
  204a54:	00cf0167 	bstrpick.d	$r7,$r11,0xf,0x0
  204a58:	001934e7 	srl.d	$r7,$r7,$r13
  204a5c:	034004e7 	andi	$r7,$r7,0x1
  204a60:	43ffe4ff 	beqz	$r7,-28(0x7fffe4) # 204a44 <_ZN92_$LT$allocator..bitmap..BitmapPageAllocator$LT$_$GT$$u20$as$u20$allocator..PageAllocator$GT$11alloc_pages17hf34805857cf55369E+0x298>
  204a64:	004111a7 	slli.d	$r7,$r13,0x4
  204a68:	00119c28 	sub.d	$r8,$r1,$r7
  204a6c:	0015b4ca 	xor	$r10,$r6,$r13
  204a70:	0240054a 	sltui	$r10,$r10,1(0x1)
  204a74:	00132908 	maskeqz	$r8,$r8,$r10
  204a78:	0013a80a 	masknez	$r10,$r0,$r10
  204a7c:	0015290e 	or	$r14,$r8,$r10
  204a80:	0012b988 	sltu	$r8,$r12,$r14
  204a84:	0013a18a 	masknez	$r10,$r12,$r8
  204a88:	001321c8 	maskeqz	$r8,$r14,$r8
  204a8c:	0015290a 	or	$r10,$r8,$r10
  204a90:	004105a8 	slli.d	$r8,$r13,0x1
  204a94:	380420a8 	ldx.h	$r8,$r5,$r8
  204a98:	5800314e 	beq	$r10,$r14,48(0x30) # 204ac8 <_ZN92_$LT$allocator..bitmap..BitmapPageAllocator$LT$_$GT$$u20$as$u20$allocator..PageAllocator$GT$11alloc_pages17hf34805857cf55369E+0x31c>
  204a9c:	00cf010f 	bstrpick.d	$r15,$r8,0xf,0x0
  204aa0:	001939ef 	srl.d	$r15,$r15,$r14
  204aa4:	02c005ce 	addi.d	$r14,$r14,1(0x1)
  204aa8:	034005ef 	andi	$r15,$r15,0x1
  204aac:	43ffedff 	beqz	$r15,-20(0x7fffec) # 204a98 <_ZN92_$LT$allocator..bitmap..BitmapPageAllocator$LT$_$GT$$u20$as$u20$allocator..PageAllocator$GT$11alloc_pages17hf34805857cf55369E+0x2ec>
  204ab0:	03800408 	ori	$r8,$r0,0x1
  204ab4:	02fffdca 	addi.d	$r10,$r14,-1(0xfff)
  204ab8:	00109d47 	add.d	$r7,$r10,$r7
  204abc:	02c005ad 	addi.d	$r13,$r13,1(0x1)
  204ac0:	43ff911f 	beqz	$r8,-112(0x7fff90) # 204a50 <_ZN92_$LT$allocator..bitmap..BitmapPageAllocator$LT$_$GT$$u20$as$u20$allocator..PageAllocator$GT$11alloc_pages17hf34805857cf55369E+0x2a4>
  204ac4:	50003000 	b	48(0x30) # 204af4 <_ZN92_$LT$allocator..bitmap..BitmapPageAllocator$LT$_$GT$$u20$as$u20$allocator..PageAllocator$GT$11alloc_pages17hf34805857cf55369E+0x348>
  204ac8:	00150008 	move	$r8,$r0
  204acc:	00109d47 	add.d	$r7,$r10,$r7
  204ad0:	02c005ad 	addi.d	$r13,$r13,1(0x1)
  204ad4:	43ff7d1f 	beqz	$r8,-132(0x7fff7c) # 204a50 <_ZN92_$LT$allocator..bitmap..BitmapPageAllocator$LT$_$GT$$u20$as$u20$allocator..PageAllocator$GT$11alloc_pages17hf34805857cf55369E+0x2a4>
  204ad8:	50001c00 	b	28(0x1c) # 204af4 <_ZN92_$LT$allocator..bitmap..BitmapPageAllocator$LT$_$GT$$u20$as$u20$allocator..PageAllocator$GT$11alloc_pages17hf34805857cf55369E+0x348>
  204adc:	02c006f7 	addi.d	$r23,$r23,1(0x1)
  204ae0:	5ffec2ec 	bne	$r23,$r12,-320(0x3fec0) # 2049a0 <_ZN92_$LT$allocator..bitmap..BitmapPageAllocator$LT$_$GT$$u20$as$u20$allocator..PageAllocator$GT$11alloc_pages17hf34805857cf55369E+0x1f4>
  204ae4:	02c00631 	addi.d	$r17,$r17,1(0x1)
  204ae8:	00150207 	move	$r7,$r16
  204aec:	5ffe5a2c 	bne	$r17,$r12,-424(0x3fe58) # 204944 <_ZN92_$LT$allocator..bitmap..BitmapPageAllocator$LT$_$GT$$u20$as$u20$allocator..PageAllocator$GT$11alloc_pages17hf34805857cf55369E+0x198>
  204af0:	50005800 	b	88(0x58) # 204b48 <_ZN92_$LT$allocator..bitmap..BitmapPageAllocator$LT$_$GT$$u20$as$u20$allocator..PageAllocator$GT$11alloc_pages17hf34805857cf55369E+0x39c>
  204af4:	00414224 	slli.d	$r4,$r17,0x10
  204af8:	004132e5 	slli.d	$r5,$r23,0xc
  204afc:	001090a4 	add.d	$r4,$r5,$r4
  204b00:	0010fc84 	add.d	$r4,$r4,$r31
  204b04:	00109c84 	add.d	$r4,$r4,$r7
  204b08:	5c002089 	bne	$r4,$r9,32(0x20) # 204b28 <_ZN92_$LT$allocator..bitmap..BitmapPageAllocator$LT$_$GT$$u20$as$u20$allocator..PageAllocator$GT$11alloc_pages17hf34805857cf55369E+0x37c>
  204b0c:	02c00529 	addi.d	$r9,$r9,1(0x1)
  204b10:	28c0e066 	ld.d	$r6,$r3,56(0x38)
  204b14:	00119924 	sub.d	$r4,$r9,$r6
  204b18:	28c16065 	ld.d	$r5,$r3,88(0x58)
  204b1c:	00150207 	move	$r7,$r16
  204b20:	5ffe0485 	bne	$r4,$r5,-508(0x3fe04) # 204924 <_ZN92_$LT$allocator..bitmap..BitmapPageAllocator$LT$_$GT$$u20$as$u20$allocator..PageAllocator$GT$11alloc_pages17hf34805857cf55369E+0x178>
  204b24:	5000ec00 	b	236(0xec) # 204c10 <_ZN92_$LT$allocator..bitmap..BitmapPageAllocator$LT$_$GT$$u20$as$u20$allocator..PageAllocator$GT$11alloc_pages17hf34805857cf55369E+0x464>
  204b28:	6c055524 	bgeu	$r9,$r4,1364(0x554) # 20507c <_ZN92_$LT$allocator..bitmap..BitmapPageAllocator$LT$_$GT$$u20$as$u20$allocator..PageAllocator$GT$11alloc_pages17hf34805857cf55369E+0x8d0>
  204b2c:	00150207 	move	$r7,$r16
  204b30:	02fffc84 	addi.d	$r4,$r4,-1(0xfff)
  204b34:	02bff805 	addi.w	$r5,$r0,-2(0xffe)
  204b38:	00149484 	and	$r4,$r4,$r5
  204b3c:	02c00886 	addi.d	$r6,$r4,2(0x2)
  204b40:	53fdc7ff 	b	-572(0xffffdc4) # 204904 <_ZN92_$LT$allocator..bitmap..BitmapPageAllocator$LT$_$GT$$u20$as$u20$allocator..PageAllocator$GT$11alloc_pages17hf34805857cf55369E+0x158>
  204b44:	50008800 	b	136(0x88) # 204bcc <_ZN92_$LT$allocator..bitmap..BitmapPageAllocator$LT$_$GT$$u20$as$u20$allocator..PageAllocator$GT$11alloc_pages17hf34805857cf55369E+0x420>
  204b48:	28c0c06b 	ld.d	$r11,$r3,48(0x30)
  204b4c:	28c0a066 	ld.d	$r6,$r3,40(0x28)
  204b50:	50007c00 	b	124(0x7c) # 204bcc <_ZN92_$LT$allocator..bitmap..BitmapPageAllocator$LT$_$GT$$u20$as$u20$allocator..PageAllocator$GT$11alloc_pages17hf34805857cf55369E+0x420>
  204b54:	0016c1b0 	andn	$r16,$r13,$r16
  204b58:	29400230 	st.h	$r16,$r17,0
  204b5c:	0041216d 	slli.d	$r13,$r11,0x8
  204b60:	001535ed 	or	$r13,$r15,$r13
  204b64:	0010b9ad 	add.d	$r13,$r13,$r14
  204b68:	40043a00 	beqz	$r16,1080(0x438) # 204fa0 <_ZN92_$LT$allocator..bitmap..BitmapPageAllocator$LT$_$GT$$u20$as$u20$allocator..PageAllocator$GT$11alloc_pages17hf34805857cf55369E+0x7f4>
  204b6c:	0018ac8b 	sll.d	$r11,$r4,$r11
  204b70:	00152ca5 	or	$r5,$r5,$r11
  204b74:	29400185 	st.h	$r5,$r12,0
  204b78:	00413145 	slli.d	$r5,$r10,0xc
  204b7c:	001095a5 	add.d	$r5,$r13,$r5
  204b80:	0015028b 	move	$r11,$r20
  204b84:	0018a88a 	sll.d	$r10,$r4,$r10
  204b88:	00152908 	or	$r8,$r8,$r10
  204b8c:	294000c8 	st.h	$r8,$r6,0
  204b90:	004140e6 	slli.d	$r6,$r7,0x10
  204b94:	001098a6 	add.d	$r6,$r5,$r6
  204b98:	00189c84 	sll.d	$r4,$r4,$r7
  204b9c:	00151124 	or	$r4,$r9,$r4
  204ba0:	14000445 	lu12i.w	$r5,34(0x22)
  204ba4:	0388e0a5 	ori	$r5,$r5,0x238
  204ba8:	381416c4 	stx.h	$r4,$r22,$r5
  204bac:	28c042c4 	ld.d	$r4,$r22,16(0x10)
  204bb0:	28c16065 	ld.d	$r5,$r3,88(0x58)
  204bb4:	00109484 	add.d	$r4,$r4,$r5
  204bb8:	29c042c4 	st.d	$r4,$r22,16(0x10)
  204bbc:	28c002c4 	ld.d	$r4,$r22,0
  204bc0:	004130c5 	slli.d	$r5,$r6,0xc
  204bc4:	001090a4 	add.d	$r4,$r5,$r4
  204bc8:	00150006 	move	$r6,$r0
  204bcc:	29c02164 	st.d	$r4,$r11,8(0x8)
  204bd0:	03800804 	ori	$r4,$r0,0x2
  204bd4:	29000564 	st.b	$r4,$r11,1(0x1)
  204bd8:	29000166 	st.b	$r6,$r11,0
  204bdc:	28c1e07f 	ld.d	$r31,$r3,120(0x78)
  204be0:	28c2007e 	ld.d	$r30,$r3,128(0x80)
  204be4:	28c2207d 	ld.d	$r29,$r3,136(0x88)
  204be8:	28c2407c 	ld.d	$r28,$r3,144(0x90)
  204bec:	28c2607b 	ld.d	$r27,$r3,152(0x98)
  204bf0:	28c2807a 	ld.d	$r26,$r3,160(0xa0)
  204bf4:	28c2a079 	ld.d	$r25,$r3,168(0xa8)
  204bf8:	28c2c078 	ld.d	$r24,$r3,176(0xb0)
  204bfc:	28c2e077 	ld.d	$r23,$r3,184(0xb8)
  204c00:	28c30076 	ld.d	$r22,$r3,192(0xc0)
  204c04:	28c32061 	ld.d	$r1,$r3,200(0xc8)
  204c08:	02c34063 	addi.d	$r3,$r3,208(0xd0)
  204c0c:	4c000020 	jirl	$r0,$r1,0
  204c10:	28c16064 	ld.d	$r4,$r3,88(0x58)
  204c14:	001090c4 	add.d	$r4,$r6,$r4
  204c18:	68042c86 	bltu	$r4,$r6,1068(0x42c) # 205044 <_ZN92_$LT$allocator..bitmap..BitmapPageAllocator$LT$_$GT$$u20$as$u20$allocator..PageAllocator$GT$11alloc_pages17hf34805857cf55369E+0x898>
  204c1c:	14002005 	lu12i.w	$r5,256(0x100)
  204c20:	680478a4 	bltu	$r5,$r4,1144(0x478) # 205098 <_ZN92_$LT$allocator..bitmap..BitmapPageAllocator$LT$_$GT$$u20$as$u20$allocator..PageAllocator$GT$11alloc_pages17hf34805857cf55369E+0x8ec>
  204c24:	004540c8 	srli.d	$r8,$r6,0x10
  204c28:	02fffc85 	addi.d	$r5,$r4,-1(0xfff)
  204c2c:	004540a9 	srli.d	$r9,$r5,0x10
  204c30:	6c001128 	bgeu	$r9,$r8,16(0x10) # 204c40 <_ZN92_$LT$allocator..bitmap..BitmapPageAllocator$LT$_$GT$$u20$as$u20$allocator..PageAllocator$GT$11alloc_pages17hf34805857cf55369E+0x494>
  204c34:	28c0c06b 	ld.d	$r11,$r3,48(0x30)
  204c38:	28c12076 	ld.d	$r22,$r3,72(0x48)
  204c3c:	53ff73ff 	b	-144(0xfffff70) # 204bac <_ZN92_$LT$allocator..bitmap..BitmapPageAllocator$LT$_$GT$$u20$as$u20$allocator..PageAllocator$GT$11alloc_pages17hf34805857cf55369E+0x400>
  204c40:	00cf008b 	bstrpick.d	$r11,$r4,0xf,0x0
  204c44:	00454084 	srli.d	$r4,$r4,0x10
  204c48:	00cf00cd 	bstrpick.d	$r13,$r6,0xf,0x0
  204c4c:	03803c14 	ori	$r20,$r0,0xf
  204c50:	03800416 	ori	$r22,$r0,0x1
  204c54:	0015010a 	move	$r10,$r8
  204c58:	29c0a068 	st.d	$r8,$r3,40(0x28)
  204c5c:	29c08069 	st.d	$r9,$r3,32(0x20)
  204c60:	29c0606b 	st.d	$r11,$r3,24(0x18)
  204c64:	29c02064 	st.d	$r4,$r3,8(0x8)
  204c68:	29c0406d 	st.d	$r13,$r3,16(0x10)
  204c6c:	0015a884 	xor	$r4,$r4,$r10
  204c70:	02400485 	sltui	$r5,$r4,1(0x1)
  204c74:	14000204 	lu12i.w	$r4,16(0x10)
  204c78:	00139484 	masknez	$r4,$r4,$r5
  204c7c:	00131565 	maskeqz	$r5,$r11,$r5
  204c80:	0015a906 	xor	$r6,$r8,$r10
  204c84:	024004c7 	sltui	$r7,$r6,1(0x1)
  204c88:	00139c06 	masknez	$r6,$r0,$r7
  204c8c:	00131da7 	maskeqz	$r7,$r13,$r7
  204c90:	68039e8a 	bltu	$r20,$r10,924(0x39c) # 20502c <_ZN92_$LT$allocator..bitmap..BitmapPageAllocator$LT$_$GT$$u20$as$u20$allocator..PageAllocator$GT$11alloc_pages17hf34805857cf55369E+0x880>
  204c94:	001510a5 	or	$r5,$r5,$r4
  204c98:	001518e4 	or	$r4,$r7,$r6
  204c9c:	14000046 	lu12i.w	$r6,2(0x2)
  204ca0:	6803a4a4 	bltu	$r5,$r4,932(0x3a4) # 205044 <_ZN92_$LT$allocator..bitmap..BitmapPageAllocator$LT$_$GT$$u20$as$u20$allocator..PageAllocator$GT$11alloc_pages17hf34805857cf55369E+0x898>
  204ca4:	038888c6 	ori	$r6,$r6,0x222
  204ca8:	001d9946 	mul.d	$r6,$r10,$r6
  204cac:	28c12068 	ld.d	$r8,$r3,72(0x48)
  204cb0:	00109906 	add.d	$r6,$r8,$r6
  204cb4:	02c060d7 	addi.d	$r23,$r6,24(0x18)
  204cb8:	00453098 	srli.d	$r24,$r4,0xc
  204cbc:	02fffca6 	addi.d	$r6,$r5,-1(0xfff)
  204cc0:	004530d9 	srli.d	$r25,$r6,0xc
  204cc4:	6c003b38 	bgeu	$r25,$r24,56(0x38) # 204cfc <_ZN92_$LT$allocator..bitmap..BitmapPageAllocator$LT$_$GT$$u20$as$u20$allocator..PageAllocator$GT$11alloc_pages17hf34805857cf55369E+0x550>
  204cc8:	14000044 	lu12i.w	$r4,2(0x2)
  204ccc:	03888084 	ori	$r4,$r4,0x220
  204cd0:	380412e4 	ldx.h	$r4,$r23,$r4
  204cd4:	03403d45 	andi	$r5,$r10,0xf
  204cd8:	001896c5 	sll.d	$r5,$r22,$r5
  204cdc:	00cf0084 	bstrpick.d	$r4,$r4,0xf,0x0
  204ce0:	40025480 	beqz	$r4,596(0x254) # 204f34 <_ZN92_$LT$allocator..bitmap..BitmapPageAllocator$LT$_$GT$$u20$as$u20$allocator..PageAllocator$GT$11alloc_pages17hf34805857cf55369E+0x788>
  204ce4:	14000444 	lu12i.w	$r4,34(0x22)
  204ce8:	0388e084 	ori	$r4,$r4,0x238
  204cec:	28c12066 	ld.d	$r6,$r3,72(0x48)
  204cf0:	380410c4 	ldx.h	$r4,$r6,$r4
  204cf4:	00151484 	or	$r4,$r4,$r5
  204cf8:	50025000 	b	592(0x250) # 204f48 <_ZN92_$LT$allocator..bitmap..BitmapPageAllocator$LT$_$GT$$u20$as$u20$allocator..PageAllocator$GT$11alloc_pages17hf34805857cf55369E+0x79c>
  204cfc:	14000046 	lu12i.w	$r6,2(0x2)
  204d00:	038888c7 	ori	$r7,$r6,0x222
  204d04:	001d9d47 	mul.d	$r7,$r10,$r7
  204d08:	00109d07 	add.d	$r7,$r8,$r7
  204d0c:	0388e0c6 	ori	$r6,$r6,0x238
  204d10:	001098fa 	add.d	$r26,$r7,$r6
  204d14:	037ffca6 	andi	$r6,$r5,0xfff
  204d18:	29c1a066 	st.d	$r6,$r3,104(0x68)
  204d1c:	004530a5 	srli.d	$r5,$r5,0xc
  204d20:	29c18065 	st.d	$r5,$r3,96(0x60)
  204d24:	037ffc84 	andi	$r4,$r4,0xfff
  204d28:	29c10064 	st.d	$r4,$r3,64(0x40)
  204d2c:	00150307 	move	$r7,$r24
  204d30:	50002000 	b	32(0x20) # 204d50 <_ZN92_$LT$allocator..bitmap..BitmapPageAllocator$LT$_$GT$$u20$as$u20$allocator..PageAllocator$GT$11alloc_pages17hf34805857cf55369E+0x5a4>
  204d34:	28400344 	ld.h	$r4,$r26,0
  204d38:	00169484 	andn	$r4,$r4,$r5
  204d3c:	29400344 	st.h	$r4,$r26,0
  204d40:	6fff94f9 	bgeu	$r7,$r25,-108(0x3ff94) # 204cd4 <_ZN92_$LT$allocator..bitmap..BitmapPageAllocator$LT$_$GT$$u20$as$u20$allocator..PageAllocator$GT$11alloc_pages17hf34805857cf55369E+0x528>
  204d44:	0012e4e5 	sltu	$r5,$r7,$r25
  204d48:	001094e7 	add.d	$r7,$r7,$r5
  204d4c:	6bff8b27 	bltu	$r25,$r7,-120(0x3ff88) # 204cd4 <_ZN92_$LT$allocator..bitmap..BitmapPageAllocator$LT$_$GT$$u20$as$u20$allocator..PageAllocator$GT$11alloc_pages17hf34805857cf55369E+0x528>
  204d50:	28c18064 	ld.d	$r4,$r3,96(0x60)
  204d54:	00159c84 	xor	$r4,$r4,$r7
  204d58:	02400485 	sltui	$r5,$r4,1(0x1)
  204d5c:	14000024 	lu12i.w	$r4,1(0x1)
  204d60:	00139484 	masknez	$r4,$r4,$r5
  204d64:	28c1a066 	ld.d	$r6,$r3,104(0x68)
  204d68:	001314c5 	maskeqz	$r5,$r6,$r5
  204d6c:	00159f06 	xor	$r6,$r24,$r7
  204d70:	024004c8 	sltui	$r8,$r6,1(0x1)
  204d74:	0013a006 	masknez	$r6,$r0,$r8
  204d78:	28c10069 	ld.d	$r9,$r3,64(0x40)
  204d7c:	00132128 	maskeqz	$r8,$r9,$r8
  204d80:	68027a87 	bltu	$r20,$r7,632(0x278) # 204ff8 <_ZN92_$LT$allocator..bitmap..BitmapPageAllocator$LT$_$GT$$u20$as$u20$allocator..PageAllocator$GT$11alloc_pages17hf34805857cf55369E+0x84c>
  204d84:	001510a5 	or	$r5,$r5,$r4
  204d88:	00151904 	or	$r4,$r8,$r6
  204d8c:	6802b8a4 	bltu	$r5,$r4,696(0x2b8) # 205044 <_ZN92_$LT$allocator..bitmap..BitmapPageAllocator$LT$_$GT$$u20$as$u20$allocator..PageAllocator$GT$11alloc_pages17hf34805857cf55369E+0x898>
  204d90:	28c14066 	ld.d	$r6,$r3,80(0x50)
  204d94:	001d98e6 	mul.d	$r6,$r7,$r6
  204d98:	00109afe 	add.d	$r30,$r23,$r6
  204d9c:	0045209f 	srli.d	$r31,$r4,0x8
  204da0:	02fffca6 	addi.d	$r6,$r5,-1(0xfff)
  204da4:	004520c1 	srli.d	$r1,$r6,0x8
  204da8:	6c002c3f 	bgeu	$r1,$r31,44(0x2c) # 204dd4 <_ZN92_$LT$allocator..bitmap..BitmapPageAllocator$LT$_$GT$$u20$as$u20$allocator..PageAllocator$GT$11alloc_pages17hf34805857cf55369E+0x628>
  204dac:	284883c4 	ld.h	$r4,$r30,544(0x220)
  204db0:	03403ce5 	andi	$r5,$r7,0xf
  204db4:	001896c5 	sll.d	$r5,$r22,$r5
  204db8:	00cf0084 	bstrpick.d	$r4,$r4,0xf,0x0
  204dbc:	43ff789f 	beqz	$r4,-136(0x7fff78) # 204d34 <_ZN92_$LT$allocator..bitmap..BitmapPageAllocator$LT$_$GT$$u20$as$u20$allocator..PageAllocator$GT$11alloc_pages17hf34805857cf55369E+0x588>
  204dc0:	28400344 	ld.h	$r4,$r26,0
  204dc4:	00151484 	or	$r4,$r4,$r5
  204dc8:	29400344 	st.h	$r4,$r26,0
  204dcc:	6bff78f9 	bltu	$r7,$r25,-136(0x3ff78) # 204d44 <_ZN92_$LT$allocator..bitmap..BitmapPageAllocator$LT$_$GT$$u20$as$u20$allocator..PageAllocator$GT$11alloc_pages17hf34805857cf55369E+0x598>
  204dd0:	53ff07ff 	b	-252(0xfffff04) # 204cd4 <_ZN92_$LT$allocator..bitmap..BitmapPageAllocator$LT$_$GT$$u20$as$u20$allocator..PageAllocator$GT$11alloc_pages17hf34805857cf55369E+0x528>
  204dd4:	0343fcb1 	andi	$r17,$r5,0xff
  204dd8:	004520b2 	srli.d	$r18,$r5,0x8
  204ddc:	0343fc93 	andi	$r19,$r4,0xff
  204de0:	02c883cf 	addi.d	$r15,$r30,544(0x220)
  204de4:	001503e8 	move	$r8,$r31
  204de8:	50002000 	b	32(0x20) # 204e08 <_ZN92_$LT$allocator..bitmap..BitmapPageAllocator$LT$_$GT$$u20$as$u20$allocator..PageAllocator$GT$11alloc_pages17hf34805857cf55369E+0x65c>
  204dec:	284001e5 	ld.h	$r5,$r15,0
  204df0:	001690a4 	andn	$r4,$r5,$r4
  204df4:	294001e4 	st.h	$r4,$r15,0
  204df8:	6fffb901 	bgeu	$r8,$r1,-72(0x3ffb8) # 204db0 <_ZN92_$LT$allocator..bitmap..BitmapPageAllocator$LT$_$GT$$u20$as$u20$allocator..PageAllocator$GT$11alloc_pages17hf34805857cf55369E+0x604>
  204dfc:	00128505 	sltu	$r5,$r8,$r1
  204e00:	00109508 	add.d	$r8,$r8,$r5
  204e04:	6bffac28 	bltu	$r1,$r8,-84(0x3ffac) # 204db0 <_ZN92_$LT$allocator..bitmap..BitmapPageAllocator$LT$_$GT$$u20$as$u20$allocator..PageAllocator$GT$11alloc_pages17hf34805857cf55369E+0x604>
  204e08:	0015a244 	xor	$r4,$r18,$r8
  204e0c:	02400485 	sltui	$r5,$r4,1(0x1)
  204e10:	03840004 	ori	$r4,$r0,0x100
  204e14:	00139484 	masknez	$r4,$r4,$r5
  204e18:	00131625 	maskeqz	$r5,$r17,$r5
  204e1c:	0015a3e6 	xor	$r6,$r31,$r8
  204e20:	024004c9 	sltui	$r9,$r6,1(0x1)
  204e24:	0013a406 	masknez	$r6,$r0,$r9
  204e28:	0013266b 	maskeqz	$r11,$r19,$r9
  204e2c:	6801b688 	bltu	$r20,$r8,436(0x1b4) # 204fe0 <_ZN92_$LT$allocator..bitmap..BitmapPageAllocator$LT$_$GT$$u20$as$u20$allocator..PageAllocator$GT$11alloc_pages17hf34805857cf55369E+0x834>
  204e30:	001510a9 	or	$r9,$r5,$r4
  204e34:	0015196b 	or	$r11,$r11,$r6
  204e38:	68020d2b 	bltu	$r9,$r11,524(0x20c) # 205044 <_ZN92_$LT$allocator..bitmap..BitmapPageAllocator$LT$_$GT$$u20$as$u20$allocator..PageAllocator$GT$11alloc_pages17hf34805857cf55369E+0x898>
  204e3c:	28c1c064 	ld.d	$r4,$r3,112(0x70)
  204e40:	001d9104 	mul.d	$r4,$r8,$r4
  204e44:	001093c4 	add.d	$r4,$r30,$r4
  204e48:	00451165 	srli.d	$r5,$r11,0x4
  204e4c:	02fffd26 	addi.d	$r6,$r9,-1(0xfff)
  204e50:	004510c6 	srli.d	$r6,$r6,0x4
  204e54:	6c000cc5 	bgeu	$r6,$r5,12(0xc) # 204e60 <_ZN92_$LT$allocator..bitmap..BitmapPageAllocator$LT$_$GT$$u20$as$u20$allocator..PageAllocator$GT$11alloc_pages17hf34805857cf55369E+0x6b4>
  204e58:	2840809c 	ld.h	$r28,$r4,32(0x20)
  204e5c:	5000b400 	b	180(0xb4) # 204f10 <_ZN92_$LT$allocator..bitmap..BitmapPageAllocator$LT$_$GT$$u20$as$u20$allocator..PageAllocator$GT$11alloc_pages17hf34805857cf55369E+0x764>
  204e60:	03403d6b 	andi	$r11,$r11,0xf
  204e64:	03403d2d 	andi	$r13,$r9,0xf
  204e68:	00451130 	srli.d	$r16,$r9,0x4
  204e6c:	02c0809b 	addi.d	$r27,$r4,32(0x20)
  204e70:	001500a9 	move	$r9,$r5
  204e74:	50002000 	b	32(0x20) # 204e94 <_ZN92_$LT$allocator..bitmap..BitmapPageAllocator$LT$_$GT$$u20$as$u20$allocator..PageAllocator$GT$11alloc_pages17hf34805857cf55369E+0x6e8>
  204e78:	2840037c 	ld.h	$r28,$r27,0
  204e7c:	0016bb9c 	andn	$r28,$r28,$r14
  204e80:	2940037c 	st.h	$r28,$r27,0
  204e84:	6c008d26 	bgeu	$r9,$r6,140(0x8c) # 204f10 <_ZN92_$LT$allocator..bitmap..BitmapPageAllocator$LT$_$GT$$u20$as$u20$allocator..PageAllocator$GT$11alloc_pages17hf34805857cf55369E+0x764>
  204e88:	0012992e 	sltu	$r14,$r9,$r6
  204e8c:	0010b929 	add.d	$r9,$r9,$r14
  204e90:	680080c9 	bltu	$r6,$r9,128(0x80) # 204f10 <_ZN92_$LT$allocator..bitmap..BitmapPageAllocator$LT$_$GT$$u20$as$u20$allocator..PageAllocator$GT$11alloc_pages17hf34805857cf55369E+0x764>
  204e94:	6800f689 	bltu	$r20,$r9,244(0xf4) # 204f88 <_ZN92_$LT$allocator..bitmap..BitmapPageAllocator$LT$_$GT$$u20$as$u20$allocator..PageAllocator$GT$11alloc_pages17hf34805857cf55369E+0x7dc>
  204e98:	0015a4ae 	xor	$r14,$r5,$r9
  204e9c:	024005ce 	sltui	$r14,$r14,1(0x1)
  204ea0:	0013b81c 	masknez	$r28,$r0,$r14
  204ea4:	0013396e 	maskeqz	$r14,$r11,$r14
  204ea8:	001571ce 	or	$r14,$r14,$r28
  204eac:	0015a61c 	xor	$r28,$r16,$r9
  204eb0:	0240079c 	sltui	$r28,$r28,1(0x1)
  204eb4:	0013f19d 	masknez	$r29,$r12,$r28
  204eb8:	001371bc 	maskeqz	$r28,$r13,$r28
  204ebc:	0015779c 	or	$r28,$r28,$r29
  204ec0:	6c0151dc 	bgeu	$r14,$r28,336(0x150) # 205010 <_ZN92_$LT$allocator..bitmap..BitmapPageAllocator$LT$_$GT$$u20$as$u20$allocator..PageAllocator$GT$11alloc_pages17hf34805857cf55369E+0x864>
  204ec4:	02bffc1d 	addi.w	$r29,$r0,-1(0xfff)
  204ec8:	0018bbae 	sll.d	$r14,$r29,$r14
  204ecc:	0011f01c 	sub.d	$r28,$r0,$r28
  204ed0:	03403f9c 	andi	$r28,$r28,0xf
  204ed4:	140001fd 	lu12i.w	$r29,15(0xf)
  204ed8:	03bfffbd 	ori	$r29,$r29,0xfff
  204edc:	001973bc 	srl.d	$r28,$r29,$r28
  204ee0:	0014bb8e 	and	$r14,$r28,$r14
  204ee4:	0041053c 	slli.d	$r28,$r9,0x1
  204ee8:	3804709d 	ldx.h	$r29,$r4,$r28
  204eec:	0016bbbd 	andn	$r29,$r29,$r14
  204ef0:	3814709d 	stx.h	$r29,$r4,$r28
  204ef4:	0018a6ce 	sll.d	$r14,$r22,$r9
  204ef8:	00cf03bc 	bstrpick.d	$r28,$r29,0xf,0x0
  204efc:	43ff7f9f 	beqz	$r28,-132(0x7fff7c) # 204e78 <_ZN92_$LT$allocator..bitmap..BitmapPageAllocator$LT$_$GT$$u20$as$u20$allocator..PageAllocator$GT$11alloc_pages17hf34805857cf55369E+0x6cc>
  204f00:	2840037c 	ld.h	$r28,$r27,0
  204f04:	00153b9c 	or	$r28,$r28,$r14
  204f08:	2940037c 	st.h	$r28,$r27,0
  204f0c:	6bff7d26 	bltu	$r9,$r6,-132(0x3ff7c) # 204e88 <_ZN92_$LT$allocator..bitmap..BitmapPageAllocator$LT$_$GT$$u20$as$u20$allocator..PageAllocator$GT$11alloc_pages17hf34805857cf55369E+0x6dc>
  204f10:	03403d04 	andi	$r4,$r8,0xf
  204f14:	001892c4 	sll.d	$r4,$r22,$r4
  204f18:	00cf0385 	bstrpick.d	$r5,$r28,0xf,0x0
  204f1c:	43fed0bf 	beqz	$r5,-304(0x7ffed0) # 204dec <_ZN92_$LT$allocator..bitmap..BitmapPageAllocator$LT$_$GT$$u20$as$u20$allocator..PageAllocator$GT$11alloc_pages17hf34805857cf55369E+0x640>
  204f20:	284001e5 	ld.h	$r5,$r15,0
  204f24:	001510a4 	or	$r4,$r5,$r4
  204f28:	294001e4 	st.h	$r4,$r15,0
  204f2c:	6bfed101 	bltu	$r8,$r1,-304(0x3fed0) # 204dfc <_ZN92_$LT$allocator..bitmap..BitmapPageAllocator$LT$_$GT$$u20$as$u20$allocator..PageAllocator$GT$11alloc_pages17hf34805857cf55369E+0x650>
  204f30:	53fe83ff 	b	-384(0xffffe80) # 204db0 <_ZN92_$LT$allocator..bitmap..BitmapPageAllocator$LT$_$GT$$u20$as$u20$allocator..PageAllocator$GT$11alloc_pages17hf34805857cf55369E+0x604>
  204f34:	14000444 	lu12i.w	$r4,34(0x22)
  204f38:	0388e084 	ori	$r4,$r4,0x238
  204f3c:	28c12066 	ld.d	$r6,$r3,72(0x48)
  204f40:	380410c4 	ldx.h	$r4,$r6,$r4
  204f44:	00169484 	andn	$r4,$r4,$r5
  204f48:	28c0a068 	ld.d	$r8,$r3,40(0x28)
  204f4c:	28c08069 	ld.d	$r9,$r3,32(0x20)
  204f50:	28c0606b 	ld.d	$r11,$r3,24(0x18)
  204f54:	28c0406d 	ld.d	$r13,$r3,16(0x10)
  204f58:	14000445 	lu12i.w	$r5,34(0x22)
  204f5c:	0388e0a5 	ori	$r5,$r5,0x238
  204f60:	381414c4 	stx.h	$r4,$r6,$r5
  204f64:	6c001549 	bgeu	$r10,$r9,20(0x14) # 204f78 <_ZN92_$LT$allocator..bitmap..BitmapPageAllocator$LT$_$GT$$u20$as$u20$allocator..PageAllocator$GT$11alloc_pages17hf34805857cf55369E+0x7cc>
  204f68:	0012a544 	sltu	$r4,$r10,$r9
  204f6c:	0010914a 	add.d	$r10,$r10,$r4
  204f70:	28c02064 	ld.d	$r4,$r3,8(0x8)
  204f74:	6ffcf92a 	bgeu	$r9,$r10,-776(0x3fcf8) # 204c6c <_ZN92_$LT$allocator..bitmap..BitmapPageAllocator$LT$_$GT$$u20$as$u20$allocator..PageAllocator$GT$11alloc_pages17hf34805857cf55369E+0x4c0>
  204f78:	28c0c06b 	ld.d	$r11,$r3,48(0x30)
  204f7c:	28c12076 	ld.d	$r22,$r3,72(0x48)
  204f80:	28c0e066 	ld.d	$r6,$r3,56(0x38)
  204f84:	53fc2bff 	b	-984(0xffffc28) # 204bac <_ZN92_$LT$allocator..bitmap..BitmapPageAllocator$LT$_$GT$$u20$as$u20$allocator..PageAllocator$GT$11alloc_pages17hf34805857cf55369E+0x400>
  204f88:	03804005 	ori	$r5,$r0,0x10
  204f8c:	1a000264 	pcalau12i	$r4,19(0x13)
  204f90:	02d1c086 	addi.d	$r6,$r4,1136(0x470)
  204f94:	00150124 	move	$r4,$r9
  204f98:	54b53c00 	bl	46396(0xb53c) # 2104d4 <_ZN4core9panicking18panic_bounds_check17h5afa83c7f9faa757E>
  204f9c:	38600400 	amswap.w	$r0,$r1,$r0
  204fa0:	0018ac8b 	sll.d	$r11,$r4,$r11
  204fa4:	0016acab 	andn	$r11,$r5,$r11
  204fa8:	2940018b 	st.h	$r11,$r12,0
  204fac:	00413145 	slli.d	$r5,$r10,0xc
  204fb0:	001095a5 	add.d	$r5,$r13,$r5
  204fb4:	47fbcd7f 	bnez	$r11,-1076(0x7ffbcc) # 204b80 <_ZN92_$LT$allocator..bitmap..BitmapPageAllocator$LT$_$GT$$u20$as$u20$allocator..PageAllocator$GT$11alloc_pages17hf34805857cf55369E+0x3d4>
  204fb8:	0018a88a 	sll.d	$r10,$r4,$r10
  204fbc:	0016a908 	andn	$r8,$r8,$r10
  204fc0:	294000c8 	st.h	$r8,$r6,0
  204fc4:	004140e6 	slli.d	$r6,$r7,0x10
  204fc8:	001098a6 	add.d	$r6,$r5,$r6
  204fcc:	0015028b 	move	$r11,$r20
  204fd0:	47fbc91f 	bnez	$r8,-1080(0x7ffbc8) # 204b98 <_ZN92_$LT$allocator..bitmap..BitmapPageAllocator$LT$_$GT$$u20$as$u20$allocator..PageAllocator$GT$11alloc_pages17hf34805857cf55369E+0x3ec>
  204fd4:	00189c84 	sll.d	$r4,$r4,$r7
  204fd8:	00169124 	andn	$r4,$r9,$r4
  204fdc:	53fbc7ff 	b	-1084(0xffffbc4) # 204ba0 <_ZN92_$LT$allocator..bitmap..BitmapPageAllocator$LT$_$GT$$u20$as$u20$allocator..PageAllocator$GT$11alloc_pages17hf34805857cf55369E+0x3f4>
  204fe0:	03804005 	ori	$r5,$r0,0x10
  204fe4:	1a000264 	pcalau12i	$r4,19(0x13)
  204fe8:	02d1c086 	addi.d	$r6,$r4,1136(0x470)
  204fec:	00150104 	move	$r4,$r8
  204ff0:	54b4e400 	bl	46308(0xb4e4) # 2104d4 <_ZN4core9panicking18panic_bounds_check17h5afa83c7f9faa757E>
  204ff4:	38600400 	amswap.w	$r0,$r1,$r0
  204ff8:	03804005 	ori	$r5,$r0,0x10
  204ffc:	1a000264 	pcalau12i	$r4,19(0x13)
  205000:	02d1c086 	addi.d	$r6,$r4,1136(0x470)
  205004:	001500e4 	move	$r4,$r7
  205008:	54b4cc00 	bl	46284(0xb4cc) # 2104d4 <_ZN4core9panicking18panic_bounds_check17h5afa83c7f9faa757E>
  20500c:	38600400 	amswap.w	$r0,$r1,$r0
  205010:	1a000224 	pcalau12i	$r4,17(0x11)
  205014:	02c27084 	addi.d	$r4,$r4,156(0x9c)
  205018:	0380a405 	ori	$r5,$r0,0x29
  20501c:	1a000266 	pcalau12i	$r6,19(0x13)
  205020:	02fe20c6 	addi.d	$r6,$r6,-120(0xf88)
  205024:	54b26400 	bl	45668(0xb264) # 210288 <_ZN4core9panicking5panic17hd6bc259b6eb19bb3E>
  205028:	38600400 	amswap.w	$r0,$r1,$r0
  20502c:	03804005 	ori	$r5,$r0,0x10
  205030:	1a000244 	pcalau12i	$r4,18(0x12)
  205034:	02d1c086 	addi.d	$r6,$r4,1136(0x470)
  205038:	00150144 	move	$r4,$r10
  20503c:	54b49800 	bl	46232(0xb498) # 2104d4 <_ZN4core9panicking18panic_bounds_check17h5afa83c7f9faa757E>
  205040:	38600400 	amswap.w	$r0,$r1,$r0
  205044:	1a000224 	pcalau12i	$r4,17(0x11)
  205048:	02c75c84 	addi.d	$r4,$r4,471(0x1d7)
  20504c:	03807805 	ori	$r5,$r0,0x1e
  205050:	1a000246 	pcalau12i	$r6,18(0x12)
  205054:	02d280c6 	addi.d	$r6,$r6,1184(0x4a0)
  205058:	54b23000 	bl	45616(0xb230) # 210288 <_ZN4core9panicking5panic17hd6bc259b6eb19bb3E>
  20505c:	38600400 	amswap.w	$r0,$r1,$r0
  205060:	1a000224 	pcalau12i	$r4,17(0x11)
  205064:	02c9c084 	addi.d	$r4,$r4,624(0x270)
  205068:	0380ac05 	ori	$r5,$r0,0x2b
  20506c:	1a000246 	pcalau12i	$r6,18(0x12)
  205070:	02d2e0c6 	addi.d	$r6,$r6,1208(0x4b8)
  205074:	54b21400 	bl	45588(0xb214) # 210288 <_ZN4core9panicking5panic17hd6bc259b6eb19bb3E>
  205078:	38600400 	amswap.w	$r0,$r1,$r0
  20507c:	1a0001e4 	pcalau12i	$r4,15(0xf)
  205080:	02d87484 	addi.d	$r4,$r4,1565(0x61d)
  205084:	03807c05 	ori	$r5,$r0,0x1f
  205088:	1a000246 	pcalau12i	$r6,18(0x12)
  20508c:	02d160c6 	addi.d	$r6,$r6,1112(0x458)
  205090:	54b1f800 	bl	45560(0xb1f8) # 210288 <_ZN4core9panicking5panic17hd6bc259b6eb19bb3E>
  205094:	38600400 	amswap.w	$r0,$r1,$r0
  205098:	1a0001e4 	pcalau12i	$r4,15(0xf)
  20509c:	02d8f084 	addi.d	$r4,$r4,1596(0x63c)
  2050a0:	03808805 	ori	$r5,$r0,0x22
  2050a4:	1a000246 	pcalau12i	$r6,18(0x12)
  2050a8:	02d220c6 	addi.d	$r6,$r6,1160(0x488)
  2050ac:	54b1dc00 	bl	45532(0xb1dc) # 210288 <_ZN4core9panicking5panic17hd6bc259b6eb19bb3E>
  2050b0:	38600400 	amswap.w	$r0,$r1,$r0

00000000002050b4 <_ZN4core3ptr42drop_in_place$LT$allocator..AllocError$GT$17hdddb5ad5a7342a0fE>:
_ZN4core3ptr42drop_in_place$LT$allocator..AllocError$GT$17hdddb5ad5a7342a0fE():
  2050b4:	4c000020 	jirl	$r0,$r1,0

00000000002050b8 <_ZN7axalloc15GlobalAllocator5alloc17hb16ded095c2d389eE>:
_ZN7axalloc15GlobalAllocator5alloc17hb16ded095c2d389eE():
  2050b8:	02f98063 	addi.d	$r3,$r3,-416(0xe60)
  2050bc:	29c66061 	st.d	$r1,$r3,408(0x198)
  2050c0:	29c64076 	st.d	$r22,$r3,400(0x190)
  2050c4:	29c62077 	st.d	$r23,$r3,392(0x188)
  2050c8:	29c60078 	st.d	$r24,$r3,384(0x180)
  2050cc:	29c5e079 	st.d	$r25,$r3,376(0x178)
  2050d0:	29c5c07a 	st.d	$r26,$r3,368(0x170)
  2050d4:	29c5a07b 	st.d	$r27,$r3,360(0x168)
  2050d8:	29c5807c 	st.d	$r28,$r3,352(0x160)
  2050dc:	29c5607d 	st.d	$r29,$r3,344(0x158)
  2050e0:	29c5407e 	st.d	$r30,$r3,336(0x150)
  2050e4:	29c5207f 	st.d	$r31,$r3,328(0x148)
  2050e8:	001500b8 	move	$r24,$r5
  2050ec:	29c02064 	st.d	$r4,$r3,8(0x8)
  2050f0:	03801005 	ori	$r5,$r0,0x4
  2050f4:	00150004 	move	$r4,$r0
  2050f8:	29c08065 	st.d	$r5,$r3,32(0x20)
  2050fc:	040000a4 	csrxchg	$r4,$r5,0x0
  205100:	14aaaaa4 	lu12i.w	$r4,349525(0x55555)
  205104:	03955484 	ori	$r4,$r4,0x555
  205108:	16aaaaa4 	lu32i.d	$r4,349525(0x55555)
  20510c:	03155484 	lu52i.d	$r4,$r4,1365(0x555)
  205110:	004504c5 	srli.d	$r5,$r6,0x1
  205114:	001490a4 	and	$r4,$r5,$r4
  205118:	001190c4 	sub.d	$r4,$r6,$r4
  20511c:	14666665 	lu12i.w	$r5,209715(0x33333)
  205120:	038ccca5 	ori	$r5,$r5,0x333
  205124:	16666665 	lu32i.d	$r5,209715(0x33333)
  205128:	030ccca5 	lu52i.d	$r5,$r5,819(0x333)
  20512c:	00149487 	and	$r7,$r4,$r5
  205130:	00450884 	srli.d	$r4,$r4,0x2
  205134:	00149484 	and	$r4,$r4,$r5
  205138:	03200005 	lu52i.d	$r5,$r0,-2048(0x800)
  20513c:	29c04066 	st.d	$r6,$r3,16(0x10)
  205140:	001198bd 	sub.d	$r29,$r5,$r6
  205144:	001090e4 	add.d	$r4,$r7,$r4
  205148:	00451085 	srli.d	$r5,$r4,0x4
  20514c:	00109484 	add.d	$r4,$r4,$r5
  205150:	141e1e05 	lu12i.w	$r5,61680(0xf0f0)
  205154:	03bc3ca5 	ori	$r5,$r5,0xf0f
  205158:	17e1e1e5 	lu32i.d	$r5,-61681(0xf0f0f)
  20515c:	0303c0a5 	lu52i.d	$r5,$r5,240(0xf0)
  205160:	00149484 	and	$r4,$r4,$r5
  205164:	14020205 	lu12i.w	$r5,4112(0x1010)
  205168:	038404a5 	ori	$r5,$r5,0x101
  20516c:	16202025 	lu32i.d	$r5,65793(0x10101)
  205170:	030040a5 	lu52i.d	$r5,$r5,16(0x10)
  205174:	001d9484 	mul.d	$r4,$r4,$r5
  205178:	0045e09e 	srli.d	$r30,$r4,0x38
  20517c:	1a000aa4 	pcalau12i	$r4,85(0x55)
  205180:	02c0009c 	addi.d	$r28,$r4,0
  205184:	0380041f 	ori	$r31,$r0,0x1
  205188:	02bffc16 	addi.w	$r22,$r0,-1(0xfff)
  20518c:	02c32079 	addi.d	$r25,$r3,200(0xc8)
  205190:	1a000ee4 	pcalau12i	$r4,119(0x77)
  205194:	02d12084 	addi.d	$r4,$r4,1096(0x448)
  205198:	29c06064 	st.d	$r4,$r3,24(0x18)
  20519c:	50015400 	b	340(0x154) # 2052f0 <_ZN7axalloc15GlobalAllocator5alloc17hb16ded095c2d389eE+0x238>
  2051a0:	02c14065 	addi.d	$r5,$r3,80(0x50)
  2051a4:	29c10065 	st.d	$r5,$r3,64(0x40)
  2051a8:	1a000145 	pcalau12i	$r5,10(0xa)
  2051ac:	02c320a5 	addi.d	$r5,$r5,200(0xc8)
  2051b0:	29c12065 	st.d	$r5,$r3,72(0x48)
  2051b4:	29c0e065 	st.d	$r5,$r3,56(0x38)
  2051b8:	02c0a065 	addi.d	$r5,$r3,40(0x28)
  2051bc:	29c0c065 	st.d	$r5,$r3,48(0x30)
  2051c0:	0010e884 	add.d	$r4,$r4,$r26
  2051c4:	29c14064 	st.d	$r4,$r3,80(0x50)
  2051c8:	03808004 	ori	$r4,$r0,0x20
  2051cc:	16000084 	lu32i.d	$r4,4(0x4)
  2051d0:	29c2e064 	st.d	$r4,$r3,184(0xb8)
  2051d4:	29c20064 	st.d	$r4,$r3,128(0x80)
  2051d8:	03800c04 	ori	$r4,$r0,0x3
  2051dc:	29030064 	st.b	$r4,$r3,192(0xc0)
  2051e0:	29c2c07f 	st.d	$r31,$r3,176(0xb0)
  2051e4:	03800805 	ori	$r5,$r0,0x2
  2051e8:	29c28065 	st.d	$r5,$r3,160(0xa0)
  2051ec:	29c24065 	st.d	$r5,$r3,144(0x90)
  2051f0:	29022064 	st.b	$r4,$r3,136(0x88)
  2051f4:	29c1e060 	st.d	$r0,$r3,120(0x78)
  2051f8:	29c1a065 	st.d	$r5,$r3,104(0x68)
  2051fc:	29c16065 	st.d	$r5,$r3,88(0x58)
  205200:	1a000ee6 	pcalau12i	$r6,119(0x77)
  205204:	02d100c6 	addi.d	$r6,$r6,1088(0x440)
  205208:	28c000c6 	ld.d	$r6,$r6,0
  20520c:	38720000 	dbar	0x0
  205210:	1a000267 	pcalau12i	$r7,19(0x13)
  205214:	02d300e7 	addi.d	$r7,$r7,1216(0x4c0)
  205218:	28c000e7 	ld.d	$r7,$r7,0
  20521c:	02c16068 	addi.d	$r8,$r3,88(0x58)
  205220:	29c4e068 	st.d	$r8,$r3,312(0x138)
  205224:	29c50065 	st.d	$r5,$r3,320(0x140)
  205228:	29c4c065 	st.d	$r5,$r3,304(0x130)
  20522c:	02c0c065 	addi.d	$r5,$r3,48(0x30)
  205230:	29c4a065 	st.d	$r5,$r3,296(0x128)
  205234:	29c48064 	st.d	$r4,$r3,288(0x120)
  205238:	1a000244 	pcalau12i	$r4,18(0x12)
  20523c:	02d4e084 	addi.d	$r4,$r4,1336(0x538)
  205240:	29c46064 	st.d	$r4,$r3,280(0x118)
  205244:	28c08064 	ld.d	$r4,$r3,32(0x20)
  205248:	29c3e064 	st.d	$r4,$r3,248(0xf8)
  20524c:	001503e4 	move	$r4,$r31
  205250:	16000b44 	lu32i.d	$r4,90(0x5a)
  205254:	29c44064 	st.d	$r4,$r3,272(0x110)
  205258:	03806804 	ori	$r4,$r0,0x1a
  20525c:	29c3c064 	st.d	$r4,$r3,240(0xf0)
  205260:	1a0001e4 	pcalau12i	$r4,15(0xf)
  205264:	02d97884 	addi.d	$r4,$r4,1630(0x65e)
  205268:	29c3a064 	st.d	$r4,$r3,232(0xe8)
  20526c:	03801c04 	ori	$r4,$r0,0x7
  205270:	29c42064 	st.d	$r4,$r3,264(0x108)
  205274:	29c36064 	st.d	$r4,$r3,216(0xd8)
  205278:	1a0001e4 	pcalau12i	$r4,15(0xf)
  20527c:	02dacc84 	addi.d	$r4,$r4,1715(0x6b3)
  205280:	29c40064 	st.d	$r4,$r3,256(0x100)
  205284:	29c34064 	st.d	$r4,$r3,208(0xd0)
  205288:	29c38060 	st.d	$r0,$r3,224(0xe0)
  20528c:	29c32060 	st.d	$r0,$r3,200(0xc8)
  205290:	02fff8c4 	addi.d	$r4,$r6,-2(0xffe)
  205294:	02400485 	sltui	$r5,$r4,1(0x1)
  205298:	1a000224 	pcalau12i	$r4,17(0x11)
  20529c:	02fa1484 	addi.d	$r4,$r4,-379(0xe85)
  2052a0:	00139484 	masknez	$r4,$r4,$r5
  2052a4:	1a000226 	pcalau12i	$r6,17(0x11)
  2052a8:	02c420c6 	addi.d	$r6,$r6,264(0x108)
  2052ac:	001314c6 	maskeqz	$r6,$r6,$r5
  2052b0:	001510c4 	or	$r4,$r6,$r4
  2052b4:	1a000266 	pcalau12i	$r6,19(0x13)
  2052b8:	02d220c6 	addi.d	$r6,$r6,1160(0x488)
  2052bc:	001394c6 	masknez	$r6,$r6,$r5
  2052c0:	001314e5 	maskeqz	$r5,$r7,$r5
  2052c4:	001518a5 	or	$r5,$r5,$r6
  2052c8:	28c0a0a6 	ld.d	$r6,$r5,40(0x28)
  2052cc:	02c32065 	addi.d	$r5,$r3,200(0xc8)
  2052d0:	4c0000c1 	jirl	$r1,$r6,0
  2052d4:	28c0a065 	ld.d	$r5,$r3,40(0x28)
  2052d8:	14000444 	lu12i.w	$r4,34(0x22)
  2052dc:	03890084 	ori	$r4,$r4,0x240
  2052e0:	001502fc 	move	$r28,$r23
  2052e4:	001092e4 	add.d	$r4,$r23,$r4
  2052e8:	00150346 	move	$r6,$r26
  2052ec:	57d317ff 	bl	-11500(0xfffd314) # 202600 <_ZN79_$LT$allocator..slab..SlabByteAllocator$u20$as$u20$allocator..BaseAllocator$GT$10add_memory17h19bb287852dd1bf0E>
  2052f0:	14000444 	lu12i.w	$r4,34(0x22)
  2052f4:	03890084 	ori	$r4,$r4,0x240
  2052f8:	380c1384 	ldx.d	$r4,$r28,$r4
  2052fc:	401a9c80 	beqz	$r4,6812(0x1a9c) # 206d98 <_ZN7axalloc15GlobalAllocator5alloc17hb16ded095c2d389eE+0x1ce0>
  205300:	5c1ab7df 	bne	$r30,$r31,6836(0x1ab4) # 206db4 <_ZN7axalloc15GlobalAllocator5alloc17hb16ded095c2d389eE+0x1cfc>
  205304:	681ab3b8 	bltu	$r29,$r24,6832(0x1ab0) # 206db4 <_ZN7axalloc15GlobalAllocator5alloc17hb16ded095c2d389eE+0x1cfc>
  205308:	14000024 	lu12i.w	$r4,1(0x1)
  20530c:	6c001898 	bgeu	$r4,$r24,24(0x18) # 205324 <_ZN7axalloc15GlobalAllocator5alloc17hb16ded095c2d389eE+0x26c>
  205310:	28c04064 	ld.d	$r4,$r3,16(0x10)
  205314:	00150305 	move	$r5,$r24
  205318:	54e0c800 	bl	57544(0xe0c8) # 2133e0 <_ZN22buddy_system_allocator13Heap$LT$_$GT$5alloc17h29bce00c87d0ae43E>
  20531c:	40014c80 	beqz	$r4,332(0x14c) # 205468 <_ZN7axalloc15GlobalAllocator5alloc17hb16ded095c2d389eE+0x3b0>
  205320:	50029000 	b	656(0x290) # 2055b0 <_ZN7axalloc15GlobalAllocator5alloc17hb16ded095c2d389eE+0x4f8>
  205324:	03810404 	ori	$r4,$r0,0x41
  205328:	6c002f04 	bgeu	$r24,$r4,44(0x2c) # 205354 <_ZN7axalloc15GlobalAllocator5alloc17hb16ded095c2d389eE+0x29c>
  20532c:	14000444 	lu12i.w	$r4,34(0x22)
  205330:	03894085 	ori	$r5,$r4,0x250
  205334:	380c1784 	ldx.d	$r4,$r28,$r5
  205338:	381c1780 	stx.d	$r0,$r28,$r5
  20533c:	44028080 	bnez	$r4,640(0x280) # 2055bc <_ZN7axalloc15GlobalAllocator5alloc17hb16ded095c2d389eE+0x504>
  205340:	14000024 	lu12i.w	$r4,1(0x1)
  205344:	00150085 	move	$r5,$r4
  205348:	54e09800 	bl	57496(0xe098) # 2133e0 <_ZN22buddy_system_allocator13Heap$LT$_$GT$5alloc17h29bce00c87d0ae43E>
  20534c:	40011c80 	beqz	$r4,284(0x11c) # 205468 <_ZN7axalloc15GlobalAllocator5alloc17hb16ded095c2d389eE+0x3b0>
  205350:	50029000 	b	656(0x290) # 2055e0 <_ZN7axalloc15GlobalAllocator5alloc17hb16ded095c2d389eE+0x528>
  205354:	03820404 	ori	$r4,$r0,0x81
  205358:	6c002f04 	bgeu	$r24,$r4,44(0x2c) # 205384 <_ZN7axalloc15GlobalAllocator5alloc17hb16ded095c2d389eE+0x2cc>
  20535c:	14000444 	lu12i.w	$r4,34(0x22)
  205360:	0389a085 	ori	$r5,$r4,0x268
  205364:	380c1784 	ldx.d	$r4,$r28,$r5
  205368:	381c1780 	stx.d	$r0,$r28,$r5
  20536c:	44055880 	bnez	$r4,1368(0x558) # 2058c4 <_ZN7axalloc15GlobalAllocator5alloc17hb16ded095c2d389eE+0x80c>
  205370:	14000024 	lu12i.w	$r4,1(0x1)
  205374:	14000045 	lu12i.w	$r5,2(0x2)
  205378:	54e06800 	bl	57448(0xe068) # 2133e0 <_ZN22buddy_system_allocator13Heap$LT$_$GT$5alloc17h29bce00c87d0ae43E>
  20537c:	4000ec80 	beqz	$r4,236(0xec) # 205468 <_ZN7axalloc15GlobalAllocator5alloc17hb16ded095c2d389eE+0x3b0>
  205380:	50056800 	b	1384(0x568) # 2058e8 <_ZN7axalloc15GlobalAllocator5alloc17hb16ded095c2d389eE+0x830>
  205384:	03840404 	ori	$r4,$r0,0x101
  205388:	6c002f04 	bgeu	$r24,$r4,44(0x2c) # 2053b4 <_ZN7axalloc15GlobalAllocator5alloc17hb16ded095c2d389eE+0x2fc>
  20538c:	14000444 	lu12i.w	$r4,34(0x22)
  205390:	038a0085 	ori	$r5,$r4,0x280
  205394:	380c1784 	ldx.d	$r4,$r28,$r5
  205398:	381c1780 	stx.d	$r0,$r28,$r5
  20539c:	44086c80 	bnez	$r4,2156(0x86c) # 205c08 <_ZN7axalloc15GlobalAllocator5alloc17hb16ded095c2d389eE+0xb50>
  2053a0:	14000024 	lu12i.w	$r4,1(0x1)
  2053a4:	14000085 	lu12i.w	$r5,4(0x4)
  2053a8:	54e03800 	bl	57400(0xe038) # 2133e0 <_ZN22buddy_system_allocator13Heap$LT$_$GT$5alloc17h29bce00c87d0ae43E>
  2053ac:	4000bc80 	beqz	$r4,188(0xbc) # 205468 <_ZN7axalloc15GlobalAllocator5alloc17hb16ded095c2d389eE+0x3b0>
  2053b0:	50087c00 	b	2172(0x87c) # 205c2c <_ZN7axalloc15GlobalAllocator5alloc17hb16ded095c2d389eE+0xb74>
  2053b4:	03880404 	ori	$r4,$r0,0x201
  2053b8:	6c002f04 	bgeu	$r24,$r4,44(0x2c) # 2053e4 <_ZN7axalloc15GlobalAllocator5alloc17hb16ded095c2d389eE+0x32c>
  2053bc:	14000444 	lu12i.w	$r4,34(0x22)
  2053c0:	038a6085 	ori	$r5,$r4,0x298
  2053c4:	380c1784 	ldx.d	$r4,$r28,$r5
  2053c8:	381c1780 	stx.d	$r0,$r28,$r5
  2053cc:	440ba080 	bnez	$r4,2976(0xba0) # 205f6c <_ZN7axalloc15GlobalAllocator5alloc17hb16ded095c2d389eE+0xeb4>
  2053d0:	14000024 	lu12i.w	$r4,1(0x1)
  2053d4:	14000105 	lu12i.w	$r5,8(0x8)
  2053d8:	54e00800 	bl	57352(0xe008) # 2133e0 <_ZN22buddy_system_allocator13Heap$LT$_$GT$5alloc17h29bce00c87d0ae43E>
  2053dc:	40008c80 	beqz	$r4,140(0x8c) # 205468 <_ZN7axalloc15GlobalAllocator5alloc17hb16ded095c2d389eE+0x3b0>
  2053e0:	500bb000 	b	2992(0xbb0) # 205f90 <_ZN7axalloc15GlobalAllocator5alloc17hb16ded095c2d389eE+0xed8>
  2053e4:	03900404 	ori	$r4,$r0,0x401
  2053e8:	6c002f04 	bgeu	$r24,$r4,44(0x2c) # 205414 <_ZN7axalloc15GlobalAllocator5alloc17hb16ded095c2d389eE+0x35c>
  2053ec:	14000444 	lu12i.w	$r4,34(0x22)
  2053f0:	038ac085 	ori	$r5,$r4,0x2b0
  2053f4:	380c1784 	ldx.d	$r4,$r28,$r5
  2053f8:	381c1780 	stx.d	$r0,$r28,$r5
  2053fc:	440ee480 	bnez	$r4,3812(0xee4) # 2062e0 <_ZN7axalloc15GlobalAllocator5alloc17hb16ded095c2d389eE+0x1228>
  205400:	14000024 	lu12i.w	$r4,1(0x1)
  205404:	14000205 	lu12i.w	$r5,16(0x10)
  205408:	54dfd800 	bl	57304(0xdfd8) # 2133e0 <_ZN22buddy_system_allocator13Heap$LT$_$GT$5alloc17h29bce00c87d0ae43E>
  20540c:	40005c80 	beqz	$r4,92(0x5c) # 205468 <_ZN7axalloc15GlobalAllocator5alloc17hb16ded095c2d389eE+0x3b0>
  205410:	500ef400 	b	3828(0xef4) # 206304 <_ZN7axalloc15GlobalAllocator5alloc17hb16ded095c2d389eE+0x124c>
  205414:	03a0001a 	ori	$r26,$r0,0x800
  205418:	6c002f58 	bgeu	$r26,$r24,44(0x2c) # 205444 <_ZN7axalloc15GlobalAllocator5alloc17hb16ded095c2d389eE+0x38c>
  20541c:	14000444 	lu12i.w	$r4,34(0x22)
  205420:	038b8085 	ori	$r5,$r4,0x2e0
  205424:	380c1784 	ldx.d	$r4,$r28,$r5
  205428:	381c1780 	stx.d	$r0,$r28,$r5
  20542c:	44123080 	bnez	$r4,4656(0x1230) # 20665c <_ZN7axalloc15GlobalAllocator5alloc17hb16ded095c2d389eE+0x15a4>
  205430:	14000024 	lu12i.w	$r4,1(0x1)
  205434:	14000805 	lu12i.w	$r5,64(0x40)
  205438:	54dfa800 	bl	57256(0xdfa8) # 2133e0 <_ZN22buddy_system_allocator13Heap$LT$_$GT$5alloc17h29bce00c87d0ae43E>
  20543c:	40002c80 	beqz	$r4,44(0x2c) # 205468 <_ZN7axalloc15GlobalAllocator5alloc17hb16ded095c2d389eE+0x3b0>
  205440:	50126400 	b	4708(0x1264) # 2066a4 <_ZN7axalloc15GlobalAllocator5alloc17hb16ded095c2d389eE+0x15ec>
  205444:	14000444 	lu12i.w	$r4,34(0x22)
  205448:	038b2085 	ori	$r5,$r4,0x2c8
  20544c:	380c1784 	ldx.d	$r4,$r28,$r5
  205450:	381c1780 	stx.d	$r0,$r28,$r5
  205454:	44122c80 	bnez	$r4,4652(0x122c) # 206680 <_ZN7axalloc15GlobalAllocator5alloc17hb16ded095c2d389eE+0x15c8>
  205458:	14000024 	lu12i.w	$r4,1(0x1)
  20545c:	14000405 	lu12i.w	$r5,32(0x20)
  205460:	54df8000 	bl	57216(0xdf80) # 2133e0 <_ZN22buddy_system_allocator13Heap$LT$_$GT$5alloc17h29bce00c87d0ae43E>
  205464:	44159880 	bnez	$r4,5528(0x1598) # 2069fc <_ZN7axalloc15GlobalAllocator5alloc17hb16ded095c2d389eE+0x1944>
  205468:	14000444 	lu12i.w	$r4,34(0x22)
  20546c:	03890084 	ori	$r4,$r4,0x240
  205470:	380c1384 	ldx.d	$r4,$r28,$r4
  205474:	40196880 	beqz	$r4,6504(0x1968) # 206ddc <_ZN7axalloc15GlobalAllocator5alloc17hb16ded095c2d389eE+0x1d24>
  205478:	14000444 	lu12i.w	$r4,34(0x22)
  20547c:	03892084 	ori	$r4,$r4,0x248
  205480:	00150397 	move	$r23,$r28
  205484:	00109384 	add.d	$r4,$r28,$r4
  205488:	28c04085 	ld.d	$r5,$r4,16(0x10)
  20548c:	004118a5 	slli.d	$r5,$r5,0x6
  205490:	28c0a086 	ld.d	$r6,$r4,40(0x28)
  205494:	00411cc6 	slli.d	$r6,$r6,0x7
  205498:	001094c5 	add.d	$r5,$r6,$r5
  20549c:	28c10086 	ld.d	$r6,$r4,64(0x40)
  2054a0:	004120c6 	slli.d	$r6,$r6,0x8
  2054a4:	001098a5 	add.d	$r5,$r5,$r6
  2054a8:	28c16086 	ld.d	$r6,$r4,88(0x58)
  2054ac:	004124c6 	slli.d	$r6,$r6,0x9
  2054b0:	001098a5 	add.d	$r5,$r5,$r6
  2054b4:	28c1c086 	ld.d	$r6,$r4,112(0x70)
  2054b8:	004128c6 	slli.d	$r6,$r6,0xa
  2054bc:	001098a5 	add.d	$r5,$r5,$r6
  2054c0:	28c22086 	ld.d	$r6,$r4,136(0x88)
  2054c4:	00412cc6 	slli.d	$r6,$r6,0xb
  2054c8:	001098a5 	add.d	$r5,$r5,$r6
  2054cc:	28c28086 	ld.d	$r6,$r4,160(0xa0)
  2054d0:	004130c6 	slli.d	$r6,$r6,0xc
  2054d4:	001098a5 	add.d	$r5,$r5,$r6
  2054d8:	28c6e084 	ld.d	$r4,$r4,440(0x1b8)
  2054dc:	001090a4 	add.d	$r4,$r5,$r4
  2054e0:	00150005 	move	$r5,$r0
  2054e4:	28c0807c 	ld.d	$r28,$r3,32(0x20)
  2054e8:	04000385 	csrxchg	$r5,$r28,0x0
  2054ec:	00129305 	sltu	$r5,$r24,$r4
  2054f0:	00131484 	maskeqz	$r4,$r4,$r5
  2054f4:	00139705 	masknez	$r5,$r24,$r5
  2054f8:	00151484 	or	$r4,$r4,$r5
  2054fc:	02fffc85 	addi.d	$r5,$r4,-1(0xfff)
  205500:	000024a5 	clz.d	$r5,$r5
  205504:	001916c5 	srl.d	$r5,$r22,$r5
  205508:	02c004a5 	addi.d	$r5,$r5,1(0x1)
  20550c:	14000026 	lu12i.w	$r6,1(0x1)
  205510:	001294c7 	sltu	$r7,$r6,$r5
  205514:	00131ca5 	maskeqz	$r5,$r5,$r7
  205518:	00139cc7 	masknez	$r7,$r6,$r7
  20551c:	00151ca5 	or	$r5,$r5,$r7
  205520:	001293e4 	sltu	$r4,$r31,$r4
  205524:	001310a5 	maskeqz	$r5,$r5,$r4
  205528:	001390c4 	masknez	$r4,$r6,$r4
  20552c:	001510ba 	or	$r26,$r5,$r4
  205530:	00453345 	srli.d	$r5,$r26,0xc
  205534:	00150324 	move	$r4,$r25
  205538:	57f277ff 	bl	-3468(0xffff274) # 2047ac <_ZN92_$LT$allocator..bitmap..BitmapPageAllocator$LT$_$GT$$u20$as$u20$allocator..PageAllocator$GT$11alloc_pages17hf34805857cf55369E>
  20553c:	00150384 	move	$r4,$r28
  205540:	04000384 	csrxchg	$r4,$r28,0x0
  205544:	2a032066 	ld.bu	$r6,$r3,200(0xc8)
  205548:	024004c5 	sltui	$r5,$r6,1(0x1)
  20554c:	00139764 	masknez	$r4,$r27,$r5
  205550:	28c3407b 	ld.d	$r27,$r3,208(0xd0)
  205554:	00131765 	maskeqz	$r5,$r27,$r5
  205558:	440040c0 	bnez	$r6,64(0x40) # 205598 <_ZN7axalloc15GlobalAllocator5alloc17hb16ded095c2d389eE+0x4e0>
  20555c:	001510a4 	or	$r4,$r5,$r4
  205560:	29c0a064 	st.d	$r4,$r3,40(0x28)
  205564:	28c06065 	ld.d	$r5,$r3,24(0x18)
  205568:	28c000a5 	ld.d	$r5,$r5,0
  20556c:	00129786 	sltu	$r6,$r28,$r5
  205570:	02fff0a5 	addi.d	$r5,$r5,-4(0xffc)
  205574:	00129405 	sltu	$r5,$r0,$r5
  205578:	001398a5 	masknez	$r5,$r5,$r6
  20557c:	00131ac6 	maskeqz	$r6,$r22,$r6
  205580:	001514c5 	or	$r5,$r6,$r5
  205584:	5bfc1cb6 	beq	$r5,$r22,-996(0x3fc1c) # 2051a0 <_ZN7axalloc15GlobalAllocator5alloc17hb16ded095c2d389eE+0xe8>
  205588:	0343fca6 	andi	$r6,$r5,0xff
  20558c:	00150365 	move	$r5,$r27
  205590:	43fc10df 	beqz	$r6,-1008(0x7ffc10) # 2051a0 <_ZN7axalloc15GlobalAllocator5alloc17hb16ded095c2d389eE+0xe8>
  205594:	53fd47ff 	b	-700(0xffffd44) # 2052d8 <_ZN7axalloc15GlobalAllocator5alloc17hb16ded095c2d389eE+0x220>
  205598:	28032464 	ld.b	$r4,$r3,201(0xc9)
  20559c:	28c02065 	ld.d	$r5,$r3,8(0x8)
  2055a0:	290000bf 	st.b	$r31,$r5,0
  2055a4:	290004a4 	st.b	$r4,$r5,1(0x1)
  2055a8:	00150388 	move	$r8,$r28
  2055ac:	5017b000 	b	6064(0x17b0) # 206d5c <_ZN7axalloc15GlobalAllocator5alloc17hb16ded095c2d389eE+0x1ca4>
  2055b0:	28c08068 	ld.d	$r8,$r3,32(0x20)
  2055b4:	28c02069 	ld.d	$r9,$r3,8(0x8)
  2055b8:	50179c00 	b	6044(0x179c) # 206d54 <_ZN7axalloc15GlobalAllocator5alloc17hb16ded095c2d389eE+0x1c9c>
  2055bc:	28c00085 	ld.d	$r5,$r4,0
  2055c0:	29c00080 	st.d	$r0,$r4,0
  2055c4:	14000446 	lu12i.w	$r6,34(0x22)
  2055c8:	038920c6 	ori	$r6,$r6,0x248
  2055cc:	00109b87 	add.d	$r7,$r28,$r6
  2055d0:	29c020e5 	st.d	$r5,$r7,8(0x8)
  2055d4:	380c1b85 	ldx.d	$r5,$r28,$r6
  2055d8:	02fffca7 	addi.d	$r7,$r5,-1(0xfff)
  2055dc:	5002d000 	b	720(0x2d0) # 2058ac <_ZN7axalloc15GlobalAllocator5alloc17hb16ded095c2d389eE+0x7f4>
  2055e0:	00150085 	move	$r5,$r4
  2055e4:	14000444 	lu12i.w	$r4,34(0x22)
  2055e8:	03892084 	ori	$r4,$r4,0x248
  2055ec:	00109386 	add.d	$r6,$r28,$r4
  2055f0:	28c040c7 	ld.d	$r7,$r6,16(0x10)
  2055f4:	02c100e7 	addi.d	$r7,$r7,64(0x40)
  2055f8:	29c040c7 	st.d	$r7,$r6,16(0x10)
  2055fc:	03bf0007 	ori	$r7,$r0,0xfc0
  205600:	00109ca7 	add.d	$r7,$r5,$r7
  205604:	270f80a7 	stptr.d	$r7,$r5,3968(0xf80)
  205608:	270fc0a0 	stptr.d	$r0,$r5,4032(0xfc0)
  20560c:	03be0007 	ori	$r7,$r0,0xf80
  205610:	00109ca7 	add.d	$r7,$r5,$r7
  205614:	270f40a7 	stptr.d	$r7,$r5,3904(0xf40)
  205618:	03bd0007 	ori	$r7,$r0,0xf40
  20561c:	00109ca7 	add.d	$r7,$r5,$r7
  205620:	270f00a7 	stptr.d	$r7,$r5,3840(0xf00)
  205624:	03bc0007 	ori	$r7,$r0,0xf00
  205628:	00109ca7 	add.d	$r7,$r5,$r7
  20562c:	270ec0a7 	stptr.d	$r7,$r5,3776(0xec0)
  205630:	03bb0007 	ori	$r7,$r0,0xec0
  205634:	00109ca7 	add.d	$r7,$r5,$r7
  205638:	270e80a7 	stptr.d	$r7,$r5,3712(0xe80)
  20563c:	03ba0007 	ori	$r7,$r0,0xe80
  205640:	00109ca7 	add.d	$r7,$r5,$r7
  205644:	270e40a7 	stptr.d	$r7,$r5,3648(0xe40)
  205648:	03b90007 	ori	$r7,$r0,0xe40
  20564c:	00109ca7 	add.d	$r7,$r5,$r7
  205650:	270e00a7 	stptr.d	$r7,$r5,3584(0xe00)
  205654:	03b80007 	ori	$r7,$r0,0xe00
  205658:	00109ca7 	add.d	$r7,$r5,$r7
  20565c:	270dc0a7 	stptr.d	$r7,$r5,3520(0xdc0)
  205660:	03b70007 	ori	$r7,$r0,0xdc0
  205664:	00109ca7 	add.d	$r7,$r5,$r7
  205668:	270d80a7 	stptr.d	$r7,$r5,3456(0xd80)
  20566c:	03b60007 	ori	$r7,$r0,0xd80
  205670:	00109ca7 	add.d	$r7,$r5,$r7
  205674:	270d40a7 	stptr.d	$r7,$r5,3392(0xd40)
  205678:	03b50007 	ori	$r7,$r0,0xd40
  20567c:	00109ca7 	add.d	$r7,$r5,$r7
  205680:	270d00a7 	stptr.d	$r7,$r5,3328(0xd00)
  205684:	03b40007 	ori	$r7,$r0,0xd00
  205688:	00109ca7 	add.d	$r7,$r5,$r7
  20568c:	270cc0a7 	stptr.d	$r7,$r5,3264(0xcc0)
  205690:	03b30007 	ori	$r7,$r0,0xcc0
  205694:	00109ca7 	add.d	$r7,$r5,$r7
  205698:	270c80a7 	stptr.d	$r7,$r5,3200(0xc80)
  20569c:	03b20007 	ori	$r7,$r0,0xc80
  2056a0:	00109ca7 	add.d	$r7,$r5,$r7
  2056a4:	270c40a7 	stptr.d	$r7,$r5,3136(0xc40)
  2056a8:	03b10007 	ori	$r7,$r0,0xc40
  2056ac:	00109ca7 	add.d	$r7,$r5,$r7
  2056b0:	270c00a7 	stptr.d	$r7,$r5,3072(0xc00)
  2056b4:	03b00007 	ori	$r7,$r0,0xc00
  2056b8:	00109ca7 	add.d	$r7,$r5,$r7
  2056bc:	270bc0a7 	stptr.d	$r7,$r5,3008(0xbc0)
  2056c0:	03af0007 	ori	$r7,$r0,0xbc0
  2056c4:	00109ca7 	add.d	$r7,$r5,$r7
  2056c8:	270b80a7 	stptr.d	$r7,$r5,2944(0xb80)
  2056cc:	03ae0007 	ori	$r7,$r0,0xb80
  2056d0:	00109ca7 	add.d	$r7,$r5,$r7
  2056d4:	270b40a7 	stptr.d	$r7,$r5,2880(0xb40)
  2056d8:	03ac0007 	ori	$r7,$r0,0xb00
  2056dc:	00109ca7 	add.d	$r7,$r5,$r7
  2056e0:	270ac0a7 	stptr.d	$r7,$r5,2752(0xac0)
  2056e4:	03ad0007 	ori	$r7,$r0,0xb40
  2056e8:	00109ca7 	add.d	$r7,$r5,$r7
  2056ec:	270b00a7 	stptr.d	$r7,$r5,2816(0xb00)
  2056f0:	03ab0007 	ori	$r7,$r0,0xac0
  2056f4:	00109ca7 	add.d	$r7,$r5,$r7
  2056f8:	270a80a7 	stptr.d	$r7,$r5,2688(0xa80)
  2056fc:	03aa0007 	ori	$r7,$r0,0xa80
  205700:	00109ca7 	add.d	$r7,$r5,$r7
  205704:	270a40a7 	stptr.d	$r7,$r5,2624(0xa40)
  205708:	03a90007 	ori	$r7,$r0,0xa40
  20570c:	00109ca7 	add.d	$r7,$r5,$r7
  205710:	270a00a7 	stptr.d	$r7,$r5,2560(0xa00)
  205714:	03a80007 	ori	$r7,$r0,0xa00
  205718:	00109ca7 	add.d	$r7,$r5,$r7
  20571c:	2709c0a7 	stptr.d	$r7,$r5,2496(0x9c0)
  205720:	03a70007 	ori	$r7,$r0,0x9c0
  205724:	00109ca7 	add.d	$r7,$r5,$r7
  205728:	270980a7 	stptr.d	$r7,$r5,2432(0x980)
  20572c:	03a60007 	ori	$r7,$r0,0x980
  205730:	00109ca7 	add.d	$r7,$r5,$r7
  205734:	270940a7 	stptr.d	$r7,$r5,2368(0x940)
  205738:	03a50007 	ori	$r7,$r0,0x940
  20573c:	00109ca7 	add.d	$r7,$r5,$r7
  205740:	270900a7 	stptr.d	$r7,$r5,2304(0x900)
  205744:	03a40007 	ori	$r7,$r0,0x900
  205748:	00109ca7 	add.d	$r7,$r5,$r7
  20574c:	2708c0a7 	stptr.d	$r7,$r5,2240(0x8c0)
  205750:	03a30007 	ori	$r7,$r0,0x8c0
  205754:	00109ca7 	add.d	$r7,$r5,$r7
  205758:	270880a7 	stptr.d	$r7,$r5,2176(0x880)
  20575c:	03a20007 	ori	$r7,$r0,0x880
  205760:	00109ca7 	add.d	$r7,$r5,$r7
  205764:	270840a7 	stptr.d	$r7,$r5,2112(0x840)
  205768:	03a10007 	ori	$r7,$r0,0x840
  20576c:	00109ca7 	add.d	$r7,$r5,$r7
  205770:	270800a7 	stptr.d	$r7,$r5,2048(0x800)
  205774:	03a00007 	ori	$r7,$r0,0x800
  205778:	00109ca7 	add.d	$r7,$r5,$r7
  20577c:	29df00a7 	st.d	$r7,$r5,1984(0x7c0)
  205780:	02df00a7 	addi.d	$r7,$r5,1984(0x7c0)
  205784:	29de00a7 	st.d	$r7,$r5,1920(0x780)
  205788:	02de00a7 	addi.d	$r7,$r5,1920(0x780)
  20578c:	29dd00a7 	st.d	$r7,$r5,1856(0x740)
  205790:	02dd00a7 	addi.d	$r7,$r5,1856(0x740)
  205794:	29dc00a7 	st.d	$r7,$r5,1792(0x700)
  205798:	02dc00a7 	addi.d	$r7,$r5,1792(0x700)
  20579c:	29db00a7 	st.d	$r7,$r5,1728(0x6c0)
  2057a0:	02db00a7 	addi.d	$r7,$r5,1728(0x6c0)
  2057a4:	29da00a7 	st.d	$r7,$r5,1664(0x680)
  2057a8:	02da00a7 	addi.d	$r7,$r5,1664(0x680)
  2057ac:	29d900a7 	st.d	$r7,$r5,1600(0x640)
  2057b0:	02d900a7 	addi.d	$r7,$r5,1600(0x640)
  2057b4:	29d800a7 	st.d	$r7,$r5,1536(0x600)
  2057b8:	02d800a7 	addi.d	$r7,$r5,1536(0x600)
  2057bc:	29d700a7 	st.d	$r7,$r5,1472(0x5c0)
  2057c0:	02d700a7 	addi.d	$r7,$r5,1472(0x5c0)
  2057c4:	29d600a7 	st.d	$r7,$r5,1408(0x580)
  2057c8:	02d600a7 	addi.d	$r7,$r5,1408(0x580)
  2057cc:	29d500a7 	st.d	$r7,$r5,1344(0x540)
  2057d0:	02d500a7 	addi.d	$r7,$r5,1344(0x540)
  2057d4:	29d400a7 	st.d	$r7,$r5,1280(0x500)
  2057d8:	02d400a7 	addi.d	$r7,$r5,1280(0x500)
  2057dc:	29d300a7 	st.d	$r7,$r5,1216(0x4c0)
  2057e0:	02d300a7 	addi.d	$r7,$r5,1216(0x4c0)
  2057e4:	29d200a7 	st.d	$r7,$r5,1152(0x480)
  2057e8:	02d200a7 	addi.d	$r7,$r5,1152(0x480)
  2057ec:	29d100a7 	st.d	$r7,$r5,1088(0x440)
  2057f0:	02d100a7 	addi.d	$r7,$r5,1088(0x440)
  2057f4:	29d000a7 	st.d	$r7,$r5,1024(0x400)
  2057f8:	02d000a7 	addi.d	$r7,$r5,1024(0x400)
  2057fc:	29cf00a7 	st.d	$r7,$r5,960(0x3c0)
  205800:	02cf00a7 	addi.d	$r7,$r5,960(0x3c0)
  205804:	29ce00a7 	st.d	$r7,$r5,896(0x380)
  205808:	02ce00a7 	addi.d	$r7,$r5,896(0x380)
  20580c:	29cd00a7 	st.d	$r7,$r5,832(0x340)
  205810:	02cd00a7 	addi.d	$r7,$r5,832(0x340)
  205814:	29cc00a7 	st.d	$r7,$r5,768(0x300)
  205818:	02cc00a7 	addi.d	$r7,$r5,768(0x300)
  20581c:	29cb00a7 	st.d	$r7,$r5,704(0x2c0)
  205820:	02cb00a7 	addi.d	$r7,$r5,704(0x2c0)
  205824:	29ca00a7 	st.d	$r7,$r5,640(0x280)
  205828:	02ca00a7 	addi.d	$r7,$r5,640(0x280)
  20582c:	29c900a7 	st.d	$r7,$r5,576(0x240)
  205830:	02c900a7 	addi.d	$r7,$r5,576(0x240)
  205834:	29c800a7 	st.d	$r7,$r5,512(0x200)
  205838:	02c800a7 	addi.d	$r7,$r5,512(0x200)
  20583c:	29c700a7 	st.d	$r7,$r5,448(0x1c0)
  205840:	02c700a7 	addi.d	$r7,$r5,448(0x1c0)
  205844:	29c600a7 	st.d	$r7,$r5,384(0x180)
  205848:	02c600a7 	addi.d	$r7,$r5,384(0x180)
  20584c:	29c500a7 	st.d	$r7,$r5,320(0x140)
  205850:	02c500a7 	addi.d	$r7,$r5,320(0x140)
  205854:	29c400a7 	st.d	$r7,$r5,256(0x100)
  205858:	02c400a7 	addi.d	$r7,$r5,256(0x100)
  20585c:	29c300a7 	st.d	$r7,$r5,192(0xc0)
  205860:	02c300a7 	addi.d	$r7,$r5,192(0xc0)
  205864:	29c200a7 	st.d	$r7,$r5,128(0x80)
  205868:	02c200a7 	addi.d	$r7,$r5,128(0x80)
  20586c:	29c100a7 	st.d	$r7,$r5,64(0x40)
  205870:	380c1387 	ldx.d	$r7,$r28,$r4
  205874:	28c020c4 	ld.d	$r4,$r6,8(0x8)
  205878:	29c000a4 	st.d	$r4,$r5,0
  20587c:	02c100a8 	addi.d	$r8,$r5,64(0x40)
  205880:	00150104 	move	$r4,$r8
  205884:	001500a6 	move	$r6,$r5
  205888:	28c00108 	ld.d	$r8,$r8,0
  20588c:	29c00085 	st.d	$r5,$r4,0
  205890:	02c004e7 	addi.d	$r7,$r7,1(0x1)
  205894:	00150085 	move	$r5,$r4
  205898:	47ffe91f 	bnez	$r8,-24(0x7fffe8) # 205880 <_ZN7axalloc15GlobalAllocator5alloc17hb16ded095c2d389eE+0x7c8>
  20589c:	29c00080 	st.d	$r0,$r4,0
  2058a0:	14000445 	lu12i.w	$r5,34(0x22)
  2058a4:	038940a5 	ori	$r5,$r5,0x250
  2058a8:	381c1786 	stx.d	$r6,$r28,$r5
  2058ac:	28c08068 	ld.d	$r8,$r3,32(0x20)
  2058b0:	28c02069 	ld.d	$r9,$r3,8(0x8)
  2058b4:	14000445 	lu12i.w	$r5,34(0x22)
  2058b8:	038920a5 	ori	$r5,$r5,0x248
  2058bc:	381c1787 	stx.d	$r7,$r28,$r5
  2058c0:	50149400 	b	5268(0x1494) # 206d54 <_ZN7axalloc15GlobalAllocator5alloc17hb16ded095c2d389eE+0x1c9c>
  2058c4:	28c00085 	ld.d	$r5,$r4,0
  2058c8:	29c00080 	st.d	$r0,$r4,0
  2058cc:	14000446 	lu12i.w	$r6,34(0x22)
  2058d0:	038920c6 	ori	$r6,$r6,0x248
  2058d4:	00109b86 	add.d	$r6,$r28,$r6
  2058d8:	29c080c5 	st.d	$r5,$r6,32(0x20)
  2058dc:	28c060c5 	ld.d	$r5,$r6,24(0x18)
  2058e0:	02fffca6 	addi.d	$r6,$r5,-1(0xfff)
  2058e4:	50031000 	b	784(0x310) # 205bf4 <_ZN7axalloc15GlobalAllocator5alloc17hb16ded095c2d389eE+0xb3c>
  2058e8:	00150085 	move	$r5,$r4
  2058ec:	14000444 	lu12i.w	$r4,34(0x22)
  2058f0:	03892084 	ori	$r4,$r4,0x248
  2058f4:	00109384 	add.d	$r4,$r28,$r4
  2058f8:	28c0a086 	ld.d	$r6,$r4,40(0x28)
  2058fc:	02c100c6 	addi.d	$r6,$r6,64(0x40)
  205900:	29c0a086 	st.d	$r6,$r4,40(0x28)
  205904:	14000026 	lu12i.w	$r6,1(0x1)
  205908:	03be00c7 	ori	$r7,$r6,0xf80
  20590c:	00109ca7 	add.d	$r7,$r5,$r7
  205910:	271f00a7 	stptr.d	$r7,$r5,7936(0x1f00)
  205914:	271f80a0 	stptr.d	$r0,$r5,8064(0x1f80)
  205918:	03bc00c7 	ori	$r7,$r6,0xf00
  20591c:	00109ca7 	add.d	$r7,$r5,$r7
  205920:	271e80a7 	stptr.d	$r7,$r5,7808(0x1e80)
  205924:	03ba00c7 	ori	$r7,$r6,0xe80
  205928:	00109ca7 	add.d	$r7,$r5,$r7
  20592c:	271e00a7 	stptr.d	$r7,$r5,7680(0x1e00)
  205930:	03b800c7 	ori	$r7,$r6,0xe00
  205934:	00109ca7 	add.d	$r7,$r5,$r7
  205938:	271d80a7 	stptr.d	$r7,$r5,7552(0x1d80)
  20593c:	03b600c7 	ori	$r7,$r6,0xd80
  205940:	00109ca7 	add.d	$r7,$r5,$r7
  205944:	271d00a7 	stptr.d	$r7,$r5,7424(0x1d00)
  205948:	03b400c7 	ori	$r7,$r6,0xd00
  20594c:	00109ca7 	add.d	$r7,$r5,$r7
  205950:	271c80a7 	stptr.d	$r7,$r5,7296(0x1c80)
  205954:	03b200c7 	ori	$r7,$r6,0xc80
  205958:	00109ca7 	add.d	$r7,$r5,$r7
  20595c:	271c00a7 	stptr.d	$r7,$r5,7168(0x1c00)
  205960:	03b000c7 	ori	$r7,$r6,0xc00
  205964:	00109ca7 	add.d	$r7,$r5,$r7
  205968:	271b80a7 	stptr.d	$r7,$r5,7040(0x1b80)
  20596c:	03ae00c7 	ori	$r7,$r6,0xb80
  205970:	00109ca7 	add.d	$r7,$r5,$r7
  205974:	271b00a7 	stptr.d	$r7,$r5,6912(0x1b00)
  205978:	03ac00c7 	ori	$r7,$r6,0xb00
  20597c:	00109ca7 	add.d	$r7,$r5,$r7
  205980:	271a80a7 	stptr.d	$r7,$r5,6784(0x1a80)
  205984:	03aa00c7 	ori	$r7,$r6,0xa80
  205988:	00109ca7 	add.d	$r7,$r5,$r7
  20598c:	271a00a7 	stptr.d	$r7,$r5,6656(0x1a00)
  205990:	03a800c7 	ori	$r7,$r6,0xa00
  205994:	00109ca7 	add.d	$r7,$r5,$r7
  205998:	271980a7 	stptr.d	$r7,$r5,6528(0x1980)
  20599c:	03a600c7 	ori	$r7,$r6,0x980
  2059a0:	00109ca7 	add.d	$r7,$r5,$r7
  2059a4:	271900a7 	stptr.d	$r7,$r5,6400(0x1900)
  2059a8:	03a400c7 	ori	$r7,$r6,0x900
  2059ac:	00109ca7 	add.d	$r7,$r5,$r7
  2059b0:	271880a7 	stptr.d	$r7,$r5,6272(0x1880)
  2059b4:	03a200c7 	ori	$r7,$r6,0x880
  2059b8:	00109ca7 	add.d	$r7,$r5,$r7
  2059bc:	271800a7 	stptr.d	$r7,$r5,6144(0x1800)
  2059c0:	03a000c7 	ori	$r7,$r6,0x800
  2059c4:	00109ca7 	add.d	$r7,$r5,$r7
  2059c8:	271780a7 	stptr.d	$r7,$r5,6016(0x1780)
  2059cc:	039e00c7 	ori	$r7,$r6,0x780
  2059d0:	00109ca7 	add.d	$r7,$r5,$r7
  2059d4:	271700a7 	stptr.d	$r7,$r5,5888(0x1700)
  2059d8:	039c00c7 	ori	$r7,$r6,0x700
  2059dc:	00109ca7 	add.d	$r7,$r5,$r7
  2059e0:	271680a7 	stptr.d	$r7,$r5,5760(0x1680)
  2059e4:	039800c7 	ori	$r7,$r6,0x600
  2059e8:	00109ca7 	add.d	$r7,$r5,$r7
  2059ec:	271580a7 	stptr.d	$r7,$r5,5504(0x1580)
  2059f0:	039a00c7 	ori	$r7,$r6,0x680
  2059f4:	00109ca7 	add.d	$r7,$r5,$r7
  2059f8:	271600a7 	stptr.d	$r7,$r5,5632(0x1600)
  2059fc:	039600c7 	ori	$r7,$r6,0x580
  205a00:	00109ca7 	add.d	$r7,$r5,$r7
  205a04:	271500a7 	stptr.d	$r7,$r5,5376(0x1500)
  205a08:	039400c7 	ori	$r7,$r6,0x500
  205a0c:	00109ca7 	add.d	$r7,$r5,$r7
  205a10:	271480a7 	stptr.d	$r7,$r5,5248(0x1480)
  205a14:	039200c7 	ori	$r7,$r6,0x480
  205a18:	00109ca7 	add.d	$r7,$r5,$r7
  205a1c:	271400a7 	stptr.d	$r7,$r5,5120(0x1400)
  205a20:	039000c7 	ori	$r7,$r6,0x400
  205a24:	00109ca7 	add.d	$r7,$r5,$r7
  205a28:	271380a7 	stptr.d	$r7,$r5,4992(0x1380)
  205a2c:	038e00c7 	ori	$r7,$r6,0x380
  205a30:	00109ca7 	add.d	$r7,$r5,$r7
  205a34:	271300a7 	stptr.d	$r7,$r5,4864(0x1300)
  205a38:	038c00c7 	ori	$r7,$r6,0x300
  205a3c:	00109ca7 	add.d	$r7,$r5,$r7
  205a40:	271280a7 	stptr.d	$r7,$r5,4736(0x1280)
  205a44:	038a00c7 	ori	$r7,$r6,0x280
  205a48:	00109ca7 	add.d	$r7,$r5,$r7
  205a4c:	271200a7 	stptr.d	$r7,$r5,4608(0x1200)
  205a50:	038800c7 	ori	$r7,$r6,0x200
  205a54:	00109ca7 	add.d	$r7,$r5,$r7
  205a58:	271180a7 	stptr.d	$r7,$r5,4480(0x1180)
  205a5c:	038600c7 	ori	$r7,$r6,0x180
  205a60:	00109ca7 	add.d	$r7,$r5,$r7
  205a64:	271100a7 	stptr.d	$r7,$r5,4352(0x1100)
  205a68:	038400c7 	ori	$r7,$r6,0x100
  205a6c:	00109ca7 	add.d	$r7,$r5,$r7
  205a70:	271080a7 	stptr.d	$r7,$r5,4224(0x1080)
  205a74:	038200c7 	ori	$r7,$r6,0x80
  205a78:	00109ca7 	add.d	$r7,$r5,$r7
  205a7c:	271000a7 	stptr.d	$r7,$r5,4096(0x1000)
  205a80:	001098a6 	add.d	$r6,$r5,$r6
  205a84:	270f80a6 	stptr.d	$r6,$r5,3968(0xf80)
  205a88:	03be0006 	ori	$r6,$r0,0xf80
  205a8c:	001098a6 	add.d	$r6,$r5,$r6
  205a90:	270f00a6 	stptr.d	$r6,$r5,3840(0xf00)
  205a94:	03bc0006 	ori	$r6,$r0,0xf00
  205a98:	001098a6 	add.d	$r6,$r5,$r6
  205a9c:	270e80a6 	stptr.d	$r6,$r5,3712(0xe80)
  205aa0:	03ba0006 	ori	$r6,$r0,0xe80
  205aa4:	001098a6 	add.d	$r6,$r5,$r6
  205aa8:	270e00a6 	stptr.d	$r6,$r5,3584(0xe00)
  205aac:	03b80006 	ori	$r6,$r0,0xe00
  205ab0:	001098a6 	add.d	$r6,$r5,$r6
  205ab4:	270d80a6 	stptr.d	$r6,$r5,3456(0xd80)
  205ab8:	03b60006 	ori	$r6,$r0,0xd80
  205abc:	001098a6 	add.d	$r6,$r5,$r6
  205ac0:	270d00a6 	stptr.d	$r6,$r5,3328(0xd00)
  205ac4:	03b40006 	ori	$r6,$r0,0xd00
  205ac8:	001098a6 	add.d	$r6,$r5,$r6
  205acc:	270c80a6 	stptr.d	$r6,$r5,3200(0xc80)
  205ad0:	03b20006 	ori	$r6,$r0,0xc80
  205ad4:	001098a6 	add.d	$r6,$r5,$r6
  205ad8:	270c00a6 	stptr.d	$r6,$r5,3072(0xc00)
  205adc:	03b00006 	ori	$r6,$r0,0xc00
  205ae0:	001098a6 	add.d	$r6,$r5,$r6
  205ae4:	270b80a6 	stptr.d	$r6,$r5,2944(0xb80)
  205ae8:	03ae0006 	ori	$r6,$r0,0xb80
  205aec:	001098a6 	add.d	$r6,$r5,$r6
  205af0:	270b00a6 	stptr.d	$r6,$r5,2816(0xb00)
  205af4:	03ac0006 	ori	$r6,$r0,0xb00
  205af8:	001098a6 	add.d	$r6,$r5,$r6
  205afc:	270a80a6 	stptr.d	$r6,$r5,2688(0xa80)
  205b00:	03aa0006 	ori	$r6,$r0,0xa80
  205b04:	001098a6 	add.d	$r6,$r5,$r6
  205b08:	270a00a6 	stptr.d	$r6,$r5,2560(0xa00)
  205b0c:	03a80006 	ori	$r6,$r0,0xa00
  205b10:	001098a6 	add.d	$r6,$r5,$r6
  205b14:	270980a6 	stptr.d	$r6,$r5,2432(0x980)
  205b18:	03a60006 	ori	$r6,$r0,0x980
  205b1c:	001098a6 	add.d	$r6,$r5,$r6
  205b20:	270900a6 	stptr.d	$r6,$r5,2304(0x900)
  205b24:	03a40006 	ori	$r6,$r0,0x900
  205b28:	001098a6 	add.d	$r6,$r5,$r6
  205b2c:	270880a6 	stptr.d	$r6,$r5,2176(0x880)
  205b30:	03a20006 	ori	$r6,$r0,0x880
  205b34:	001098a6 	add.d	$r6,$r5,$r6
  205b38:	270800a6 	stptr.d	$r6,$r5,2048(0x800)
  205b3c:	03a00006 	ori	$r6,$r0,0x800
  205b40:	001098a6 	add.d	$r6,$r5,$r6
  205b44:	29de00a6 	st.d	$r6,$r5,1920(0x780)
  205b48:	02de00a6 	addi.d	$r6,$r5,1920(0x780)
  205b4c:	29dc00a6 	st.d	$r6,$r5,1792(0x700)
  205b50:	02dc00a6 	addi.d	$r6,$r5,1792(0x700)
  205b54:	29da00a6 	st.d	$r6,$r5,1664(0x680)
  205b58:	02da00a6 	addi.d	$r6,$r5,1664(0x680)
  205b5c:	29d800a6 	st.d	$r6,$r5,1536(0x600)
  205b60:	02d800a6 	addi.d	$r6,$r5,1536(0x600)
  205b64:	29d600a6 	st.d	$r6,$r5,1408(0x580)
  205b68:	02d600a6 	addi.d	$r6,$r5,1408(0x580)
  205b6c:	29d400a6 	st.d	$r6,$r5,1280(0x500)
  205b70:	02d400a6 	addi.d	$r6,$r5,1280(0x500)
  205b74:	29d200a6 	st.d	$r6,$r5,1152(0x480)
  205b78:	02d200a6 	addi.d	$r6,$r5,1152(0x480)
  205b7c:	29d000a6 	st.d	$r6,$r5,1024(0x400)
  205b80:	02d000a6 	addi.d	$r6,$r5,1024(0x400)
  205b84:	29ce00a6 	st.d	$r6,$r5,896(0x380)
  205b88:	02ce00a6 	addi.d	$r6,$r5,896(0x380)
  205b8c:	29cc00a6 	st.d	$r6,$r5,768(0x300)
  205b90:	02cc00a6 	addi.d	$r6,$r5,768(0x300)
  205b94:	29ca00a6 	st.d	$r6,$r5,640(0x280)
  205b98:	02ca00a6 	addi.d	$r6,$r5,640(0x280)
  205b9c:	29c800a6 	st.d	$r6,$r5,512(0x200)
  205ba0:	02c800a6 	addi.d	$r6,$r5,512(0x200)
  205ba4:	29c600a6 	st.d	$r6,$r5,384(0x180)
  205ba8:	02c600a6 	addi.d	$r6,$r5,384(0x180)
  205bac:	29c400a6 	st.d	$r6,$r5,256(0x100)
  205bb0:	02c400a6 	addi.d	$r6,$r5,256(0x100)
  205bb4:	29c200a6 	st.d	$r6,$r5,128(0x80)
  205bb8:	28c06086 	ld.d	$r6,$r4,24(0x18)
  205bbc:	28c08084 	ld.d	$r4,$r4,32(0x20)
  205bc0:	29c000a4 	st.d	$r4,$r5,0
  205bc4:	02c200a8 	addi.d	$r8,$r5,128(0x80)
  205bc8:	00150104 	move	$r4,$r8
  205bcc:	001500a7 	move	$r7,$r5
  205bd0:	28c00108 	ld.d	$r8,$r8,0
  205bd4:	29c00085 	st.d	$r5,$r4,0
  205bd8:	02c004c6 	addi.d	$r6,$r6,1(0x1)
  205bdc:	00150085 	move	$r5,$r4
  205be0:	47ffe91f 	bnez	$r8,-24(0x7fffe8) # 205bc8 <_ZN7axalloc15GlobalAllocator5alloc17hb16ded095c2d389eE+0xb10>
  205be4:	29c00080 	st.d	$r0,$r4,0
  205be8:	14000445 	lu12i.w	$r5,34(0x22)
  205bec:	0389a0a5 	ori	$r5,$r5,0x268
  205bf0:	381c1787 	stx.d	$r7,$r28,$r5
  205bf4:	28c08068 	ld.d	$r8,$r3,32(0x20)
  205bf8:	28c02069 	ld.d	$r9,$r3,8(0x8)
  205bfc:	14000445 	lu12i.w	$r5,34(0x22)
  205c00:	038980a5 	ori	$r5,$r5,0x260
  205c04:	50114c00 	b	4428(0x114c) # 206d50 <_ZN7axalloc15GlobalAllocator5alloc17hb16ded095c2d389eE+0x1c98>
  205c08:	28c00085 	ld.d	$r5,$r4,0
  205c0c:	29c00080 	st.d	$r0,$r4,0
  205c10:	14000446 	lu12i.w	$r6,34(0x22)
  205c14:	038920c6 	ori	$r6,$r6,0x248
  205c18:	00109b86 	add.d	$r6,$r28,$r6
  205c1c:	29c0e0c5 	st.d	$r5,$r6,56(0x38)
  205c20:	28c0c0c5 	ld.d	$r5,$r6,48(0x30)
  205c24:	02fffca6 	addi.d	$r6,$r5,-1(0xfff)
  205c28:	50033000 	b	816(0x330) # 205f58 <_ZN7axalloc15GlobalAllocator5alloc17hb16ded095c2d389eE+0xea0>
  205c2c:	00150085 	move	$r5,$r4
  205c30:	14000444 	lu12i.w	$r4,34(0x22)
  205c34:	03892084 	ori	$r4,$r4,0x248
  205c38:	00109384 	add.d	$r4,$r28,$r4
  205c3c:	28c10086 	ld.d	$r6,$r4,64(0x40)
  205c40:	02c100c6 	addi.d	$r6,$r6,64(0x40)
  205c44:	29c10086 	st.d	$r6,$r4,64(0x40)
  205c48:	14000066 	lu12i.w	$r6,3(0x3)
  205c4c:	03bc00c7 	ori	$r7,$r6,0xf00
  205c50:	00109ca7 	add.d	$r7,$r5,$r7
  205c54:	273e00a7 	stptr.d	$r7,$r5,15872(0x3e00)
  205c58:	273f00a0 	stptr.d	$r0,$r5,16128(0x3f00)
  205c5c:	03b800c7 	ori	$r7,$r6,0xe00
  205c60:	00109ca7 	add.d	$r7,$r5,$r7
  205c64:	273d00a7 	stptr.d	$r7,$r5,15616(0x3d00)
  205c68:	03b400c7 	ori	$r7,$r6,0xd00
  205c6c:	00109ca7 	add.d	$r7,$r5,$r7
  205c70:	273c00a7 	stptr.d	$r7,$r5,15360(0x3c00)
  205c74:	03b000c7 	ori	$r7,$r6,0xc00
  205c78:	00109ca7 	add.d	$r7,$r5,$r7
  205c7c:	273b00a7 	stptr.d	$r7,$r5,15104(0x3b00)
  205c80:	03ac00c7 	ori	$r7,$r6,0xb00
  205c84:	00109ca7 	add.d	$r7,$r5,$r7
  205c88:	273a00a7 	stptr.d	$r7,$r5,14848(0x3a00)
  205c8c:	03a800c7 	ori	$r7,$r6,0xa00
  205c90:	00109ca7 	add.d	$r7,$r5,$r7
  205c94:	273900a7 	stptr.d	$r7,$r5,14592(0x3900)
  205c98:	03a400c7 	ori	$r7,$r6,0x900
  205c9c:	00109ca7 	add.d	$r7,$r5,$r7
  205ca0:	273800a7 	stptr.d	$r7,$r5,14336(0x3800)
  205ca4:	03a000c7 	ori	$r7,$r6,0x800
  205ca8:	00109ca7 	add.d	$r7,$r5,$r7
  205cac:	273700a7 	stptr.d	$r7,$r5,14080(0x3700)
  205cb0:	039c00c7 	ori	$r7,$r6,0x700
  205cb4:	00109ca7 	add.d	$r7,$r5,$r7
  205cb8:	273600a7 	stptr.d	$r7,$r5,13824(0x3600)
  205cbc:	039800c7 	ori	$r7,$r6,0x600
  205cc0:	00109ca7 	add.d	$r7,$r5,$r7
  205cc4:	273500a7 	stptr.d	$r7,$r5,13568(0x3500)
  205cc8:	039400c7 	ori	$r7,$r6,0x500
  205ccc:	00109ca7 	add.d	$r7,$r5,$r7
  205cd0:	273400a7 	stptr.d	$r7,$r5,13312(0x3400)
  205cd4:	039000c7 	ori	$r7,$r6,0x400
  205cd8:	00109ca7 	add.d	$r7,$r5,$r7
  205cdc:	273300a7 	stptr.d	$r7,$r5,13056(0x3300)
  205ce0:	038c00c7 	ori	$r7,$r6,0x300
  205ce4:	00109ca7 	add.d	$r7,$r5,$r7
  205ce8:	273200a7 	stptr.d	$r7,$r5,12800(0x3200)
  205cec:	038800c7 	ori	$r7,$r6,0x200
  205cf0:	00109ca7 	add.d	$r7,$r5,$r7
  205cf4:	273100a7 	stptr.d	$r7,$r5,12544(0x3100)
  205cf8:	038400c7 	ori	$r7,$r6,0x100
  205cfc:	00109ca7 	add.d	$r7,$r5,$r7
  205d00:	273000a7 	stptr.d	$r7,$r5,12288(0x3000)
  205d04:	001098a6 	add.d	$r6,$r5,$r6
  205d08:	272f00a6 	stptr.d	$r6,$r5,12032(0x2f00)
  205d0c:	14000046 	lu12i.w	$r6,2(0x2)
  205d10:	03bc00c7 	ori	$r7,$r6,0xf00
  205d14:	00109ca7 	add.d	$r7,$r5,$r7
  205d18:	272e00a7 	stptr.d	$r7,$r5,11776(0x2e00)
  205d1c:	03b800c7 	ori	$r7,$r6,0xe00
  205d20:	00109ca7 	add.d	$r7,$r5,$r7
  205d24:	272d00a7 	stptr.d	$r7,$r5,11520(0x2d00)
  205d28:	03b000c7 	ori	$r7,$r6,0xc00
  205d2c:	00109ca7 	add.d	$r7,$r5,$r7
  205d30:	272b00a7 	stptr.d	$r7,$r5,11008(0x2b00)
  205d34:	03b400c7 	ori	$r7,$r6,0xd00
  205d38:	00109ca7 	add.d	$r7,$r5,$r7
  205d3c:	272c00a7 	stptr.d	$r7,$r5,11264(0x2c00)
  205d40:	03ac00c7 	ori	$r7,$r6,0xb00
  205d44:	00109ca7 	add.d	$r7,$r5,$r7
  205d48:	272a00a7 	stptr.d	$r7,$r5,10752(0x2a00)
  205d4c:	03a800c7 	ori	$r7,$r6,0xa00
  205d50:	00109ca7 	add.d	$r7,$r5,$r7
  205d54:	272900a7 	stptr.d	$r7,$r5,10496(0x2900)
  205d58:	03a400c7 	ori	$r7,$r6,0x900
  205d5c:	00109ca7 	add.d	$r7,$r5,$r7
  205d60:	272800a7 	stptr.d	$r7,$r5,10240(0x2800)
  205d64:	03a000c7 	ori	$r7,$r6,0x800
  205d68:	00109ca7 	add.d	$r7,$r5,$r7
  205d6c:	272700a7 	stptr.d	$r7,$r5,9984(0x2700)
  205d70:	039c00c7 	ori	$r7,$r6,0x700
  205d74:	00109ca7 	add.d	$r7,$r5,$r7
  205d78:	272600a7 	stptr.d	$r7,$r5,9728(0x2600)
  205d7c:	039800c7 	ori	$r7,$r6,0x600
  205d80:	00109ca7 	add.d	$r7,$r5,$r7
  205d84:	272500a7 	stptr.d	$r7,$r5,9472(0x2500)
  205d88:	039400c7 	ori	$r7,$r6,0x500
  205d8c:	00109ca7 	add.d	$r7,$r5,$r7
  205d90:	272400a7 	stptr.d	$r7,$r5,9216(0x2400)
  205d94:	039000c7 	ori	$r7,$r6,0x400
  205d98:	00109ca7 	add.d	$r7,$r5,$r7
  205d9c:	272300a7 	stptr.d	$r7,$r5,8960(0x2300)
  205da0:	038c00c7 	ori	$r7,$r6,0x300
  205da4:	00109ca7 	add.d	$r7,$r5,$r7
  205da8:	272200a7 	stptr.d	$r7,$r5,8704(0x2200)
  205dac:	038800c7 	ori	$r7,$r6,0x200
  205db0:	00109ca7 	add.d	$r7,$r5,$r7
  205db4:	272100a7 	stptr.d	$r7,$r5,8448(0x2100)
  205db8:	038400c7 	ori	$r7,$r6,0x100
  205dbc:	00109ca7 	add.d	$r7,$r5,$r7
  205dc0:	272000a7 	stptr.d	$r7,$r5,8192(0x2000)
  205dc4:	001098a6 	add.d	$r6,$r5,$r6
  205dc8:	271f00a6 	stptr.d	$r6,$r5,7936(0x1f00)
  205dcc:	14000026 	lu12i.w	$r6,1(0x1)
  205dd0:	03bc00c7 	ori	$r7,$r6,0xf00
  205dd4:	00109ca7 	add.d	$r7,$r5,$r7
  205dd8:	271e00a7 	stptr.d	$r7,$r5,7680(0x1e00)
  205ddc:	03b800c7 	ori	$r7,$r6,0xe00
  205de0:	00109ca7 	add.d	$r7,$r5,$r7
  205de4:	271d00a7 	stptr.d	$r7,$r5,7424(0x1d00)
  205de8:	03b400c7 	ori	$r7,$r6,0xd00
  205dec:	00109ca7 	add.d	$r7,$r5,$r7
  205df0:	271c00a7 	stptr.d	$r7,$r5,7168(0x1c00)
  205df4:	03b000c7 	ori	$r7,$r6,0xc00
  205df8:	00109ca7 	add.d	$r7,$r5,$r7
  205dfc:	271b00a7 	stptr.d	$r7,$r5,6912(0x1b00)
  205e00:	03ac00c7 	ori	$r7,$r6,0xb00
  205e04:	00109ca7 	add.d	$r7,$r5,$r7
  205e08:	271a00a7 	stptr.d	$r7,$r5,6656(0x1a00)
  205e0c:	03a800c7 	ori	$r7,$r6,0xa00
  205e10:	00109ca7 	add.d	$r7,$r5,$r7
  205e14:	271900a7 	stptr.d	$r7,$r5,6400(0x1900)
  205e18:	03a400c7 	ori	$r7,$r6,0x900
  205e1c:	00109ca7 	add.d	$r7,$r5,$r7
  205e20:	271800a7 	stptr.d	$r7,$r5,6144(0x1800)
  205e24:	03a000c7 	ori	$r7,$r6,0x800
  205e28:	00109ca7 	add.d	$r7,$r5,$r7
  205e2c:	271700a7 	stptr.d	$r7,$r5,5888(0x1700)
  205e30:	039c00c7 	ori	$r7,$r6,0x700
  205e34:	00109ca7 	add.d	$r7,$r5,$r7
  205e38:	271600a7 	stptr.d	$r7,$r5,5632(0x1600)
  205e3c:	039800c7 	ori	$r7,$r6,0x600
  205e40:	00109ca7 	add.d	$r7,$r5,$r7
  205e44:	271500a7 	stptr.d	$r7,$r5,5376(0x1500)
  205e48:	039400c7 	ori	$r7,$r6,0x500
  205e4c:	00109ca7 	add.d	$r7,$r5,$r7
  205e50:	271400a7 	stptr.d	$r7,$r5,5120(0x1400)
  205e54:	039000c7 	ori	$r7,$r6,0x400
  205e58:	00109ca7 	add.d	$r7,$r5,$r7
  205e5c:	271300a7 	stptr.d	$r7,$r5,4864(0x1300)
  205e60:	038c00c7 	ori	$r7,$r6,0x300
  205e64:	00109ca7 	add.d	$r7,$r5,$r7
  205e68:	271200a7 	stptr.d	$r7,$r5,4608(0x1200)
  205e6c:	038800c7 	ori	$r7,$r6,0x200
  205e70:	00109ca7 	add.d	$r7,$r5,$r7
  205e74:	271100a7 	stptr.d	$r7,$r5,4352(0x1100)
  205e78:	038400c7 	ori	$r7,$r6,0x100
  205e7c:	00109ca7 	add.d	$r7,$r5,$r7
  205e80:	271000a7 	stptr.d	$r7,$r5,4096(0x1000)
  205e84:	001098a6 	add.d	$r6,$r5,$r6
  205e88:	270f00a6 	stptr.d	$r6,$r5,3840(0xf00)
  205e8c:	03bc0006 	ori	$r6,$r0,0xf00
  205e90:	001098a6 	add.d	$r6,$r5,$r6
  205e94:	270e00a6 	stptr.d	$r6,$r5,3584(0xe00)
  205e98:	03b80006 	ori	$r6,$r0,0xe00
  205e9c:	001098a6 	add.d	$r6,$r5,$r6
  205ea0:	270d00a6 	stptr.d	$r6,$r5,3328(0xd00)
  205ea4:	03b40006 	ori	$r6,$r0,0xd00
  205ea8:	001098a6 	add.d	$r6,$r5,$r6
  205eac:	270c00a6 	stptr.d	$r6,$r5,3072(0xc00)
  205eb0:	03b00006 	ori	$r6,$r0,0xc00
  205eb4:	001098a6 	add.d	$r6,$r5,$r6
  205eb8:	270b00a6 	stptr.d	$r6,$r5,2816(0xb00)
  205ebc:	03ac0006 	ori	$r6,$r0,0xb00
  205ec0:	001098a6 	add.d	$r6,$r5,$r6
  205ec4:	270a00a6 	stptr.d	$r6,$r5,2560(0xa00)
  205ec8:	03a80006 	ori	$r6,$r0,0xa00
  205ecc:	001098a6 	add.d	$r6,$r5,$r6
  205ed0:	270900a6 	stptr.d	$r6,$r5,2304(0x900)
  205ed4:	03a40006 	ori	$r6,$r0,0x900
  205ed8:	001098a6 	add.d	$r6,$r5,$r6
  205edc:	270800a6 	stptr.d	$r6,$r5,2048(0x800)
  205ee0:	03a00006 	ori	$r6,$r0,0x800
  205ee4:	001098a6 	add.d	$r6,$r5,$r6
  205ee8:	29dc00a6 	st.d	$r6,$r5,1792(0x700)
  205eec:	02dc00a6 	addi.d	$r6,$r5,1792(0x700)
  205ef0:	29d800a6 	st.d	$r6,$r5,1536(0x600)
  205ef4:	02d800a6 	addi.d	$r6,$r5,1536(0x600)
  205ef8:	29d400a6 	st.d	$r6,$r5,1280(0x500)
  205efc:	02d400a6 	addi.d	$r6,$r5,1280(0x500)
  205f00:	29d000a6 	st.d	$r6,$r5,1024(0x400)
  205f04:	02d000a6 	addi.d	$r6,$r5,1024(0x400)
  205f08:	29cc00a6 	st.d	$r6,$r5,768(0x300)
  205f0c:	02cc00a6 	addi.d	$r6,$r5,768(0x300)
  205f10:	29c800a6 	st.d	$r6,$r5,512(0x200)
  205f14:	02c800a6 	addi.d	$r6,$r5,512(0x200)
  205f18:	29c400a6 	st.d	$r6,$r5,256(0x100)
  205f1c:	28c0c086 	ld.d	$r6,$r4,48(0x30)
  205f20:	28c0e084 	ld.d	$r4,$r4,56(0x38)
  205f24:	29c000a4 	st.d	$r4,$r5,0
  205f28:	02c400a8 	addi.d	$r8,$r5,256(0x100)
  205f2c:	00150104 	move	$r4,$r8
  205f30:	001500a7 	move	$r7,$r5
  205f34:	28c00108 	ld.d	$r8,$r8,0
  205f38:	29c00085 	st.d	$r5,$r4,0
  205f3c:	02c004c6 	addi.d	$r6,$r6,1(0x1)
  205f40:	00150085 	move	$r5,$r4
  205f44:	47ffe91f 	bnez	$r8,-24(0x7fffe8) # 205f2c <_ZN7axalloc15GlobalAllocator5alloc17hb16ded095c2d389eE+0xe74>
  205f48:	29c00080 	st.d	$r0,$r4,0
  205f4c:	14000445 	lu12i.w	$r5,34(0x22)
  205f50:	038a00a5 	ori	$r5,$r5,0x280
  205f54:	381c1787 	stx.d	$r7,$r28,$r5
  205f58:	28c08068 	ld.d	$r8,$r3,32(0x20)
  205f5c:	28c02069 	ld.d	$r9,$r3,8(0x8)
  205f60:	14000445 	lu12i.w	$r5,34(0x22)
  205f64:	0389e0a5 	ori	$r5,$r5,0x278
  205f68:	500de800 	b	3560(0xde8) # 206d50 <_ZN7axalloc15GlobalAllocator5alloc17hb16ded095c2d389eE+0x1c98>
  205f6c:	28c00085 	ld.d	$r5,$r4,0
  205f70:	29c00080 	st.d	$r0,$r4,0
  205f74:	14000446 	lu12i.w	$r6,34(0x22)
  205f78:	038920c6 	ori	$r6,$r6,0x248
  205f7c:	00109b86 	add.d	$r6,$r28,$r6
  205f80:	29c140c5 	st.d	$r5,$r6,80(0x50)
  205f84:	28c120c5 	ld.d	$r5,$r6,72(0x48)
  205f88:	02fffca6 	addi.d	$r6,$r5,-1(0xfff)
  205f8c:	50034000 	b	832(0x340) # 2062cc <_ZN7axalloc15GlobalAllocator5alloc17hb16ded095c2d389eE+0x1214>
  205f90:	00150085 	move	$r5,$r4
  205f94:	14000444 	lu12i.w	$r4,34(0x22)
  205f98:	03892084 	ori	$r4,$r4,0x248
  205f9c:	00109384 	add.d	$r4,$r28,$r4
  205fa0:	28c16086 	ld.d	$r6,$r4,88(0x58)
  205fa4:	02c100c6 	addi.d	$r6,$r6,64(0x40)
  205fa8:	29c16086 	st.d	$r6,$r4,88(0x58)
  205fac:	140000e6 	lu12i.w	$r6,7(0x7)
  205fb0:	03b800c7 	ori	$r7,$r6,0xe00
  205fb4:	00109ca7 	add.d	$r7,$r5,$r7
  205fb8:	277c00a7 	stptr.d	$r7,$r5,31744(0x7c00)
  205fbc:	277e00a0 	stptr.d	$r0,$r5,32256(0x7e00)
  205fc0:	03b000c7 	ori	$r7,$r6,0xc00
  205fc4:	00109ca7 	add.d	$r7,$r5,$r7
  205fc8:	277a00a7 	stptr.d	$r7,$r5,31232(0x7a00)
  205fcc:	03a800c7 	ori	$r7,$r6,0xa00
  205fd0:	00109ca7 	add.d	$r7,$r5,$r7
  205fd4:	277800a7 	stptr.d	$r7,$r5,30720(0x7800)
  205fd8:	03a000c7 	ori	$r7,$r6,0x800
  205fdc:	00109ca7 	add.d	$r7,$r5,$r7
  205fe0:	277600a7 	stptr.d	$r7,$r5,30208(0x7600)
  205fe4:	039800c7 	ori	$r7,$r6,0x600
  205fe8:	00109ca7 	add.d	$r7,$r5,$r7
  205fec:	277400a7 	stptr.d	$r7,$r5,29696(0x7400)
  205ff0:	039000c7 	ori	$r7,$r6,0x400
  205ff4:	00109ca7 	add.d	$r7,$r5,$r7
  205ff8:	277200a7 	stptr.d	$r7,$r5,29184(0x7200)
  205ffc:	038800c7 	ori	$r7,$r6,0x200
  206000:	00109ca7 	add.d	$r7,$r5,$r7
  206004:	277000a7 	stptr.d	$r7,$r5,28672(0x7000)
  206008:	001098a6 	add.d	$r6,$r5,$r6
  20600c:	276e00a6 	stptr.d	$r6,$r5,28160(0x6e00)
  206010:	140000c6 	lu12i.w	$r6,6(0x6)
  206014:	03b800c7 	ori	$r7,$r6,0xe00
  206018:	00109ca7 	add.d	$r7,$r5,$r7
  20601c:	276c00a7 	stptr.d	$r7,$r5,27648(0x6c00)
  206020:	03b000c7 	ori	$r7,$r6,0xc00
  206024:	00109ca7 	add.d	$r7,$r5,$r7
  206028:	276a00a7 	stptr.d	$r7,$r5,27136(0x6a00)
  20602c:	03a800c7 	ori	$r7,$r6,0xa00
  206030:	00109ca7 	add.d	$r7,$r5,$r7
  206034:	276800a7 	stptr.d	$r7,$r5,26624(0x6800)
  206038:	03a000c7 	ori	$r7,$r6,0x800
  20603c:	00109ca7 	add.d	$r7,$r5,$r7
  206040:	276600a7 	stptr.d	$r7,$r5,26112(0x6600)
  206044:	039800c7 	ori	$r7,$r6,0x600
  206048:	00109ca7 	add.d	$r7,$r5,$r7
  20604c:	276400a7 	stptr.d	$r7,$r5,25600(0x6400)
  206050:	039000c7 	ori	$r7,$r6,0x400
  206054:	00109ca7 	add.d	$r7,$r5,$r7
  206058:	276200a7 	stptr.d	$r7,$r5,25088(0x6200)
  20605c:	038800c7 	ori	$r7,$r6,0x200
  206060:	00109ca7 	add.d	$r7,$r5,$r7
  206064:	276000a7 	stptr.d	$r7,$r5,24576(0x6000)
  206068:	001098a6 	add.d	$r6,$r5,$r6
  20606c:	275e00a6 	stptr.d	$r6,$r5,24064(0x5e00)
  206070:	140000a6 	lu12i.w	$r6,5(0x5)
  206074:	03b800c7 	ori	$r7,$r6,0xe00
  206078:	00109ca7 	add.d	$r7,$r5,$r7
  20607c:	275c00a7 	stptr.d	$r7,$r5,23552(0x5c00)
  206080:	03b000c7 	ori	$r7,$r6,0xc00
  206084:	00109ca7 	add.d	$r7,$r5,$r7
  206088:	275a00a7 	stptr.d	$r7,$r5,23040(0x5a00)
  20608c:	03a000c7 	ori	$r7,$r6,0x800
  206090:	00109ca7 	add.d	$r7,$r5,$r7
  206094:	275600a7 	stptr.d	$r7,$r5,22016(0x5600)
  206098:	03a800c7 	ori	$r7,$r6,0xa00
  20609c:	00109ca7 	add.d	$r7,$r5,$r7
  2060a0:	275800a7 	stptr.d	$r7,$r5,22528(0x5800)
  2060a4:	039800c7 	ori	$r7,$r6,0x600
  2060a8:	00109ca7 	add.d	$r7,$r5,$r7
  2060ac:	275400a7 	stptr.d	$r7,$r5,21504(0x5400)
  2060b0:	039000c7 	ori	$r7,$r6,0x400
  2060b4:	00109ca7 	add.d	$r7,$r5,$r7
  2060b8:	275200a7 	stptr.d	$r7,$r5,20992(0x5200)
  2060bc:	038800c7 	ori	$r7,$r6,0x200
  2060c0:	00109ca7 	add.d	$r7,$r5,$r7
  2060c4:	275000a7 	stptr.d	$r7,$r5,20480(0x5000)
  2060c8:	001098a6 	add.d	$r6,$r5,$r6
  2060cc:	274e00a6 	stptr.d	$r6,$r5,19968(0x4e00)
  2060d0:	14000086 	lu12i.w	$r6,4(0x4)
  2060d4:	03b800c7 	ori	$r7,$r6,0xe00
  2060d8:	00109ca7 	add.d	$r7,$r5,$r7
  2060dc:	274c00a7 	stptr.d	$r7,$r5,19456(0x4c00)
  2060e0:	03b000c7 	ori	$r7,$r6,0xc00
  2060e4:	00109ca7 	add.d	$r7,$r5,$r7
  2060e8:	274a00a7 	stptr.d	$r7,$r5,18944(0x4a00)
  2060ec:	03a800c7 	ori	$r7,$r6,0xa00
  2060f0:	00109ca7 	add.d	$r7,$r5,$r7
  2060f4:	274800a7 	stptr.d	$r7,$r5,18432(0x4800)
  2060f8:	03a000c7 	ori	$r7,$r6,0x800
  2060fc:	00109ca7 	add.d	$r7,$r5,$r7
  206100:	274600a7 	stptr.d	$r7,$r5,17920(0x4600)
  206104:	039800c7 	ori	$r7,$r6,0x600
  206108:	00109ca7 	add.d	$r7,$r5,$r7
  20610c:	274400a7 	stptr.d	$r7,$r5,17408(0x4400)
  206110:	039000c7 	ori	$r7,$r6,0x400
  206114:	00109ca7 	add.d	$r7,$r5,$r7
  206118:	274200a7 	stptr.d	$r7,$r5,16896(0x4200)
  20611c:	038800c7 	ori	$r7,$r6,0x200
  206120:	00109ca7 	add.d	$r7,$r5,$r7
  206124:	274000a7 	stptr.d	$r7,$r5,16384(0x4000)
  206128:	001098a6 	add.d	$r6,$r5,$r6
  20612c:	273e00a6 	stptr.d	$r6,$r5,15872(0x3e00)
  206130:	14000066 	lu12i.w	$r6,3(0x3)
  206134:	03b800c7 	ori	$r7,$r6,0xe00
  206138:	00109ca7 	add.d	$r7,$r5,$r7
  20613c:	273c00a7 	stptr.d	$r7,$r5,15360(0x3c00)
  206140:	03b000c7 	ori	$r7,$r6,0xc00
  206144:	00109ca7 	add.d	$r7,$r5,$r7
  206148:	273a00a7 	stptr.d	$r7,$r5,14848(0x3a00)
  20614c:	03a800c7 	ori	$r7,$r6,0xa00
  206150:	00109ca7 	add.d	$r7,$r5,$r7
  206154:	273800a7 	stptr.d	$r7,$r5,14336(0x3800)
  206158:	03a000c7 	ori	$r7,$r6,0x800
  20615c:	00109ca7 	add.d	$r7,$r5,$r7
  206160:	273600a7 	stptr.d	$r7,$r5,13824(0x3600)
  206164:	039800c7 	ori	$r7,$r6,0x600
  206168:	00109ca7 	add.d	$r7,$r5,$r7
  20616c:	273400a7 	stptr.d	$r7,$r5,13312(0x3400)
  206170:	039000c7 	ori	$r7,$r6,0x400
  206174:	00109ca7 	add.d	$r7,$r5,$r7
  206178:	273200a7 	stptr.d	$r7,$r5,12800(0x3200)
  20617c:	038800c7 	ori	$r7,$r6,0x200
  206180:	00109ca7 	add.d	$r7,$r5,$r7
  206184:	273000a7 	stptr.d	$r7,$r5,12288(0x3000)
  206188:	001098a6 	add.d	$r6,$r5,$r6
  20618c:	272e00a6 	stptr.d	$r6,$r5,11776(0x2e00)
  206190:	14000046 	lu12i.w	$r6,2(0x2)
  206194:	03b800c7 	ori	$r7,$r6,0xe00
  206198:	00109ca7 	add.d	$r7,$r5,$r7
  20619c:	272c00a7 	stptr.d	$r7,$r5,11264(0x2c00)
  2061a0:	03b000c7 	ori	$r7,$r6,0xc00
  2061a4:	00109ca7 	add.d	$r7,$r5,$r7
  2061a8:	272a00a7 	stptr.d	$r7,$r5,10752(0x2a00)
  2061ac:	03a800c7 	ori	$r7,$r6,0xa00
  2061b0:	00109ca7 	add.d	$r7,$r5,$r7
  2061b4:	272800a7 	stptr.d	$r7,$r5,10240(0x2800)
  2061b8:	03a000c7 	ori	$r7,$r6,0x800
  2061bc:	00109ca7 	add.d	$r7,$r5,$r7
  2061c0:	272600a7 	stptr.d	$r7,$r5,9728(0x2600)
  2061c4:	039800c7 	ori	$r7,$r6,0x600
  2061c8:	00109ca7 	add.d	$r7,$r5,$r7
  2061cc:	272400a7 	stptr.d	$r7,$r5,9216(0x2400)
  2061d0:	039000c7 	ori	$r7,$r6,0x400
  2061d4:	00109ca7 	add.d	$r7,$r5,$r7
  2061d8:	272200a7 	stptr.d	$r7,$r5,8704(0x2200)
  2061dc:	038800c7 	ori	$r7,$r6,0x200
  2061e0:	00109ca7 	add.d	$r7,$r5,$r7
  2061e4:	272000a7 	stptr.d	$r7,$r5,8192(0x2000)
  2061e8:	001098a6 	add.d	$r6,$r5,$r6
  2061ec:	271e00a6 	stptr.d	$r6,$r5,7680(0x1e00)
  2061f0:	14000026 	lu12i.w	$r6,1(0x1)
  2061f4:	03b800c7 	ori	$r7,$r6,0xe00
  2061f8:	00109ca7 	add.d	$r7,$r5,$r7
  2061fc:	271c00a7 	stptr.d	$r7,$r5,7168(0x1c00)
  206200:	03b000c7 	ori	$r7,$r6,0xc00
  206204:	00109ca7 	add.d	$r7,$r5,$r7
  206208:	271a00a7 	stptr.d	$r7,$r5,6656(0x1a00)
  20620c:	03a800c7 	ori	$r7,$r6,0xa00
  206210:	00109ca7 	add.d	$r7,$r5,$r7
  206214:	271800a7 	stptr.d	$r7,$r5,6144(0x1800)
  206218:	03a000c7 	ori	$r7,$r6,0x800
  20621c:	00109ca7 	add.d	$r7,$r5,$r7
  206220:	271600a7 	stptr.d	$r7,$r5,5632(0x1600)
  206224:	039800c7 	ori	$r7,$r6,0x600
  206228:	00109ca7 	add.d	$r7,$r5,$r7
  20622c:	271400a7 	stptr.d	$r7,$r5,5120(0x1400)
  206230:	039000c7 	ori	$r7,$r6,0x400
  206234:	00109ca7 	add.d	$r7,$r5,$r7
  206238:	271200a7 	stptr.d	$r7,$r5,4608(0x1200)
  20623c:	038800c7 	ori	$r7,$r6,0x200
  206240:	00109ca7 	add.d	$r7,$r5,$r7
  206244:	271000a7 	stptr.d	$r7,$r5,4096(0x1000)
  206248:	001098a6 	add.d	$r6,$r5,$r6
  20624c:	270e00a6 	stptr.d	$r6,$r5,3584(0xe00)
  206250:	03b80006 	ori	$r6,$r0,0xe00
  206254:	001098a6 	add.d	$r6,$r5,$r6
  206258:	270c00a6 	stptr.d	$r6,$r5,3072(0xc00)
  20625c:	03b00006 	ori	$r6,$r0,0xc00
  206260:	001098a6 	add.d	$r6,$r5,$r6
  206264:	270a00a6 	stptr.d	$r6,$r5,2560(0xa00)
  206268:	03a80006 	ori	$r6,$r0,0xa00
  20626c:	001098a6 	add.d	$r6,$r5,$r6
  206270:	270800a6 	stptr.d	$r6,$r5,2048(0x800)
  206274:	03a00006 	ori	$r6,$r0,0x800
  206278:	001098a6 	add.d	$r6,$r5,$r6
  20627c:	29d800a6 	st.d	$r6,$r5,1536(0x600)
  206280:	02d800a6 	addi.d	$r6,$r5,1536(0x600)
  206284:	29d000a6 	st.d	$r6,$r5,1024(0x400)
  206288:	02d000a6 	addi.d	$r6,$r5,1024(0x400)
  20628c:	29c800a6 	st.d	$r6,$r5,512(0x200)
  206290:	28c12086 	ld.d	$r6,$r4,72(0x48)
  206294:	28c14084 	ld.d	$r4,$r4,80(0x50)
  206298:	29c000a4 	st.d	$r4,$r5,0
  20629c:	02c800a8 	addi.d	$r8,$r5,512(0x200)
  2062a0:	00150104 	move	$r4,$r8
  2062a4:	001500a7 	move	$r7,$r5
  2062a8:	28c00108 	ld.d	$r8,$r8,0
  2062ac:	29c00085 	st.d	$r5,$r4,0
  2062b0:	02c004c6 	addi.d	$r6,$r6,1(0x1)
  2062b4:	00150085 	move	$r5,$r4
  2062b8:	47ffe91f 	bnez	$r8,-24(0x7fffe8) # 2062a0 <_ZN7axalloc15GlobalAllocator5alloc17hb16ded095c2d389eE+0x11e8>
  2062bc:	29c00080 	st.d	$r0,$r4,0
  2062c0:	14000445 	lu12i.w	$r5,34(0x22)
  2062c4:	038a60a5 	ori	$r5,$r5,0x298
  2062c8:	381c1787 	stx.d	$r7,$r28,$r5
  2062cc:	28c08068 	ld.d	$r8,$r3,32(0x20)
  2062d0:	28c02069 	ld.d	$r9,$r3,8(0x8)
  2062d4:	14000445 	lu12i.w	$r5,34(0x22)
  2062d8:	038a40a5 	ori	$r5,$r5,0x290
  2062dc:	500a7400 	b	2676(0xa74) # 206d50 <_ZN7axalloc15GlobalAllocator5alloc17hb16ded095c2d389eE+0x1c98>
  2062e0:	28c00085 	ld.d	$r5,$r4,0
  2062e4:	29c00080 	st.d	$r0,$r4,0
  2062e8:	14000446 	lu12i.w	$r6,34(0x22)
  2062ec:	038920c6 	ori	$r6,$r6,0x248
  2062f0:	00109b86 	add.d	$r6,$r28,$r6
  2062f4:	29c1a0c5 	st.d	$r5,$r6,104(0x68)
  2062f8:	28c180c5 	ld.d	$r5,$r6,96(0x60)
  2062fc:	02fffca6 	addi.d	$r6,$r5,-1(0xfff)
  206300:	50034800 	b	840(0x348) # 206648 <_ZN7axalloc15GlobalAllocator5alloc17hb16ded095c2d389eE+0x1590>
  206304:	00150085 	move	$r5,$r4
  206308:	14000444 	lu12i.w	$r4,34(0x22)
  20630c:	03892084 	ori	$r4,$r4,0x248
  206310:	00109384 	add.d	$r4,$r28,$r4
  206314:	28c1c086 	ld.d	$r6,$r4,112(0x70)
  206318:	02c100c6 	addi.d	$r6,$r6,64(0x40)
  20631c:	29c1c086 	st.d	$r6,$r4,112(0x70)
  206320:	140001e6 	lu12i.w	$r6,15(0xf)
  206324:	03b000c7 	ori	$r7,$r6,0xc00
  206328:	381c1ca0 	stx.d	$r0,$r5,$r7
  20632c:	00109ca7 	add.d	$r7,$r5,$r7
  206330:	03a000c8 	ori	$r8,$r6,0x800
  206334:	381c20a7 	stx.d	$r7,$r5,$r8
  206338:	0010a0a7 	add.d	$r7,$r5,$r8
  20633c:	039000c8 	ori	$r8,$r6,0x400
  206340:	381c20a7 	stx.d	$r7,$r5,$r8
  206344:	0010a0a7 	add.d	$r7,$r5,$r8
  206348:	381c18a7 	stx.d	$r7,$r5,$r6
  20634c:	001098a6 	add.d	$r6,$r5,$r6
  206350:	140001c7 	lu12i.w	$r7,14(0xe)
  206354:	03b000e8 	ori	$r8,$r7,0xc00
  206358:	381c20a6 	stx.d	$r6,$r5,$r8
  20635c:	0010a0a6 	add.d	$r6,$r5,$r8
  206360:	03a000e8 	ori	$r8,$r7,0x800
  206364:	381c20a6 	stx.d	$r6,$r5,$r8
  206368:	0010a0a6 	add.d	$r6,$r5,$r8
  20636c:	039000e8 	ori	$r8,$r7,0x400
  206370:	381c20a6 	stx.d	$r6,$r5,$r8
  206374:	0010a0a6 	add.d	$r6,$r5,$r8
  206378:	381c1ca6 	stx.d	$r6,$r5,$r7
  20637c:	00109ca6 	add.d	$r6,$r5,$r7
  206380:	140001a7 	lu12i.w	$r7,13(0xd)
  206384:	03b000e8 	ori	$r8,$r7,0xc00
  206388:	381c20a6 	stx.d	$r6,$r5,$r8
  20638c:	0010a0a6 	add.d	$r6,$r5,$r8
  206390:	03a000e8 	ori	$r8,$r7,0x800
  206394:	381c20a6 	stx.d	$r6,$r5,$r8
  206398:	0010a0a6 	add.d	$r6,$r5,$r8
  20639c:	039000e8 	ori	$r8,$r7,0x400
  2063a0:	381c20a6 	stx.d	$r6,$r5,$r8
  2063a4:	0010a0a6 	add.d	$r6,$r5,$r8
  2063a8:	381c1ca6 	stx.d	$r6,$r5,$r7
  2063ac:	00109ca6 	add.d	$r6,$r5,$r7
  2063b0:	14000187 	lu12i.w	$r7,12(0xc)
  2063b4:	03b000e8 	ori	$r8,$r7,0xc00
  2063b8:	381c20a6 	stx.d	$r6,$r5,$r8
  2063bc:	0010a0a6 	add.d	$r6,$r5,$r8
  2063c0:	03a000e8 	ori	$r8,$r7,0x800
  2063c4:	381c20a6 	stx.d	$r6,$r5,$r8
  2063c8:	0010a0a6 	add.d	$r6,$r5,$r8
  2063cc:	039000e8 	ori	$r8,$r7,0x400
  2063d0:	381c20a6 	stx.d	$r6,$r5,$r8
  2063d4:	0010a0a6 	add.d	$r6,$r5,$r8
  2063d8:	381c1ca6 	stx.d	$r6,$r5,$r7
  2063dc:	00109ca6 	add.d	$r6,$r5,$r7
  2063e0:	14000167 	lu12i.w	$r7,11(0xb)
  2063e4:	03b000e8 	ori	$r8,$r7,0xc00
  2063e8:	381c20a6 	stx.d	$r6,$r5,$r8
  2063ec:	0010a0a6 	add.d	$r6,$r5,$r8
  2063f0:	03a000e8 	ori	$r8,$r7,0x800
  2063f4:	381c20a6 	stx.d	$r6,$r5,$r8
  2063f8:	0010a0a6 	add.d	$r6,$r5,$r8
  2063fc:	039000e8 	ori	$r8,$r7,0x400
  206400:	381c20a6 	stx.d	$r6,$r5,$r8
  206404:	0010a0a6 	add.d	$r6,$r5,$r8
  206408:	381c1ca6 	stx.d	$r6,$r5,$r7
  20640c:	00109ca6 	add.d	$r6,$r5,$r7
  206410:	14000147 	lu12i.w	$r7,10(0xa)
  206414:	03b000e8 	ori	$r8,$r7,0xc00
  206418:	381c20a6 	stx.d	$r6,$r5,$r8
  20641c:	0010a0a6 	add.d	$r6,$r5,$r8
  206420:	03a000e8 	ori	$r8,$r7,0x800
  206424:	381c20a6 	stx.d	$r6,$r5,$r8
  206428:	0010a0a6 	add.d	$r6,$r5,$r8
  20642c:	039000e8 	ori	$r8,$r7,0x400
  206430:	381c20a6 	stx.d	$r6,$r5,$r8
  206434:	0010a0a6 	add.d	$r6,$r5,$r8
  206438:	381c1ca6 	stx.d	$r6,$r5,$r7
  20643c:	00109ca6 	add.d	$r6,$r5,$r7
  206440:	14000127 	lu12i.w	$r7,9(0x9)
  206444:	03b000e8 	ori	$r8,$r7,0xc00
  206448:	381c20a6 	stx.d	$r6,$r5,$r8
  20644c:	0010a0a6 	add.d	$r6,$r5,$r8
  206450:	03a000e8 	ori	$r8,$r7,0x800
  206454:	381c20a6 	stx.d	$r6,$r5,$r8
  206458:	0010a0a6 	add.d	$r6,$r5,$r8
  20645c:	039000e8 	ori	$r8,$r7,0x400
  206460:	381c20a6 	stx.d	$r6,$r5,$r8
  206464:	0010a0a6 	add.d	$r6,$r5,$r8
  206468:	381c1ca6 	stx.d	$r6,$r5,$r7
  20646c:	00109ca6 	add.d	$r6,$r5,$r7
  206470:	14000107 	lu12i.w	$r7,8(0x8)
  206474:	03b000e8 	ori	$r8,$r7,0xc00
  206478:	381c20a6 	stx.d	$r6,$r5,$r8
  20647c:	0010a0a6 	add.d	$r6,$r5,$r8
  206480:	03a000e8 	ori	$r8,$r7,0x800
  206484:	381c20a6 	stx.d	$r6,$r5,$r8
  206488:	0010a0a6 	add.d	$r6,$r5,$r8
  20648c:	039000e8 	ori	$r8,$r7,0x400
  206490:	381c20a6 	stx.d	$r6,$r5,$r8
  206494:	0010a0a6 	add.d	$r6,$r5,$r8
  206498:	381c1ca6 	stx.d	$r6,$r5,$r7
  20649c:	00109ca6 	add.d	$r6,$r5,$r7
  2064a0:	277c00a6 	stptr.d	$r6,$r5,31744(0x7c00)
  2064a4:	140000e6 	lu12i.w	$r6,7(0x7)
  2064a8:	03b000c7 	ori	$r7,$r6,0xc00
  2064ac:	00109ca7 	add.d	$r7,$r5,$r7
  2064b0:	277800a7 	stptr.d	$r7,$r5,30720(0x7800)
  2064b4:	03a000c7 	ori	$r7,$r6,0x800
  2064b8:	00109ca7 	add.d	$r7,$r5,$r7
  2064bc:	277400a7 	stptr.d	$r7,$r5,29696(0x7400)
  2064c0:	039000c7 	ori	$r7,$r6,0x400
  2064c4:	00109ca7 	add.d	$r7,$r5,$r7
  2064c8:	277000a7 	stptr.d	$r7,$r5,28672(0x7000)
  2064cc:	001098a6 	add.d	$r6,$r5,$r6
  2064d0:	276c00a6 	stptr.d	$r6,$r5,27648(0x6c00)
  2064d4:	140000c6 	lu12i.w	$r6,6(0x6)
  2064d8:	03b000c7 	ori	$r7,$r6,0xc00
  2064dc:	00109ca7 	add.d	$r7,$r5,$r7
  2064e0:	276800a7 	stptr.d	$r7,$r5,26624(0x6800)
  2064e4:	03a000c7 	ori	$r7,$r6,0x800
  2064e8:	00109ca7 	add.d	$r7,$r5,$r7
  2064ec:	276400a7 	stptr.d	$r7,$r5,25600(0x6400)
  2064f0:	039000c7 	ori	$r7,$r6,0x400
  2064f4:	00109ca7 	add.d	$r7,$r5,$r7
  2064f8:	276000a7 	stptr.d	$r7,$r5,24576(0x6000)
  2064fc:	001098a6 	add.d	$r6,$r5,$r6
  206500:	275c00a6 	stptr.d	$r6,$r5,23552(0x5c00)
  206504:	140000a6 	lu12i.w	$r6,5(0x5)
  206508:	03b000c7 	ori	$r7,$r6,0xc00
  20650c:	00109ca7 	add.d	$r7,$r5,$r7
  206510:	275800a7 	stptr.d	$r7,$r5,22528(0x5800)
  206514:	03a000c7 	ori	$r7,$r6,0x800
  206518:	00109ca7 	add.d	$r7,$r5,$r7
  20651c:	275400a7 	stptr.d	$r7,$r5,21504(0x5400)
  206520:	039000c7 	ori	$r7,$r6,0x400
  206524:	00109ca7 	add.d	$r7,$r5,$r7
  206528:	275000a7 	stptr.d	$r7,$r5,20480(0x5000)
  20652c:	001098a6 	add.d	$r6,$r5,$r6
  206530:	274c00a6 	stptr.d	$r6,$r5,19456(0x4c00)
  206534:	14000086 	lu12i.w	$r6,4(0x4)
  206538:	03b000c7 	ori	$r7,$r6,0xc00
  20653c:	00109ca7 	add.d	$r7,$r5,$r7
  206540:	274800a7 	stptr.d	$r7,$r5,18432(0x4800)
  206544:	03a000c7 	ori	$r7,$r6,0x800
  206548:	00109ca7 	add.d	$r7,$r5,$r7
  20654c:	274400a7 	stptr.d	$r7,$r5,17408(0x4400)
  206550:	039000c7 	ori	$r7,$r6,0x400
  206554:	00109ca7 	add.d	$r7,$r5,$r7
  206558:	274000a7 	stptr.d	$r7,$r5,16384(0x4000)
  20655c:	001098a6 	add.d	$r6,$r5,$r6
  206560:	273c00a6 	stptr.d	$r6,$r5,15360(0x3c00)
  206564:	14000066 	lu12i.w	$r6,3(0x3)
  206568:	03b000c7 	ori	$r7,$r6,0xc00
  20656c:	00109ca7 	add.d	$r7,$r5,$r7
  206570:	273800a7 	stptr.d	$r7,$r5,14336(0x3800)
  206574:	03a000c7 	ori	$r7,$r6,0x800
  206578:	00109ca7 	add.d	$r7,$r5,$r7
  20657c:	273400a7 	stptr.d	$r7,$r5,13312(0x3400)
  206580:	039000c7 	ori	$r7,$r6,0x400
  206584:	00109ca7 	add.d	$r7,$r5,$r7
  206588:	273000a7 	stptr.d	$r7,$r5,12288(0x3000)
  20658c:	001098a6 	add.d	$r6,$r5,$r6
  206590:	272c00a6 	stptr.d	$r6,$r5,11264(0x2c00)
  206594:	14000046 	lu12i.w	$r6,2(0x2)
  206598:	03b000c7 	ori	$r7,$r6,0xc00
  20659c:	00109ca7 	add.d	$r7,$r5,$r7
  2065a0:	272800a7 	stptr.d	$r7,$r5,10240(0x2800)
  2065a4:	03a000c7 	ori	$r7,$r6,0x800
  2065a8:	00109ca7 	add.d	$r7,$r5,$r7
  2065ac:	272400a7 	stptr.d	$r7,$r5,9216(0x2400)
  2065b0:	039000c7 	ori	$r7,$r6,0x400
  2065b4:	00109ca7 	add.d	$r7,$r5,$r7
  2065b8:	272000a7 	stptr.d	$r7,$r5,8192(0x2000)
  2065bc:	001098a6 	add.d	$r6,$r5,$r6
  2065c0:	271c00a6 	stptr.d	$r6,$r5,7168(0x1c00)
  2065c4:	14000026 	lu12i.w	$r6,1(0x1)
  2065c8:	03b000c7 	ori	$r7,$r6,0xc00
  2065cc:	00109ca7 	add.d	$r7,$r5,$r7
  2065d0:	271800a7 	stptr.d	$r7,$r5,6144(0x1800)
  2065d4:	03a000c7 	ori	$r7,$r6,0x800
  2065d8:	00109ca7 	add.d	$r7,$r5,$r7
  2065dc:	271400a7 	stptr.d	$r7,$r5,5120(0x1400)
  2065e0:	039000c7 	ori	$r7,$r6,0x400
  2065e4:	00109ca7 	add.d	$r7,$r5,$r7
  2065e8:	271000a7 	stptr.d	$r7,$r5,4096(0x1000)
  2065ec:	001098a6 	add.d	$r6,$r5,$r6
  2065f0:	270c00a6 	stptr.d	$r6,$r5,3072(0xc00)
  2065f4:	03b00006 	ori	$r6,$r0,0xc00
  2065f8:	001098a6 	add.d	$r6,$r5,$r6
  2065fc:	270800a6 	stptr.d	$r6,$r5,2048(0x800)
  206600:	03a00006 	ori	$r6,$r0,0x800
  206604:	001098a6 	add.d	$r6,$r5,$r6
  206608:	29d000a6 	st.d	$r6,$r5,1024(0x400)
  20660c:	28c18086 	ld.d	$r6,$r4,96(0x60)
  206610:	28c1a084 	ld.d	$r4,$r4,104(0x68)
  206614:	29c000a4 	st.d	$r4,$r5,0
  206618:	02d000a8 	addi.d	$r8,$r5,1024(0x400)
  20661c:	00150104 	move	$r4,$r8
  206620:	001500a7 	move	$r7,$r5
  206624:	28c00108 	ld.d	$r8,$r8,0
  206628:	29c00085 	st.d	$r5,$r4,0
  20662c:	02c004c6 	addi.d	$r6,$r6,1(0x1)
  206630:	00150085 	move	$r5,$r4
  206634:	47ffe91f 	bnez	$r8,-24(0x7fffe8) # 20661c <_ZN7axalloc15GlobalAllocator5alloc17hb16ded095c2d389eE+0x1564>
  206638:	29c00080 	st.d	$r0,$r4,0
  20663c:	14000445 	lu12i.w	$r5,34(0x22)
  206640:	038ac0a5 	ori	$r5,$r5,0x2b0
  206644:	381c1787 	stx.d	$r7,$r28,$r5
  206648:	28c08068 	ld.d	$r8,$r3,32(0x20)
  20664c:	28c02069 	ld.d	$r9,$r3,8(0x8)
  206650:	14000445 	lu12i.w	$r5,34(0x22)
  206654:	038aa0a5 	ori	$r5,$r5,0x2a8
  206658:	5006f800 	b	1784(0x6f8) # 206d50 <_ZN7axalloc15GlobalAllocator5alloc17hb16ded095c2d389eE+0x1c98>
  20665c:	28c00085 	ld.d	$r5,$r4,0
  206660:	29c00080 	st.d	$r0,$r4,0
  206664:	14000446 	lu12i.w	$r6,34(0x22)
  206668:	038920c6 	ori	$r6,$r6,0x248
  20666c:	00109b86 	add.d	$r6,$r28,$r6
  206670:	29c260c5 	st.d	$r5,$r6,152(0x98)
  206674:	28c240c5 	ld.d	$r5,$r6,144(0x90)
  206678:	02fffca6 	addi.d	$r6,$r5,-1(0xfff)
  20667c:	50036c00 	b	876(0x36c) # 2069e8 <_ZN7axalloc15GlobalAllocator5alloc17hb16ded095c2d389eE+0x1930>
  206680:	28c00085 	ld.d	$r5,$r4,0
  206684:	29c00080 	st.d	$r0,$r4,0
  206688:	14000446 	lu12i.w	$r6,34(0x22)
  20668c:	038920c6 	ori	$r6,$r6,0x248
  206690:	00109b86 	add.d	$r6,$r28,$r6
  206694:	29c200c5 	st.d	$r5,$r6,128(0x80)
  206698:	28c1e0c5 	ld.d	$r5,$r6,120(0x78)
  20669c:	02fffca6 	addi.d	$r6,$r5,-1(0xfff)
  2066a0:	5006a000 	b	1696(0x6a0) # 206d40 <_ZN7axalloc15GlobalAllocator5alloc17hb16ded095c2d389eE+0x1c88>
  2066a4:	00150085 	move	$r5,$r4
  2066a8:	14000446 	lu12i.w	$r6,34(0x22)
  2066ac:	038920c4 	ori	$r4,$r6,0x248
  2066b0:	00109384 	add.d	$r4,$r28,$r4
  2066b4:	28c28087 	ld.d	$r7,$r4,160(0xa0)
  2066b8:	02c100e7 	addi.d	$r7,$r7,64(0x40)
  2066bc:	29c28087 	st.d	$r7,$r4,160(0xa0)
  2066c0:	140007e7 	lu12i.w	$r7,63(0x3f)
  2066c4:	381c1ca0 	stx.d	$r0,$r5,$r7
  2066c8:	00109ca7 	add.d	$r7,$r5,$r7
  2066cc:	140007c8 	lu12i.w	$r8,62(0x3e)
  2066d0:	381c20a7 	stx.d	$r7,$r5,$r8
  2066d4:	0010a0a7 	add.d	$r7,$r5,$r8
  2066d8:	140007a8 	lu12i.w	$r8,61(0x3d)
  2066dc:	381c20a7 	stx.d	$r7,$r5,$r8
  2066e0:	0010a0a7 	add.d	$r7,$r5,$r8
  2066e4:	14000788 	lu12i.w	$r8,60(0x3c)
  2066e8:	381c20a7 	stx.d	$r7,$r5,$r8
  2066ec:	0010a0a7 	add.d	$r7,$r5,$r8
  2066f0:	14000768 	lu12i.w	$r8,59(0x3b)
  2066f4:	381c20a7 	stx.d	$r7,$r5,$r8
  2066f8:	0010a0a7 	add.d	$r7,$r5,$r8
  2066fc:	14000748 	lu12i.w	$r8,58(0x3a)
  206700:	381c20a7 	stx.d	$r7,$r5,$r8
  206704:	0010a0a7 	add.d	$r7,$r5,$r8
  206708:	14000728 	lu12i.w	$r8,57(0x39)
  20670c:	381c20a7 	stx.d	$r7,$r5,$r8
  206710:	0010a0a7 	add.d	$r7,$r5,$r8
  206714:	14000708 	lu12i.w	$r8,56(0x38)
  206718:	381c20a7 	stx.d	$r7,$r5,$r8
  20671c:	0010a0a7 	add.d	$r7,$r5,$r8
  206720:	140006e8 	lu12i.w	$r8,55(0x37)
  206724:	381c20a7 	stx.d	$r7,$r5,$r8
  206728:	0010a0a7 	add.d	$r7,$r5,$r8
  20672c:	140006c8 	lu12i.w	$r8,54(0x36)
  206730:	381c20a7 	stx.d	$r7,$r5,$r8
  206734:	0010a0a7 	add.d	$r7,$r5,$r8
  206738:	140006a8 	lu12i.w	$r8,53(0x35)
  20673c:	381c20a7 	stx.d	$r7,$r5,$r8
  206740:	0010a0a7 	add.d	$r7,$r5,$r8
  206744:	14000688 	lu12i.w	$r8,52(0x34)
  206748:	381c20a7 	stx.d	$r7,$r5,$r8
  20674c:	0010a0a7 	add.d	$r7,$r5,$r8
  206750:	14000668 	lu12i.w	$r8,51(0x33)
  206754:	381c20a7 	stx.d	$r7,$r5,$r8
  206758:	0010a0a7 	add.d	$r7,$r5,$r8
  20675c:	14000648 	lu12i.w	$r8,50(0x32)
  206760:	381c20a7 	stx.d	$r7,$r5,$r8
  206764:	0010a0a7 	add.d	$r7,$r5,$r8
  206768:	14000628 	lu12i.w	$r8,49(0x31)
  20676c:	381c20a7 	stx.d	$r7,$r5,$r8
  206770:	0010a0a7 	add.d	$r7,$r5,$r8
  206774:	14000608 	lu12i.w	$r8,48(0x30)
  206778:	381c20a7 	stx.d	$r7,$r5,$r8
  20677c:	0010a0a7 	add.d	$r7,$r5,$r8
  206780:	140005e8 	lu12i.w	$r8,47(0x2f)
  206784:	381c20a7 	stx.d	$r7,$r5,$r8
  206788:	0010a0a7 	add.d	$r7,$r5,$r8
  20678c:	140005c8 	lu12i.w	$r8,46(0x2e)
  206790:	381c20a7 	stx.d	$r7,$r5,$r8
  206794:	0010a0a7 	add.d	$r7,$r5,$r8
  206798:	140005a8 	lu12i.w	$r8,45(0x2d)
  20679c:	381c20a7 	stx.d	$r7,$r5,$r8
  2067a0:	0010a0a7 	add.d	$r7,$r5,$r8
  2067a4:	14000588 	lu12i.w	$r8,44(0x2c)
  2067a8:	381c20a7 	stx.d	$r7,$r5,$r8
  2067ac:	0010a0a7 	add.d	$r7,$r5,$r8
  2067b0:	14000568 	lu12i.w	$r8,43(0x2b)
  2067b4:	381c20a7 	stx.d	$r7,$r5,$r8
  2067b8:	0010a0a7 	add.d	$r7,$r5,$r8
  2067bc:	14000548 	lu12i.w	$r8,42(0x2a)
  2067c0:	381c20a7 	stx.d	$r7,$r5,$r8
  2067c4:	0010a0a7 	add.d	$r7,$r5,$r8
  2067c8:	14000528 	lu12i.w	$r8,41(0x29)
  2067cc:	381c20a7 	stx.d	$r7,$r5,$r8
  2067d0:	0010a0a7 	add.d	$r7,$r5,$r8
  2067d4:	14000508 	lu12i.w	$r8,40(0x28)
  2067d8:	381c20a7 	stx.d	$r7,$r5,$r8
  2067dc:	0010a0a7 	add.d	$r7,$r5,$r8
  2067e0:	140004e8 	lu12i.w	$r8,39(0x27)
  2067e4:	381c20a7 	stx.d	$r7,$r5,$r8
  2067e8:	0010a0a7 	add.d	$r7,$r5,$r8
  2067ec:	140004c8 	lu12i.w	$r8,38(0x26)
  2067f0:	381c20a7 	stx.d	$r7,$r5,$r8
  2067f4:	0010a0a7 	add.d	$r7,$r5,$r8
  2067f8:	140004a8 	lu12i.w	$r8,37(0x25)
  2067fc:	381c20a7 	stx.d	$r7,$r5,$r8
  206800:	0010a0a7 	add.d	$r7,$r5,$r8
  206804:	14000488 	lu12i.w	$r8,36(0x24)
  206808:	381c20a7 	stx.d	$r7,$r5,$r8
  20680c:	0010a0a7 	add.d	$r7,$r5,$r8
  206810:	14000468 	lu12i.w	$r8,35(0x23)
  206814:	381c20a7 	stx.d	$r7,$r5,$r8
  206818:	0010a0a7 	add.d	$r7,$r5,$r8
  20681c:	381c18a7 	stx.d	$r7,$r5,$r6
  206820:	001098a6 	add.d	$r6,$r5,$r6
  206824:	14000427 	lu12i.w	$r7,33(0x21)
  206828:	381c1ca6 	stx.d	$r6,$r5,$r7
  20682c:	00109ca6 	add.d	$r6,$r5,$r7
  206830:	14000407 	lu12i.w	$r7,32(0x20)
  206834:	381c1ca6 	stx.d	$r6,$r5,$r7
  206838:	00109ca6 	add.d	$r6,$r5,$r7
  20683c:	140003e7 	lu12i.w	$r7,31(0x1f)
  206840:	381c1ca6 	stx.d	$r6,$r5,$r7
  206844:	00109ca6 	add.d	$r6,$r5,$r7
  206848:	140003c7 	lu12i.w	$r7,30(0x1e)
  20684c:	381c1ca6 	stx.d	$r6,$r5,$r7
  206850:	00109ca6 	add.d	$r6,$r5,$r7
  206854:	140003a7 	lu12i.w	$r7,29(0x1d)
  206858:	381c1ca6 	stx.d	$r6,$r5,$r7
  20685c:	00109ca6 	add.d	$r6,$r5,$r7
  206860:	14000387 	lu12i.w	$r7,28(0x1c)
  206864:	381c1ca6 	stx.d	$r6,$r5,$r7
  206868:	00109ca6 	add.d	$r6,$r5,$r7
  20686c:	14000367 	lu12i.w	$r7,27(0x1b)
  206870:	381c1ca6 	stx.d	$r6,$r5,$r7
  206874:	00109ca6 	add.d	$r6,$r5,$r7
  206878:	14000347 	lu12i.w	$r7,26(0x1a)
  20687c:	381c1ca6 	stx.d	$r6,$r5,$r7
  206880:	00109ca6 	add.d	$r6,$r5,$r7
  206884:	14000327 	lu12i.w	$r7,25(0x19)
  206888:	381c1ca6 	stx.d	$r6,$r5,$r7
  20688c:	00109ca6 	add.d	$r6,$r5,$r7
  206890:	14000307 	lu12i.w	$r7,24(0x18)
  206894:	381c1ca6 	stx.d	$r6,$r5,$r7
  206898:	00109ca6 	add.d	$r6,$r5,$r7
  20689c:	140002e7 	lu12i.w	$r7,23(0x17)
  2068a0:	381c1ca6 	stx.d	$r6,$r5,$r7
  2068a4:	00109ca6 	add.d	$r6,$r5,$r7
  2068a8:	140002c7 	lu12i.w	$r7,22(0x16)
  2068ac:	381c1ca6 	stx.d	$r6,$r5,$r7
  2068b0:	00109ca6 	add.d	$r6,$r5,$r7
  2068b4:	140002a7 	lu12i.w	$r7,21(0x15)
  2068b8:	381c1ca6 	stx.d	$r6,$r5,$r7
  2068bc:	00109ca6 	add.d	$r6,$r5,$r7
  2068c0:	14000287 	lu12i.w	$r7,20(0x14)
  2068c4:	381c1ca6 	stx.d	$r6,$r5,$r7
  2068c8:	00109ca6 	add.d	$r6,$r5,$r7
  2068cc:	14000267 	lu12i.w	$r7,19(0x13)
  2068d0:	381c1ca6 	stx.d	$r6,$r5,$r7
  2068d4:	00109ca6 	add.d	$r6,$r5,$r7
  2068d8:	14000247 	lu12i.w	$r7,18(0x12)
  2068dc:	381c1ca6 	stx.d	$r6,$r5,$r7
  2068e0:	00109ca6 	add.d	$r6,$r5,$r7
  2068e4:	14000227 	lu12i.w	$r7,17(0x11)
  2068e8:	381c1ca6 	stx.d	$r6,$r5,$r7
  2068ec:	00109ca6 	add.d	$r6,$r5,$r7
  2068f0:	14000207 	lu12i.w	$r7,16(0x10)
  2068f4:	381c1ca6 	stx.d	$r6,$r5,$r7
  2068f8:	00109ca6 	add.d	$r6,$r5,$r7
  2068fc:	140001e7 	lu12i.w	$r7,15(0xf)
  206900:	381c1ca6 	stx.d	$r6,$r5,$r7
  206904:	00109ca6 	add.d	$r6,$r5,$r7
  206908:	140001c7 	lu12i.w	$r7,14(0xe)
  20690c:	381c1ca6 	stx.d	$r6,$r5,$r7
  206910:	00109ca6 	add.d	$r6,$r5,$r7
  206914:	140001a7 	lu12i.w	$r7,13(0xd)
  206918:	381c1ca6 	stx.d	$r6,$r5,$r7
  20691c:	00109ca6 	add.d	$r6,$r5,$r7
  206920:	14000187 	lu12i.w	$r7,12(0xc)
  206924:	381c1ca6 	stx.d	$r6,$r5,$r7
  206928:	00109ca6 	add.d	$r6,$r5,$r7
  20692c:	14000167 	lu12i.w	$r7,11(0xb)
  206930:	381c1ca6 	stx.d	$r6,$r5,$r7
  206934:	00109ca6 	add.d	$r6,$r5,$r7
  206938:	14000147 	lu12i.w	$r7,10(0xa)
  20693c:	381c1ca6 	stx.d	$r6,$r5,$r7
  206940:	00109ca6 	add.d	$r6,$r5,$r7
  206944:	14000127 	lu12i.w	$r7,9(0x9)
  206948:	381c1ca6 	stx.d	$r6,$r5,$r7
  20694c:	00109ca6 	add.d	$r6,$r5,$r7
  206950:	14000107 	lu12i.w	$r7,8(0x8)
  206954:	381c1ca6 	stx.d	$r6,$r5,$r7
  206958:	00109ca6 	add.d	$r6,$r5,$r7
  20695c:	277000a6 	stptr.d	$r6,$r5,28672(0x7000)
  206960:	140000e6 	lu12i.w	$r6,7(0x7)
  206964:	001098a6 	add.d	$r6,$r5,$r6
  206968:	276000a6 	stptr.d	$r6,$r5,24576(0x6000)
  20696c:	140000c6 	lu12i.w	$r6,6(0x6)
  206970:	001098a6 	add.d	$r6,$r5,$r6
  206974:	275000a6 	stptr.d	$r6,$r5,20480(0x5000)
  206978:	140000a6 	lu12i.w	$r6,5(0x5)
  20697c:	001098a6 	add.d	$r6,$r5,$r6
  206980:	274000a6 	stptr.d	$r6,$r5,16384(0x4000)
  206984:	14000086 	lu12i.w	$r6,4(0x4)
  206988:	001098a6 	add.d	$r6,$r5,$r6
  20698c:	273000a6 	stptr.d	$r6,$r5,12288(0x3000)
  206990:	14000066 	lu12i.w	$r6,3(0x3)
  206994:	001098a6 	add.d	$r6,$r5,$r6
  206998:	272000a6 	stptr.d	$r6,$r5,8192(0x2000)
  20699c:	14000046 	lu12i.w	$r6,2(0x2)
  2069a0:	001098a6 	add.d	$r6,$r5,$r6
  2069a4:	271000a6 	stptr.d	$r6,$r5,4096(0x1000)
  2069a8:	28c24086 	ld.d	$r6,$r4,144(0x90)
  2069ac:	28c26084 	ld.d	$r4,$r4,152(0x98)
  2069b0:	29c000a4 	st.d	$r4,$r5,0
  2069b4:	14000024 	lu12i.w	$r4,1(0x1)
  2069b8:	001090a8 	add.d	$r8,$r5,$r4
  2069bc:	00150104 	move	$r4,$r8
  2069c0:	001500a7 	move	$r7,$r5
  2069c4:	28c00108 	ld.d	$r8,$r8,0
  2069c8:	29c00085 	st.d	$r5,$r4,0
  2069cc:	02c004c6 	addi.d	$r6,$r6,1(0x1)
  2069d0:	00150085 	move	$r5,$r4
  2069d4:	47ffe91f 	bnez	$r8,-24(0x7fffe8) # 2069bc <_ZN7axalloc15GlobalAllocator5alloc17hb16ded095c2d389eE+0x1904>
  2069d8:	29c00080 	st.d	$r0,$r4,0
  2069dc:	14000445 	lu12i.w	$r5,34(0x22)
  2069e0:	038b80a5 	ori	$r5,$r5,0x2e0
  2069e4:	381c1787 	stx.d	$r7,$r28,$r5
  2069e8:	28c08068 	ld.d	$r8,$r3,32(0x20)
  2069ec:	28c02069 	ld.d	$r9,$r3,8(0x8)
  2069f0:	14000445 	lu12i.w	$r5,34(0x22)
  2069f4:	038b60a5 	ori	$r5,$r5,0x2d8
  2069f8:	50035800 	b	856(0x358) # 206d50 <_ZN7axalloc15GlobalAllocator5alloc17hb16ded095c2d389eE+0x1c98>
  2069fc:	00150085 	move	$r5,$r4
  206a00:	14000444 	lu12i.w	$r4,34(0x22)
  206a04:	03892084 	ori	$r4,$r4,0x248
  206a08:	00109384 	add.d	$r4,$r28,$r4
  206a0c:	28c22086 	ld.d	$r6,$r4,136(0x88)
  206a10:	02c100c6 	addi.d	$r6,$r6,64(0x40)
  206a14:	29c22086 	st.d	$r6,$r4,136(0x88)
  206a18:	140003e6 	lu12i.w	$r6,31(0x1f)
  206a1c:	03a000c7 	ori	$r7,$r6,0x800
  206a20:	381c1ca0 	stx.d	$r0,$r5,$r7
  206a24:	00109ca7 	add.d	$r7,$r5,$r7
  206a28:	381c18a7 	stx.d	$r7,$r5,$r6
  206a2c:	001098a6 	add.d	$r6,$r5,$r6
  206a30:	140003c7 	lu12i.w	$r7,30(0x1e)
  206a34:	03a000e8 	ori	$r8,$r7,0x800
  206a38:	381c20a6 	stx.d	$r6,$r5,$r8
  206a3c:	0010a0a6 	add.d	$r6,$r5,$r8
  206a40:	381c1ca6 	stx.d	$r6,$r5,$r7
  206a44:	00109ca6 	add.d	$r6,$r5,$r7
  206a48:	140003a7 	lu12i.w	$r7,29(0x1d)
  206a4c:	03a000e8 	ori	$r8,$r7,0x800
  206a50:	381c20a6 	stx.d	$r6,$r5,$r8
  206a54:	0010a0a6 	add.d	$r6,$r5,$r8
  206a58:	381c1ca6 	stx.d	$r6,$r5,$r7
  206a5c:	00109ca6 	add.d	$r6,$r5,$r7
  206a60:	14000387 	lu12i.w	$r7,28(0x1c)
  206a64:	03a000e8 	ori	$r8,$r7,0x800
  206a68:	381c20a6 	stx.d	$r6,$r5,$r8
  206a6c:	0010a0a6 	add.d	$r6,$r5,$r8
  206a70:	381c1ca6 	stx.d	$r6,$r5,$r7
  206a74:	00109ca6 	add.d	$r6,$r5,$r7
  206a78:	14000367 	lu12i.w	$r7,27(0x1b)
  206a7c:	03a000e8 	ori	$r8,$r7,0x800
  206a80:	381c20a6 	stx.d	$r6,$r5,$r8
  206a84:	0010a0a6 	add.d	$r6,$r5,$r8
  206a88:	381c1ca6 	stx.d	$r6,$r5,$r7
  206a8c:	00109ca6 	add.d	$r6,$r5,$r7
  206a90:	14000347 	lu12i.w	$r7,26(0x1a)
  206a94:	03a000e8 	ori	$r8,$r7,0x800
  206a98:	381c20a6 	stx.d	$r6,$r5,$r8
  206a9c:	0010a0a6 	add.d	$r6,$r5,$r8
  206aa0:	381c1ca6 	stx.d	$r6,$r5,$r7
  206aa4:	00109ca6 	add.d	$r6,$r5,$r7
  206aa8:	14000327 	lu12i.w	$r7,25(0x19)
  206aac:	03a000e8 	ori	$r8,$r7,0x800
  206ab0:	381c20a6 	stx.d	$r6,$r5,$r8
  206ab4:	0010a0a6 	add.d	$r6,$r5,$r8
  206ab8:	381c1ca6 	stx.d	$r6,$r5,$r7
  206abc:	00109ca6 	add.d	$r6,$r5,$r7
  206ac0:	14000307 	lu12i.w	$r7,24(0x18)
  206ac4:	03a000e8 	ori	$r8,$r7,0x800
  206ac8:	381c20a6 	stx.d	$r6,$r5,$r8
  206acc:	0010a0a6 	add.d	$r6,$r5,$r8
  206ad0:	381c1ca6 	stx.d	$r6,$r5,$r7
  206ad4:	00109ca6 	add.d	$r6,$r5,$r7
  206ad8:	140002e7 	lu12i.w	$r7,23(0x17)
  206adc:	03a000e8 	ori	$r8,$r7,0x800
  206ae0:	381c20a6 	stx.d	$r6,$r5,$r8
  206ae4:	0010a0a6 	add.d	$r6,$r5,$r8
  206ae8:	381c1ca6 	stx.d	$r6,$r5,$r7
  206aec:	00109ca6 	add.d	$r6,$r5,$r7
  206af0:	140002c7 	lu12i.w	$r7,22(0x16)
  206af4:	03a000e8 	ori	$r8,$r7,0x800
  206af8:	381c20a6 	stx.d	$r6,$r5,$r8
  206afc:	0010a0a6 	add.d	$r6,$r5,$r8
  206b00:	381c1ca6 	stx.d	$r6,$r5,$r7
  206b04:	00109ca6 	add.d	$r6,$r5,$r7
  206b08:	140002a7 	lu12i.w	$r7,21(0x15)
  206b0c:	03a000e8 	ori	$r8,$r7,0x800
  206b10:	381c20a6 	stx.d	$r6,$r5,$r8
  206b14:	0010a0a6 	add.d	$r6,$r5,$r8
  206b18:	381c1ca6 	stx.d	$r6,$r5,$r7
  206b1c:	00109ca6 	add.d	$r6,$r5,$r7
  206b20:	14000287 	lu12i.w	$r7,20(0x14)
  206b24:	03a000e8 	ori	$r8,$r7,0x800
  206b28:	381c20a6 	stx.d	$r6,$r5,$r8
  206b2c:	0010a0a6 	add.d	$r6,$r5,$r8
  206b30:	381c1ca6 	stx.d	$r6,$r5,$r7
  206b34:	00109ca6 	add.d	$r6,$r5,$r7
  206b38:	14000267 	lu12i.w	$r7,19(0x13)
  206b3c:	03a000e8 	ori	$r8,$r7,0x800
  206b40:	381c20a6 	stx.d	$r6,$r5,$r8
  206b44:	0010a0a6 	add.d	$r6,$r5,$r8
  206b48:	381c1ca6 	stx.d	$r6,$r5,$r7
  206b4c:	00109ca6 	add.d	$r6,$r5,$r7
  206b50:	14000247 	lu12i.w	$r7,18(0x12)
  206b54:	03a000e8 	ori	$r8,$r7,0x800
  206b58:	381c20a6 	stx.d	$r6,$r5,$r8
  206b5c:	0010a0a6 	add.d	$r6,$r5,$r8
  206b60:	381c1ca6 	stx.d	$r6,$r5,$r7
  206b64:	00109ca6 	add.d	$r6,$r5,$r7
  206b68:	14000227 	lu12i.w	$r7,17(0x11)
  206b6c:	03a000e8 	ori	$r8,$r7,0x800
  206b70:	381c20a6 	stx.d	$r6,$r5,$r8
  206b74:	0010a0a6 	add.d	$r6,$r5,$r8
  206b78:	381c1ca6 	stx.d	$r6,$r5,$r7
  206b7c:	00109ca6 	add.d	$r6,$r5,$r7
  206b80:	14000207 	lu12i.w	$r7,16(0x10)
  206b84:	03a000e8 	ori	$r8,$r7,0x800
  206b88:	381c20a6 	stx.d	$r6,$r5,$r8
  206b8c:	0010a0a6 	add.d	$r6,$r5,$r8
  206b90:	381c1ca6 	stx.d	$r6,$r5,$r7
  206b94:	00109ca6 	add.d	$r6,$r5,$r7
  206b98:	140001e7 	lu12i.w	$r7,15(0xf)
  206b9c:	03a000e8 	ori	$r8,$r7,0x800
  206ba0:	381c20a6 	stx.d	$r6,$r5,$r8
  206ba4:	0010a0a6 	add.d	$r6,$r5,$r8
  206ba8:	381c1ca6 	stx.d	$r6,$r5,$r7
  206bac:	00109ca6 	add.d	$r6,$r5,$r7
  206bb0:	140001c7 	lu12i.w	$r7,14(0xe)
  206bb4:	03a000e8 	ori	$r8,$r7,0x800
  206bb8:	381c20a6 	stx.d	$r6,$r5,$r8
  206bbc:	0010a0a6 	add.d	$r6,$r5,$r8
  206bc0:	381c1ca6 	stx.d	$r6,$r5,$r7
  206bc4:	00109ca6 	add.d	$r6,$r5,$r7
  206bc8:	140001a7 	lu12i.w	$r7,13(0xd)
  206bcc:	03a000e8 	ori	$r8,$r7,0x800
  206bd0:	381c20a6 	stx.d	$r6,$r5,$r8
  206bd4:	0010a0a6 	add.d	$r6,$r5,$r8
  206bd8:	381c1ca6 	stx.d	$r6,$r5,$r7
  206bdc:	00109ca6 	add.d	$r6,$r5,$r7
  206be0:	14000187 	lu12i.w	$r7,12(0xc)
  206be4:	03a000e8 	ori	$r8,$r7,0x800
  206be8:	381c20a6 	stx.d	$r6,$r5,$r8
  206bec:	0010a0a6 	add.d	$r6,$r5,$r8
  206bf0:	381c1ca6 	stx.d	$r6,$r5,$r7
  206bf4:	00109ca6 	add.d	$r6,$r5,$r7
  206bf8:	14000167 	lu12i.w	$r7,11(0xb)
  206bfc:	03a000e8 	ori	$r8,$r7,0x800
  206c00:	381c20a6 	stx.d	$r6,$r5,$r8
  206c04:	0010a0a6 	add.d	$r6,$r5,$r8
  206c08:	381c1ca6 	stx.d	$r6,$r5,$r7
  206c0c:	00109ca6 	add.d	$r6,$r5,$r7
  206c10:	14000147 	lu12i.w	$r7,10(0xa)
  206c14:	03a000e8 	ori	$r8,$r7,0x800
  206c18:	381c20a6 	stx.d	$r6,$r5,$r8
  206c1c:	0010a0a6 	add.d	$r6,$r5,$r8
  206c20:	381c1ca6 	stx.d	$r6,$r5,$r7
  206c24:	00109ca6 	add.d	$r6,$r5,$r7
  206c28:	14000127 	lu12i.w	$r7,9(0x9)
  206c2c:	03a000e8 	ori	$r8,$r7,0x800
  206c30:	381c20a6 	stx.d	$r6,$r5,$r8
  206c34:	0010a0a6 	add.d	$r6,$r5,$r8
  206c38:	381c1ca6 	stx.d	$r6,$r5,$r7
  206c3c:	00109ca6 	add.d	$r6,$r5,$r7
  206c40:	14000107 	lu12i.w	$r7,8(0x8)
  206c44:	03a000e8 	ori	$r8,$r7,0x800
  206c48:	381c20a6 	stx.d	$r6,$r5,$r8
  206c4c:	0010a0a6 	add.d	$r6,$r5,$r8
  206c50:	381c1ca6 	stx.d	$r6,$r5,$r7
  206c54:	00109ca6 	add.d	$r6,$r5,$r7
  206c58:	277800a6 	stptr.d	$r6,$r5,30720(0x7800)
  206c5c:	140000e6 	lu12i.w	$r6,7(0x7)
  206c60:	03a000c7 	ori	$r7,$r6,0x800
  206c64:	00109ca7 	add.d	$r7,$r5,$r7
  206c68:	277000a7 	stptr.d	$r7,$r5,28672(0x7000)
  206c6c:	001098a6 	add.d	$r6,$r5,$r6
  206c70:	276800a6 	stptr.d	$r6,$r5,26624(0x6800)
  206c74:	140000c6 	lu12i.w	$r6,6(0x6)
  206c78:	03a000c7 	ori	$r7,$r6,0x800
  206c7c:	00109ca7 	add.d	$r7,$r5,$r7
  206c80:	276000a7 	stptr.d	$r7,$r5,24576(0x6000)
  206c84:	001098a6 	add.d	$r6,$r5,$r6
  206c88:	275800a6 	stptr.d	$r6,$r5,22528(0x5800)
  206c8c:	140000a6 	lu12i.w	$r6,5(0x5)
  206c90:	03a000c7 	ori	$r7,$r6,0x800
  206c94:	00109ca7 	add.d	$r7,$r5,$r7
  206c98:	275000a7 	stptr.d	$r7,$r5,20480(0x5000)
  206c9c:	001098a6 	add.d	$r6,$r5,$r6
  206ca0:	274800a6 	stptr.d	$r6,$r5,18432(0x4800)
  206ca4:	14000086 	lu12i.w	$r6,4(0x4)
  206ca8:	03a000c7 	ori	$r7,$r6,0x800
  206cac:	00109ca7 	add.d	$r7,$r5,$r7
  206cb0:	274000a7 	stptr.d	$r7,$r5,16384(0x4000)
  206cb4:	001098a6 	add.d	$r6,$r5,$r6
  206cb8:	273800a6 	stptr.d	$r6,$r5,14336(0x3800)
  206cbc:	14000066 	lu12i.w	$r6,3(0x3)
  206cc0:	03a000c7 	ori	$r7,$r6,0x800
  206cc4:	00109ca7 	add.d	$r7,$r5,$r7
  206cc8:	273000a7 	stptr.d	$r7,$r5,12288(0x3000)
  206ccc:	001098a6 	add.d	$r6,$r5,$r6
  206cd0:	272800a6 	stptr.d	$r6,$r5,10240(0x2800)
  206cd4:	14000046 	lu12i.w	$r6,2(0x2)
  206cd8:	03a000c7 	ori	$r7,$r6,0x800
  206cdc:	00109ca7 	add.d	$r7,$r5,$r7
  206ce0:	272000a7 	stptr.d	$r7,$r5,8192(0x2000)
  206ce4:	001098a6 	add.d	$r6,$r5,$r6
  206ce8:	271800a6 	stptr.d	$r6,$r5,6144(0x1800)
  206cec:	14000026 	lu12i.w	$r6,1(0x1)
  206cf0:	03a000c7 	ori	$r7,$r6,0x800
  206cf4:	00109ca7 	add.d	$r7,$r5,$r7
  206cf8:	271000a7 	stptr.d	$r7,$r5,4096(0x1000)
  206cfc:	001098a6 	add.d	$r6,$r5,$r6
  206d00:	270800a6 	stptr.d	$r6,$r5,2048(0x800)
  206d04:	28c1e086 	ld.d	$r6,$r4,120(0x78)
  206d08:	28c20084 	ld.d	$r4,$r4,128(0x80)
  206d0c:	29c000a4 	st.d	$r4,$r5,0
  206d10:	0010e8a8 	add.d	$r8,$r5,$r26
  206d14:	00150104 	move	$r4,$r8
  206d18:	001500a7 	move	$r7,$r5
  206d1c:	28c00108 	ld.d	$r8,$r8,0
  206d20:	29c00085 	st.d	$r5,$r4,0
  206d24:	02c004c6 	addi.d	$r6,$r6,1(0x1)
  206d28:	00150085 	move	$r5,$r4
  206d2c:	47ffe91f 	bnez	$r8,-24(0x7fffe8) # 206d14 <_ZN7axalloc15GlobalAllocator5alloc17hb16ded095c2d389eE+0x1c5c>
  206d30:	29c00080 	st.d	$r0,$r4,0
  206d34:	14000445 	lu12i.w	$r5,34(0x22)
  206d38:	038b20a5 	ori	$r5,$r5,0x2c8
  206d3c:	381c1787 	stx.d	$r7,$r28,$r5
  206d40:	28c08068 	ld.d	$r8,$r3,32(0x20)
  206d44:	28c02069 	ld.d	$r9,$r3,8(0x8)
  206d48:	14000445 	lu12i.w	$r5,34(0x22)
  206d4c:	038b00a5 	ori	$r5,$r5,0x2c0
  206d50:	381c1786 	stx.d	$r6,$r28,$r5
  206d54:	29000120 	st.b	$r0,$r9,0
  206d58:	29c02124 	st.d	$r4,$r9,8(0x8)
  206d5c:	00150104 	move	$r4,$r8
  206d60:	04000104 	csrxchg	$r4,$r8,0x0
  206d64:	28c5207f 	ld.d	$r31,$r3,328(0x148)
  206d68:	28c5407e 	ld.d	$r30,$r3,336(0x150)
  206d6c:	28c5607d 	ld.d	$r29,$r3,344(0x158)
  206d70:	28c5807c 	ld.d	$r28,$r3,352(0x160)
  206d74:	28c5a07b 	ld.d	$r27,$r3,360(0x168)
  206d78:	28c5c07a 	ld.d	$r26,$r3,368(0x170)
  206d7c:	28c5e079 	ld.d	$r25,$r3,376(0x178)
  206d80:	28c60078 	ld.d	$r24,$r3,384(0x180)
  206d84:	28c62077 	ld.d	$r23,$r3,392(0x188)
  206d88:	28c64076 	ld.d	$r22,$r3,400(0x190)
  206d8c:	28c66061 	ld.d	$r1,$r3,408(0x198)
  206d90:	02c68063 	addi.d	$r3,$r3,416(0x1a0)
  206d94:	4c000020 	jirl	$r0,$r1,0
  206d98:	1a000204 	pcalau12i	$r4,16(0x10)
  206d9c:	02c9c084 	addi.d	$r4,$r4,624(0x270)
  206da0:	0380ac05 	ori	$r5,$r0,0x2b
  206da4:	1a000226 	pcalau12i	$r6,17(0x11)
  206da8:	02c6e0c6 	addi.d	$r6,$r6,440(0x1b8)
  206dac:	5494dc00 	bl	38108(0x94dc) # 210288 <_ZN4core9panicking5panic17hd6bc259b6eb19bb3E>
  206db0:	38600400 	amswap.w	$r0,$r1,$r0
  206db4:	1a000204 	pcalau12i	$r4,16(0x10)
  206db8:	02f96884 	addi.d	$r4,$r4,-422(0xe5a)
  206dbc:	0380ac05 	ori	$r5,$r0,0x2b
  206dc0:	02c32066 	addi.d	$r6,$r3,200(0xc8)
  206dc4:	1a000227 	pcalau12i	$r7,17(0x11)
  206dc8:	02c7a0e7 	addi.d	$r7,$r7,488(0x1e8)
  206dcc:	1a000228 	pcalau12i	$r8,17(0x11)
  206dd0:	02c82108 	addi.d	$r8,$r8,520(0x208)
  206dd4:	54944400 	bl	37956(0x9444) # 210218 <_ZN4core6result13unwrap_failed17h1feb0e9befb8d2f9E>
  206dd8:	38600400 	amswap.w	$r0,$r1,$r0
  206ddc:	1a000204 	pcalau12i	$r4,16(0x10)
  206de0:	02c9c084 	addi.d	$r4,$r4,624(0x270)
  206de4:	0380ac05 	ori	$r5,$r0,0x2b
  206de8:	1a000226 	pcalau12i	$r6,17(0x11)
  206dec:	02c740c6 	addi.d	$r6,$r6,464(0x1d0)
  206df0:	54949800 	bl	38040(0x9498) # 210288 <_ZN4core9panicking5panic17hd6bc259b6eb19bb3E>
  206df4:	38600400 	amswap.w	$r0,$r1,$r0

0000000000206df8 <__rust_dealloc>:
__rust_dealloc():
  206df8:	02ffc063 	addi.d	$r3,$r3,-16(0xff0)
  206dfc:	29c02061 	st.d	$r1,$r3,8(0x8)
  206e00:	29c00076 	st.d	$r22,$r3,0
  206e04:	03801016 	ori	$r22,$r0,0x4
  206e08:	00150007 	move	$r7,$r0
  206e0c:	040002c7 	csrxchg	$r7,$r22,0x0
  206e10:	57b92fff 	bl	-18132(0xfffb92c) # 20273c <_ZN79_$LT$allocator..slab..SlabByteAllocator$u20$as$u20$allocator..ByteAllocator$GT$7dealloc17h4f56f6574734f8a8E>
  206e14:	001502c4 	move	$r4,$r22
  206e18:	040002c4 	csrxchg	$r4,$r22,0x0
  206e1c:	28c00076 	ld.d	$r22,$r3,0
  206e20:	28c02061 	ld.d	$r1,$r3,8(0x8)
  206e24:	02c04063 	addi.d	$r3,$r3,16(0x10)
  206e28:	4c000020 	jirl	$r0,$r1,0

0000000000206e2c <_ZN53_$LT$axerrno..AxError$u20$as$u20$core..fmt..Debug$GT$3fmt17h3680d57b4e58efc3E>:
_ZN53_$LT$axerrno..AxError$u20$as$u20$core..fmt..Debug$GT$3fmt17h3680d57b4e58efc3E():
  206e2c:	2a800084 	ld.wu	$r4,$r4,0
  206e30:	00410c84 	slli.d	$r4,$r4,0x3
  206e34:	1a000266 	pcalau12i	$r6,19(0x13)
  206e38:	02e180c6 	addi.d	$r6,$r6,-1952(0x860)
  206e3c:	380c10c7 	ldx.d	$r7,$r6,$r4
  206e40:	1a000206 	pcalau12i	$r6,16(0x10)
  206e44:	02ca80c6 	addi.d	$r6,$r6,672(0x2a0)
  206e48:	380c10c6 	ldx.d	$r6,$r6,$r4
  206e4c:	28c080a4 	ld.d	$r4,$r5,32(0x20)
  206e50:	28c0a0a5 	ld.d	$r5,$r5,40(0x28)
  206e54:	28c060a8 	ld.d	$r8,$r5,24(0x18)
  206e58:	001500e5 	move	$r5,$r7
  206e5c:	4c000100 	jirl	$r0,$r8,0

0000000000206e60 <loongarch64_trap_handler>:
loongarch64_trap_handler():
  206e60:	02f60063 	addi.d	$r3,$r3,-640(0xd80)
  206e64:	29c9e061 	st.d	$r1,$r3,632(0x278)
  206e68:	29c9c076 	st.d	$r22,$r3,624(0x270)
  206e6c:	29c9a077 	st.d	$r23,$r3,616(0x268)
  206e70:	29c98078 	st.d	$r24,$r3,608(0x260)
  206e74:	29c96079 	st.d	$r25,$r3,600(0x258)
  206e78:	29c9407a 	st.d	$r26,$r3,592(0x250)
  206e7c:	29c9207b 	st.d	$r27,$r3,584(0x248)
  206e80:	29c9007c 	st.d	$r28,$r3,576(0x240)
  206e84:	29c8e07d 	st.d	$r29,$r3,568(0x238)
  206e88:	29c8c07e 	st.d	$r30,$r3,560(0x230)
  206e8c:	29c8a07f 	st.d	$r31,$r3,552(0x228)
  206e90:	00150096 	move	$r22,$r4
  206e94:	29c1c064 	st.d	$r4,$r3,112(0x70)
  206e98:	04001417 	csrrd	$r23,0x5
  206e9c:	04003004 	csrrd	$r4,0xc
  206ea0:	001502e4 	move	$r4,$r23
  206ea4:	54bb0800 	bl	47880(0xbb08) # 2129ac <_ZN11loongarch648register5estat5Estat5cause17h8628d631df43b606E>
  206ea8:	0343fc84 	andi	$r4,$r4,0xff
  206eac:	40001080 	beqz	$r4,16(0x10) # 206ebc <loongarch64_trap_handler+0x5c>
  206eb0:	03800405 	ori	$r5,$r0,0x1
  206eb4:	583c7085 	beq	$r4,$r5,15472(0x3c70) # 20ab24 <loongarch64_trap_handler+0x3cc4>
  206eb8:	503ca000 	b	15520(0x3ca0) # 20ab58 <loongarch64_trap_handler+0x3cf8>
  206ebc:	0343fca4 	andi	$r4,$r5,0xff
  206ec0:	03803005 	ori	$r5,$r0,0xc
  206ec4:	5809e485 	beq	$r4,$r5,2532(0x9e4) # 2078a8 <loongarch64_trap_handler+0xa48>
  206ec8:	0380041b 	ori	$r27,$r0,0x1
  206ecc:	5c3c8c9b 	bne	$r4,$r27,15500(0x3c8c) # 20ab58 <loongarch64_trap_handler+0x3cf8>
  206ed0:	1a000ec4 	pcalau12i	$r4,118(0x76)
  206ed4:	02d12084 	addi.d	$r4,$r4,1096(0x448)
  206ed8:	29c1a064 	st.d	$r4,$r3,104(0x68)
  206edc:	28c00084 	ld.d	$r4,$r4,0
  206ee0:	03800c17 	ori	$r23,$r0,0x3
  206ee4:	001292e5 	sltu	$r5,$r23,$r4
  206ee8:	02fff484 	addi.d	$r4,$r4,-3(0xffd)
  206eec:	00129004 	sltu	$r4,$r0,$r4
  206ef0:	00139484 	masknez	$r4,$r4,$r5
  206ef4:	02bffc06 	addi.w	$r6,$r0,-1(0xfff)
  206ef8:	001314c5 	maskeqz	$r5,$r6,$r5
  206efc:	001510a4 	or	$r4,$r5,$r4
  206f00:	1a000125 	pcalau12i	$r5,9(0x9)
  206f04:	02cf40a5 	addi.d	$r5,$r5,976(0x3d0)
  206f08:	29c0c065 	st.d	$r5,$r3,48(0x30)
  206f0c:	1a000ec5 	pcalau12i	$r5,118(0x76)
  206f10:	02d100ba 	addi.d	$r26,$r5,1088(0x440)
  206f14:	1a000245 	pcalau12i	$r5,18(0x12)
  206f18:	02d300a5 	addi.d	$r5,$r5,1216(0x4c0)
  206f1c:	29c16065 	st.d	$r5,$r3,88(0x58)
  206f20:	1a0001e5 	pcalau12i	$r5,15(0xf)
  206f24:	02e474bf 	addi.d	$r31,$r5,-1763(0x91d)
  206f28:	1a0001e5 	pcalau12i	$r5,15(0xf)
  206f2c:	02e3fcbe 	addi.d	$r30,$r5,-1793(0x8ff)
  206f30:	1a000205 	pcalau12i	$r5,16(0x10)
  206f34:	02fa14b8 	addi.d	$r24,$r5,-379(0xe85)
  206f38:	1a000205 	pcalau12i	$r5,16(0x10)
  206f3c:	02c420bc 	addi.d	$r28,$r5,264(0x108)
  206f40:	1a000245 	pcalau12i	$r5,18(0x12)
  206f44:	02d220bd 	addi.d	$r29,$r5,1160(0x488)
  206f48:	29c18066 	st.d	$r6,$r3,96(0x60)
  206f4c:	58000c86 	beq	$r4,$r6,12(0xc) # 206f58 <loongarch64_trap_handler+0xf8>
  206f50:	0343fc84 	andi	$r4,$r4,0xff
  206f54:	4400b880 	bnez	$r4,184(0xb8) # 20700c <loongarch64_trap_handler+0x1ac>
  206f58:	00006f64 	cpucfg	$r4,$r27
  206f5c:	28c0c065 	ld.d	$r5,$r3,48(0x30)
  206f60:	29c7e065 	st.d	$r5,$r3,504(0x1f8)
  206f64:	02c1e065 	addi.d	$r5,$r3,120(0x78)
  206f68:	29c7c065 	st.d	$r5,$r3,496(0x1f0)
  206f6c:	00cb1084 	bstrpick.d	$r4,$r4,0xb,0x4
  206f70:	02c00484 	addi.d	$r4,$r4,1(0x1)
  206f74:	29c1e064 	st.d	$r4,$r3,120(0x78)
  206f78:	28c00344 	ld.d	$r4,$r26,0
  206f7c:	38720000 	dbar	0x0
  206f80:	28c16065 	ld.d	$r5,$r3,88(0x58)
  206f84:	28c000a5 	ld.d	$r5,$r5,0
  206f88:	02c7c066 	addi.d	$r6,$r3,496(0x1f0)
  206f8c:	29c42066 	st.d	$r6,$r3,264(0x108)
  206f90:	1a000226 	pcalau12i	$r6,17(0x11)
  206f94:	02d720c6 	addi.d	$r6,$r6,1480(0x5c8)
  206f98:	29c3e066 	st.d	$r6,$r3,248(0xf8)
  206f9c:	29c36077 	st.d	$r23,$r3,216(0xd8)
  206fa0:	29c4407b 	st.d	$r27,$r3,272(0x110)
  206fa4:	29c4007b 	st.d	$r27,$r3,256(0x100)
  206fa8:	00150366 	move	$r6,$r27
  206fac:	16000386 	lu32i.d	$r6,28(0x1c)
  206fb0:	29c3c066 	st.d	$r6,$r3,240(0xf0)
  206fb4:	0380a806 	ori	$r6,$r0,0x2a
  206fb8:	29c34066 	st.d	$r6,$r3,208(0xd0)
  206fbc:	29c3207f 	st.d	$r31,$r3,200(0xc8)
  206fc0:	03807806 	ori	$r6,$r0,0x1e
  206fc4:	29c3a066 	st.d	$r6,$r3,232(0xe8)
  206fc8:	29c2e066 	st.d	$r6,$r3,184(0xb8)
  206fcc:	29c3807e 	st.d	$r30,$r3,224(0xe0)
  206fd0:	29c2c07e 	st.d	$r30,$r3,176(0xb0)
  206fd4:	29c46060 	st.d	$r0,$r3,280(0x118)
  206fd8:	29c30060 	st.d	$r0,$r3,192(0xc0)
  206fdc:	29c2a060 	st.d	$r0,$r3,168(0xa8)
  206fe0:	02fff884 	addi.d	$r4,$r4,-2(0xffe)
  206fe4:	02400486 	sltui	$r6,$r4,1(0x1)
  206fe8:	00139b04 	masknez	$r4,$r24,$r6
  206fec:	00131b87 	maskeqz	$r7,$r28,$r6
  206ff0:	001510e4 	or	$r4,$r7,$r4
  206ff4:	00139ba7 	masknez	$r7,$r29,$r6
  206ff8:	001318a5 	maskeqz	$r5,$r5,$r6
  206ffc:	00151ca5 	or	$r5,$r5,$r7
  207000:	28c0a0a6 	ld.d	$r6,$r5,40(0x28)
  207004:	02c2a065 	addi.d	$r5,$r3,168(0xa8)
  207008:	4c0000c1 	jirl	$r1,$r6,0
  20700c:	28c1a064 	ld.d	$r4,$r3,104(0x68)
  207010:	28c00084 	ld.d	$r4,$r4,0
  207014:	001292e5 	sltu	$r5,$r23,$r4
  207018:	02fff484 	addi.d	$r4,$r4,-3(0xffd)
  20701c:	00129004 	sltu	$r4,$r0,$r4
  207020:	00139484 	masknez	$r4,$r4,$r5
  207024:	28c18066 	ld.d	$r6,$r3,96(0x60)
  207028:	001314c5 	maskeqz	$r5,$r6,$r5
  20702c:	001510a4 	or	$r4,$r5,$r4
  207030:	58000c86 	beq	$r4,$r6,12(0xc) # 20703c <loongarch64_trap_handler+0x1dc>
  207034:	0343fc84 	andi	$r4,$r4,0xff
  207038:	4400b880 	bnez	$r4,184(0xb8) # 2070f0 <loongarch64_trap_handler+0x290>
  20703c:	00006f64 	cpucfg	$r4,$r27
  207040:	28c0c065 	ld.d	$r5,$r3,48(0x30)
  207044:	29c7e065 	st.d	$r5,$r3,504(0x1f8)
  207048:	02c1e065 	addi.d	$r5,$r3,120(0x78)
  20704c:	29c7c065 	st.d	$r5,$r3,496(0x1f0)
  207050:	00d33084 	bstrpick.d	$r4,$r4,0x13,0xc
  207054:	02c00484 	addi.d	$r4,$r4,1(0x1)
  207058:	29c1e064 	st.d	$r4,$r3,120(0x78)
  20705c:	28c00344 	ld.d	$r4,$r26,0
  207060:	38720000 	dbar	0x0
  207064:	28c16065 	ld.d	$r5,$r3,88(0x58)
  207068:	28c000a5 	ld.d	$r5,$r5,0
  20706c:	02c7c066 	addi.d	$r6,$r3,496(0x1f0)
  207070:	29c42066 	st.d	$r6,$r3,264(0x108)
  207074:	1a000206 	pcalau12i	$r6,16(0x10)
  207078:	02d760c6 	addi.d	$r6,$r6,1496(0x5d8)
  20707c:	29c3e066 	st.d	$r6,$r3,248(0xf8)
  207080:	29c36077 	st.d	$r23,$r3,216(0xd8)
  207084:	29c4407b 	st.d	$r27,$r3,272(0x110)
  207088:	29c4007b 	st.d	$r27,$r3,256(0x100)
  20708c:	00150366 	move	$r6,$r27
  207090:	160003a6 	lu32i.d	$r6,29(0x1d)
  207094:	29c3c066 	st.d	$r6,$r3,240(0xf0)
  207098:	0380a806 	ori	$r6,$r0,0x2a
  20709c:	29c34066 	st.d	$r6,$r3,208(0xd0)
  2070a0:	29c3207f 	st.d	$r31,$r3,200(0xc8)
  2070a4:	03807806 	ori	$r6,$r0,0x1e
  2070a8:	29c3a066 	st.d	$r6,$r3,232(0xe8)
  2070ac:	29c2e066 	st.d	$r6,$r3,184(0xb8)
  2070b0:	29c3807e 	st.d	$r30,$r3,224(0xe0)
  2070b4:	29c2c07e 	st.d	$r30,$r3,176(0xb0)
  2070b8:	29c46060 	st.d	$r0,$r3,280(0x118)
  2070bc:	29c30060 	st.d	$r0,$r3,192(0xc0)
  2070c0:	29c2a060 	st.d	$r0,$r3,168(0xa8)
  2070c4:	02fff884 	addi.d	$r4,$r4,-2(0xffe)
  2070c8:	02400486 	sltui	$r6,$r4,1(0x1)
  2070cc:	00139b04 	masknez	$r4,$r24,$r6
  2070d0:	00131b87 	maskeqz	$r7,$r28,$r6
  2070d4:	001510e4 	or	$r4,$r7,$r4
  2070d8:	00139ba7 	masknez	$r7,$r29,$r6
  2070dc:	001318a5 	maskeqz	$r5,$r5,$r6
  2070e0:	00151ca5 	or	$r5,$r5,$r7
  2070e4:	28c0a0a6 	ld.d	$r6,$r5,40(0x28)
  2070e8:	02c2a065 	addi.d	$r5,$r3,168(0xa8)
  2070ec:	4c0000c1 	jirl	$r1,$r6,0
  2070f0:	28c1a064 	ld.d	$r4,$r3,104(0x68)
  2070f4:	28c00084 	ld.d	$r4,$r4,0
  2070f8:	001292e5 	sltu	$r5,$r23,$r4
  2070fc:	02fff484 	addi.d	$r4,$r4,-3(0xffd)
  207100:	00129004 	sltu	$r4,$r0,$r4
  207104:	00139484 	masknez	$r4,$r4,$r5
  207108:	28c18066 	ld.d	$r6,$r3,96(0x60)
  20710c:	001314c5 	maskeqz	$r5,$r6,$r5
  207110:	001510a4 	or	$r4,$r5,$r4
  207114:	1a000165 	pcalau12i	$r5,11(0xb)
  207118:	02e080a5 	addi.d	$r5,$r5,-2016(0x820)
  20711c:	29c12065 	st.d	$r5,$r3,72(0x48)
  207120:	58000c86 	beq	$r4,$r6,12(0xc) # 20712c <loongarch64_trap_handler+0x2cc>
  207124:	0343fc84 	andi	$r4,$r4,0xff
  207128:	4400b480 	bnez	$r4,180(0xb4) # 2071dc <loongarch64_trap_handler+0x37c>
  20712c:	00006f64 	cpucfg	$r4,$r27
  207130:	28c12065 	ld.d	$r5,$r3,72(0x48)
  207134:	29c7e065 	st.d	$r5,$r3,504(0x1f8)
  207138:	02c1e065 	addi.d	$r5,$r3,120(0x78)
  20713c:	29c7c065 	st.d	$r5,$r3,496(0x1f0)
  207140:	00c20884 	bstrpick.d	$r4,$r4,0x2,0x2
  207144:	2901e064 	st.b	$r4,$r3,120(0x78)
  207148:	28c00344 	ld.d	$r4,$r26,0
  20714c:	38720000 	dbar	0x0
  207150:	28c16065 	ld.d	$r5,$r3,88(0x58)
  207154:	28c000a5 	ld.d	$r5,$r5,0
  207158:	02c7c066 	addi.d	$r6,$r3,496(0x1f0)
  20715c:	29c42066 	st.d	$r6,$r3,264(0x108)
  207160:	1a000206 	pcalau12i	$r6,16(0x10)
  207164:	02d7a0c6 	addi.d	$r6,$r6,1512(0x5e8)
  207168:	29c3e066 	st.d	$r6,$r3,248(0xf8)
  20716c:	29c36077 	st.d	$r23,$r3,216(0xd8)
  207170:	29c4407b 	st.d	$r27,$r3,272(0x110)
  207174:	29c4007b 	st.d	$r27,$r3,256(0x100)
  207178:	00150366 	move	$r6,$r27
  20717c:	160003c6 	lu32i.d	$r6,30(0x1e)
  207180:	29c3c066 	st.d	$r6,$r3,240(0xf0)
  207184:	0380a806 	ori	$r6,$r0,0x2a
  207188:	29c34066 	st.d	$r6,$r3,208(0xd0)
  20718c:	29c3207f 	st.d	$r31,$r3,200(0xc8)
  207190:	03807806 	ori	$r6,$r0,0x1e
  207194:	29c3a066 	st.d	$r6,$r3,232(0xe8)
  207198:	29c2e066 	st.d	$r6,$r3,184(0xb8)
  20719c:	29c3807e 	st.d	$r30,$r3,224(0xe0)
  2071a0:	29c2c07e 	st.d	$r30,$r3,176(0xb0)
  2071a4:	29c46060 	st.d	$r0,$r3,280(0x118)
  2071a8:	29c30060 	st.d	$r0,$r3,192(0xc0)
  2071ac:	29c2a060 	st.d	$r0,$r3,168(0xa8)
  2071b0:	02fff884 	addi.d	$r4,$r4,-2(0xffe)
  2071b4:	02400486 	sltui	$r6,$r4,1(0x1)
  2071b8:	00139b04 	masknez	$r4,$r24,$r6
  2071bc:	00131b87 	maskeqz	$r7,$r28,$r6
  2071c0:	001510e4 	or	$r4,$r7,$r4
  2071c4:	00139ba7 	masknez	$r7,$r29,$r6
  2071c8:	001318a5 	maskeqz	$r5,$r5,$r6
  2071cc:	00151ca5 	or	$r5,$r5,$r7
  2071d0:	28c0a0a6 	ld.d	$r6,$r5,40(0x28)
  2071d4:	02c2a065 	addi.d	$r5,$r3,168(0xa8)
  2071d8:	4c0000c1 	jirl	$r1,$r6,0
  2071dc:	28c1a064 	ld.d	$r4,$r3,104(0x68)
  2071e0:	28c00084 	ld.d	$r4,$r4,0
  2071e4:	001292e5 	sltu	$r5,$r23,$r4
  2071e8:	02fff484 	addi.d	$r4,$r4,-3(0xffd)
  2071ec:	00129004 	sltu	$r4,$r0,$r4
  2071f0:	00139484 	masknez	$r4,$r4,$r5
  2071f4:	28c18066 	ld.d	$r6,$r3,96(0x60)
  2071f8:	001314c5 	maskeqz	$r5,$r6,$r5
  2071fc:	001510a4 	or	$r4,$r5,$r4
  207200:	58000c86 	beq	$r4,$r6,12(0xc) # 20720c <loongarch64_trap_handler+0x3ac>
  207204:	0343fc84 	andi	$r4,$r4,0xff
  207208:	4400b480 	bnez	$r4,180(0xb4) # 2072bc <loongarch64_trap_handler+0x45c>
  20720c:	00006f64 	cpucfg	$r4,$r27
  207210:	28c12065 	ld.d	$r5,$r3,72(0x48)
  207214:	29c7e065 	st.d	$r5,$r3,504(0x1f8)
  207218:	02c1e065 	addi.d	$r5,$r3,120(0x78)
  20721c:	29c7c065 	st.d	$r5,$r3,496(0x1f0)
  207220:	00d55484 	bstrpick.d	$r4,$r4,0x15,0x15
  207224:	2901e064 	st.b	$r4,$r3,120(0x78)
  207228:	28c00344 	ld.d	$r4,$r26,0
  20722c:	38720000 	dbar	0x0
  207230:	28c16065 	ld.d	$r5,$r3,88(0x58)
  207234:	28c000a5 	ld.d	$r5,$r5,0
  207238:	02c7c066 	addi.d	$r6,$r3,496(0x1f0)
  20723c:	29c42066 	st.d	$r6,$r3,264(0x108)
  207240:	1a000206 	pcalau12i	$r6,16(0x10)
  207244:	02d7e0c6 	addi.d	$r6,$r6,1528(0x5f8)
  207248:	29c3e066 	st.d	$r6,$r3,248(0xf8)
  20724c:	29c36077 	st.d	$r23,$r3,216(0xd8)
  207250:	29c4407b 	st.d	$r27,$r3,272(0x110)
  207254:	29c4007b 	st.d	$r27,$r3,256(0x100)
  207258:	00150366 	move	$r6,$r27
  20725c:	160003e6 	lu32i.d	$r6,31(0x1f)
  207260:	29c3c066 	st.d	$r6,$r3,240(0xf0)
  207264:	0380a806 	ori	$r6,$r0,0x2a
  207268:	29c34066 	st.d	$r6,$r3,208(0xd0)
  20726c:	29c3207f 	st.d	$r31,$r3,200(0xc8)
  207270:	03807806 	ori	$r6,$r0,0x1e
  207274:	29c3a066 	st.d	$r6,$r3,232(0xe8)
  207278:	29c2e066 	st.d	$r6,$r3,184(0xb8)
  20727c:	29c3807e 	st.d	$r30,$r3,224(0xe0)
  207280:	29c2c07e 	st.d	$r30,$r3,176(0xb0)
  207284:	29c46060 	st.d	$r0,$r3,280(0x118)
  207288:	29c30060 	st.d	$r0,$r3,192(0xc0)
  20728c:	29c2a060 	st.d	$r0,$r3,168(0xa8)
  207290:	02fff884 	addi.d	$r4,$r4,-2(0xffe)
  207294:	02400486 	sltui	$r6,$r4,1(0x1)
  207298:	00139b04 	masknez	$r4,$r24,$r6
  20729c:	00131b87 	maskeqz	$r7,$r28,$r6
  2072a0:	001510e4 	or	$r4,$r7,$r4
  2072a4:	00139ba7 	masknez	$r7,$r29,$r6
  2072a8:	001318a5 	maskeqz	$r5,$r5,$r6
  2072ac:	00151ca5 	or	$r5,$r5,$r7
  2072b0:	28c0a0a6 	ld.d	$r6,$r5,40(0x28)
  2072b4:	02c2a065 	addi.d	$r5,$r3,168(0xa8)
  2072b8:	4c0000c1 	jirl	$r1,$r6,0
  2072bc:	28c1a064 	ld.d	$r4,$r3,104(0x68)
  2072c0:	28c00084 	ld.d	$r4,$r4,0
  2072c4:	001292e5 	sltu	$r5,$r23,$r4
  2072c8:	02fff484 	addi.d	$r4,$r4,-3(0xffd)
  2072cc:	00129004 	sltu	$r4,$r0,$r4
  2072d0:	00139484 	masknez	$r4,$r4,$r5
  2072d4:	28c18066 	ld.d	$r6,$r3,96(0x60)
  2072d8:	001314c5 	maskeqz	$r5,$r6,$r5
  2072dc:	001510a4 	or	$r4,$r5,$r4
  2072e0:	58000c86 	beq	$r4,$r6,12(0xc) # 2072ec <loongarch64_trap_handler+0x48c>
  2072e4:	0343fc84 	andi	$r4,$r4,0xff
  2072e8:	4400b480 	bnez	$r4,180(0xb4) # 20739c <loongarch64_trap_handler+0x53c>
  2072ec:	00006f64 	cpucfg	$r4,$r27
  2072f0:	28c12065 	ld.d	$r5,$r3,72(0x48)
  2072f4:	29c7e065 	st.d	$r5,$r3,504(0x1f8)
  2072f8:	02c1e065 	addi.d	$r5,$r3,120(0x78)
  2072fc:	29c7c065 	st.d	$r5,$r3,496(0x1f0)
  207300:	00d65884 	bstrpick.d	$r4,$r4,0x16,0x16
  207304:	2901e064 	st.b	$r4,$r3,120(0x78)
  207308:	28c00344 	ld.d	$r4,$r26,0
  20730c:	38720000 	dbar	0x0
  207310:	28c16065 	ld.d	$r5,$r3,88(0x58)
  207314:	28c000a5 	ld.d	$r5,$r5,0
  207318:	02c7c066 	addi.d	$r6,$r3,496(0x1f0)
  20731c:	29c42066 	st.d	$r6,$r3,264(0x108)
  207320:	1a000206 	pcalau12i	$r6,16(0x10)
  207324:	02d820c6 	addi.d	$r6,$r6,1544(0x608)
  207328:	29c3e066 	st.d	$r6,$r3,248(0xf8)
  20732c:	29c36077 	st.d	$r23,$r3,216(0xd8)
  207330:	29c4407b 	st.d	$r27,$r3,272(0x110)
  207334:	29c4007b 	st.d	$r27,$r3,256(0x100)
  207338:	00150366 	move	$r6,$r27
  20733c:	16000406 	lu32i.d	$r6,32(0x20)
  207340:	29c3c066 	st.d	$r6,$r3,240(0xf0)
  207344:	0380a806 	ori	$r6,$r0,0x2a
  207348:	29c34066 	st.d	$r6,$r3,208(0xd0)
  20734c:	29c3207f 	st.d	$r31,$r3,200(0xc8)
  207350:	03807806 	ori	$r6,$r0,0x1e
  207354:	29c3a066 	st.d	$r6,$r3,232(0xe8)
  207358:	29c2e066 	st.d	$r6,$r3,184(0xb8)
  20735c:	29c3807e 	st.d	$r30,$r3,224(0xe0)
  207360:	29c2c07e 	st.d	$r30,$r3,176(0xb0)
  207364:	29c46060 	st.d	$r0,$r3,280(0x118)
  207368:	29c30060 	st.d	$r0,$r3,192(0xc0)
  20736c:	29c2a060 	st.d	$r0,$r3,168(0xa8)
  207370:	02fff884 	addi.d	$r4,$r4,-2(0xffe)
  207374:	02400486 	sltui	$r6,$r4,1(0x1)
  207378:	00139b04 	masknez	$r4,$r24,$r6
  20737c:	00131b87 	maskeqz	$r7,$r28,$r6
  207380:	001510e4 	or	$r4,$r7,$r4
  207384:	00139ba7 	masknez	$r7,$r29,$r6
  207388:	001318a5 	maskeqz	$r5,$r5,$r6
  20738c:	00151ca5 	or	$r5,$r5,$r7
  207390:	28c0a0a6 	ld.d	$r6,$r5,40(0x28)
  207394:	02c2a065 	addi.d	$r5,$r3,168(0xa8)
  207398:	4c0000c1 	jirl	$r1,$r6,0
  20739c:	28c1a064 	ld.d	$r4,$r3,104(0x68)
  2073a0:	28c00084 	ld.d	$r4,$r4,0
  2073a4:	001292e5 	sltu	$r5,$r23,$r4
  2073a8:	02fff484 	addi.d	$r4,$r4,-3(0xffd)
  2073ac:	00129004 	sltu	$r4,$r0,$r4
  2073b0:	00139484 	masknez	$r4,$r4,$r5
  2073b4:	28c18066 	ld.d	$r6,$r3,96(0x60)
  2073b8:	001314c5 	maskeqz	$r5,$r6,$r5
  2073bc:	001510a4 	or	$r4,$r5,$r4
  2073c0:	58000c86 	beq	$r4,$r6,12(0xc) # 2073cc <loongarch64_trap_handler+0x56c>
  2073c4:	0343fc84 	andi	$r4,$r4,0xff
  2073c8:	4400b480 	bnez	$r4,180(0xb4) # 20747c <loongarch64_trap_handler+0x61c>
  2073cc:	00006f64 	cpucfg	$r4,$r27
  2073d0:	28c12065 	ld.d	$r5,$r3,72(0x48)
  2073d4:	29c7e065 	st.d	$r5,$r3,504(0x1f8)
  2073d8:	02c1e065 	addi.d	$r5,$r3,120(0x78)
  2073dc:	29c7c065 	st.d	$r5,$r3,496(0x1f0)
  2073e0:	00d75c84 	bstrpick.d	$r4,$r4,0x17,0x17
  2073e4:	2901e064 	st.b	$r4,$r3,120(0x78)
  2073e8:	28c00344 	ld.d	$r4,$r26,0
  2073ec:	38720000 	dbar	0x0
  2073f0:	28c16065 	ld.d	$r5,$r3,88(0x58)
  2073f4:	28c000a5 	ld.d	$r5,$r5,0
  2073f8:	02c7c066 	addi.d	$r6,$r3,496(0x1f0)
  2073fc:	29c42066 	st.d	$r6,$r3,264(0x108)
  207400:	1a000206 	pcalau12i	$r6,16(0x10)
  207404:	02d860c6 	addi.d	$r6,$r6,1560(0x618)
  207408:	29c3e066 	st.d	$r6,$r3,248(0xf8)
  20740c:	29c36077 	st.d	$r23,$r3,216(0xd8)
  207410:	29c4407b 	st.d	$r27,$r3,272(0x110)
  207414:	29c4007b 	st.d	$r27,$r3,256(0x100)
  207418:	00150366 	move	$r6,$r27
  20741c:	16000486 	lu32i.d	$r6,36(0x24)
  207420:	29c3c066 	st.d	$r6,$r3,240(0xf0)
  207424:	0380a806 	ori	$r6,$r0,0x2a
  207428:	29c34066 	st.d	$r6,$r3,208(0xd0)
  20742c:	29c3207f 	st.d	$r31,$r3,200(0xc8)
  207430:	03807806 	ori	$r6,$r0,0x1e
  207434:	29c3a066 	st.d	$r6,$r3,232(0xe8)
  207438:	29c2e066 	st.d	$r6,$r3,184(0xb8)
  20743c:	29c3807e 	st.d	$r30,$r3,224(0xe0)
  207440:	29c2c07e 	st.d	$r30,$r3,176(0xb0)
  207444:	29c46060 	st.d	$r0,$r3,280(0x118)
  207448:	29c30060 	st.d	$r0,$r3,192(0xc0)
  20744c:	29c2a060 	st.d	$r0,$r3,168(0xa8)
  207450:	02fff884 	addi.d	$r4,$r4,-2(0xffe)
  207454:	02400486 	sltui	$r6,$r4,1(0x1)
  207458:	00139b04 	masknez	$r4,$r24,$r6
  20745c:	00131b87 	maskeqz	$r7,$r28,$r6
  207460:	001510e4 	or	$r4,$r7,$r4
  207464:	00139ba7 	masknez	$r7,$r29,$r6
  207468:	001318a5 	maskeqz	$r5,$r5,$r6
  20746c:	00151ca5 	or	$r5,$r5,$r7
  207470:	28c0a0a6 	ld.d	$r6,$r5,40(0x28)
  207474:	02c2a065 	addi.d	$r5,$r3,168(0xa8)
  207478:	4c0000c1 	jirl	$r1,$r6,0
  20747c:	28c1a064 	ld.d	$r4,$r3,104(0x68)
  207480:	28c00084 	ld.d	$r4,$r4,0
  207484:	001292e5 	sltu	$r5,$r23,$r4
  207488:	02fff484 	addi.d	$r4,$r4,-3(0xffd)
  20748c:	00129004 	sltu	$r4,$r0,$r4
  207490:	00139484 	masknez	$r4,$r4,$r5
  207494:	28c18066 	ld.d	$r6,$r3,96(0x60)
  207498:	001314c5 	maskeqz	$r5,$r6,$r5
  20749c:	001510a4 	or	$r4,$r5,$r4
  2074a0:	58000c86 	beq	$r4,$r6,12(0xc) # 2074ac <loongarch64_trap_handler+0x64c>
  2074a4:	0343fc84 	andi	$r4,$r4,0xff
  2074a8:	4400b480 	bnez	$r4,180(0xb4) # 20755c <loongarch64_trap_handler+0x6fc>
  2074ac:	00006ee4 	cpucfg	$r4,$r23
  2074b0:	28c12065 	ld.d	$r5,$r3,72(0x48)
  2074b4:	29c7e065 	st.d	$r5,$r3,504(0x1f8)
  2074b8:	02c1e065 	addi.d	$r5,$r3,120(0x78)
  2074bc:	29c7c065 	st.d	$r5,$r3,496(0x1f0)
  2074c0:	00cc3084 	bstrpick.d	$r4,$r4,0xc,0xc
  2074c4:	2901e064 	st.b	$r4,$r3,120(0x78)
  2074c8:	28c00344 	ld.d	$r4,$r26,0
  2074cc:	38720000 	dbar	0x0
  2074d0:	28c16065 	ld.d	$r5,$r3,88(0x58)
  2074d4:	28c000a5 	ld.d	$r5,$r5,0
  2074d8:	02c7c066 	addi.d	$r6,$r3,496(0x1f0)
  2074dc:	29c42066 	st.d	$r6,$r3,264(0x108)
  2074e0:	1a000206 	pcalau12i	$r6,16(0x10)
  2074e4:	02d8a0c6 	addi.d	$r6,$r6,1576(0x628)
  2074e8:	29c3e066 	st.d	$r6,$r3,248(0xf8)
  2074ec:	29c36077 	st.d	$r23,$r3,216(0xd8)
  2074f0:	29c4407b 	st.d	$r27,$r3,272(0x110)
  2074f4:	29c4007b 	st.d	$r27,$r3,256(0x100)
  2074f8:	00150366 	move	$r6,$r27
  2074fc:	160004a6 	lu32i.d	$r6,37(0x25)
  207500:	29c3c066 	st.d	$r6,$r3,240(0xf0)
  207504:	0380a806 	ori	$r6,$r0,0x2a
  207508:	29c34066 	st.d	$r6,$r3,208(0xd0)
  20750c:	29c3207f 	st.d	$r31,$r3,200(0xc8)
  207510:	03807806 	ori	$r6,$r0,0x1e
  207514:	29c3a066 	st.d	$r6,$r3,232(0xe8)
  207518:	29c2e066 	st.d	$r6,$r3,184(0xb8)
  20751c:	29c3807e 	st.d	$r30,$r3,224(0xe0)
  207520:	29c2c07e 	st.d	$r30,$r3,176(0xb0)
  207524:	29c46060 	st.d	$r0,$r3,280(0x118)
  207528:	29c30060 	st.d	$r0,$r3,192(0xc0)
  20752c:	29c2a060 	st.d	$r0,$r3,168(0xa8)
  207530:	02fff884 	addi.d	$r4,$r4,-2(0xffe)
  207534:	02400486 	sltui	$r6,$r4,1(0x1)
  207538:	00139b04 	masknez	$r4,$r24,$r6
  20753c:	00131b87 	maskeqz	$r7,$r28,$r6
  207540:	001510e4 	or	$r4,$r7,$r4
  207544:	00139ba7 	masknez	$r7,$r29,$r6
  207548:	001318a5 	maskeqz	$r5,$r5,$r6
  20754c:	00151ca5 	or	$r5,$r5,$r7
  207550:	28c0a0a6 	ld.d	$r6,$r5,40(0x28)
  207554:	02c2a065 	addi.d	$r5,$r3,168(0xa8)
  207558:	4c0000c1 	jirl	$r1,$r6,0
  20755c:	28c1a064 	ld.d	$r4,$r3,104(0x68)
  207560:	28c00084 	ld.d	$r4,$r4,0
  207564:	001292e5 	sltu	$r5,$r23,$r4
  207568:	02fff484 	addi.d	$r4,$r4,-3(0xffd)
  20756c:	00129004 	sltu	$r4,$r0,$r4
  207570:	00139484 	masknez	$r4,$r4,$r5
  207574:	28c18066 	ld.d	$r6,$r3,96(0x60)
  207578:	001314c5 	maskeqz	$r5,$r6,$r5
  20757c:	001510a4 	or	$r4,$r5,$r4
  207580:	58000c86 	beq	$r4,$r6,12(0xc) # 20758c <loongarch64_trap_handler+0x72c>
  207584:	0343fc84 	andi	$r4,$r4,0xff
  207588:	4400b880 	bnez	$r4,184(0xb8) # 207640 <loongarch64_trap_handler+0x7e0>
  20758c:	00006ee4 	cpucfg	$r4,$r23
  207590:	28c0c065 	ld.d	$r5,$r3,48(0x30)
  207594:	29c7e065 	st.d	$r5,$r3,504(0x1f8)
  207598:	02c1e065 	addi.d	$r5,$r3,120(0x78)
  20759c:	29c7c065 	st.d	$r5,$r3,496(0x1f0)
  2075a0:	00d03484 	bstrpick.d	$r4,$r4,0x10,0xd
  2075a4:	02c00484 	addi.d	$r4,$r4,1(0x1)
  2075a8:	29c1e064 	st.d	$r4,$r3,120(0x78)
  2075ac:	28c00344 	ld.d	$r4,$r26,0
  2075b0:	38720000 	dbar	0x0
  2075b4:	28c16065 	ld.d	$r5,$r3,88(0x58)
  2075b8:	28c000a5 	ld.d	$r5,$r5,0
  2075bc:	02c7c066 	addi.d	$r6,$r3,496(0x1f0)
  2075c0:	29c42066 	st.d	$r6,$r3,264(0x108)
  2075c4:	1a000206 	pcalau12i	$r6,16(0x10)
  2075c8:	02d8e0c6 	addi.d	$r6,$r6,1592(0x638)
  2075cc:	29c3e066 	st.d	$r6,$r3,248(0xf8)
  2075d0:	29c36077 	st.d	$r23,$r3,216(0xd8)
  2075d4:	29c4407b 	st.d	$r27,$r3,272(0x110)
  2075d8:	29c4007b 	st.d	$r27,$r3,256(0x100)
  2075dc:	00150366 	move	$r6,$r27
  2075e0:	160004c6 	lu32i.d	$r6,38(0x26)
  2075e4:	29c3c066 	st.d	$r6,$r3,240(0xf0)
  2075e8:	0380a806 	ori	$r6,$r0,0x2a
  2075ec:	29c34066 	st.d	$r6,$r3,208(0xd0)
  2075f0:	29c3207f 	st.d	$r31,$r3,200(0xc8)
  2075f4:	03807806 	ori	$r6,$r0,0x1e
  2075f8:	29c3a066 	st.d	$r6,$r3,232(0xe8)
  2075fc:	29c2e066 	st.d	$r6,$r3,184(0xb8)
  207600:	29c3807e 	st.d	$r30,$r3,224(0xe0)
  207604:	29c2c07e 	st.d	$r30,$r3,176(0xb0)
  207608:	29c46060 	st.d	$r0,$r3,280(0x118)
  20760c:	29c30060 	st.d	$r0,$r3,192(0xc0)
  207610:	29c2a060 	st.d	$r0,$r3,168(0xa8)
  207614:	02fff884 	addi.d	$r4,$r4,-2(0xffe)
  207618:	02400486 	sltui	$r6,$r4,1(0x1)
  20761c:	00139b04 	masknez	$r4,$r24,$r6
  207620:	00131b87 	maskeqz	$r7,$r28,$r6
  207624:	001510e4 	or	$r4,$r7,$r4
  207628:	00139ba7 	masknez	$r7,$r29,$r6
  20762c:	001318a5 	maskeqz	$r5,$r5,$r6
  207630:	00151ca5 	or	$r5,$r5,$r7
  207634:	28c0a0a6 	ld.d	$r6,$r5,40(0x28)
  207638:	02c2a065 	addi.d	$r5,$r3,168(0xa8)
  20763c:	4c0000c1 	jirl	$r1,$r6,0
  207640:	28c1a064 	ld.d	$r4,$r3,104(0x68)
  207644:	28c00084 	ld.d	$r4,$r4,0
  207648:	001292e5 	sltu	$r5,$r23,$r4
  20764c:	02fff484 	addi.d	$r4,$r4,-3(0xffd)
  207650:	00129004 	sltu	$r4,$r0,$r4
  207654:	00139484 	masknez	$r4,$r4,$r5
  207658:	28c18066 	ld.d	$r6,$r3,96(0x60)
  20765c:	001314c5 	maskeqz	$r5,$r6,$r5
  207660:	001510a4 	or	$r4,$r5,$r4
  207664:	58000c86 	beq	$r4,$r6,12(0xc) # 207670 <loongarch64_trap_handler+0x810>
  207668:	0343fc84 	andi	$r4,$r4,0xff
  20766c:	4400dc80 	bnez	$r4,220(0xdc) # 207748 <loongarch64_trap_handler+0x8e8>
  207670:	04008804 	csrrd	$r4,0x22
  207674:	29c70064 	st.d	$r4,$r3,448(0x1c0)
  207678:	1a000104 	pcalau12i	$r4,8(0x8)
  20767c:	02c32084 	addi.d	$r4,$r4,200(0xc8)
  207680:	29c20064 	st.d	$r4,$r3,128(0x80)
  207684:	02c70064 	addi.d	$r4,$r3,448(0x1c0)
  207688:	29c1e064 	st.d	$r4,$r3,120(0x78)
  20768c:	03808004 	ori	$r4,$r0,0x20
  207690:	16000084 	lu32i.d	$r4,4(0x4)
  207694:	29c86064 	st.d	$r4,$r3,536(0x218)
  207698:	03800804 	ori	$r4,$r0,0x2
  20769c:	29c80064 	st.d	$r4,$r3,512(0x200)
  2076a0:	29c7c064 	st.d	$r4,$r3,496(0x1f0)
  2076a4:	29088077 	st.b	$r23,$r3,544(0x220)
  2076a8:	29c84060 	st.d	$r0,$r3,528(0x210)
  2076ac:	28c00344 	ld.d	$r4,$r26,0
  2076b0:	38720000 	dbar	0x0
  2076b4:	28c16065 	ld.d	$r5,$r3,88(0x58)
  2076b8:	28c000a5 	ld.d	$r5,$r5,0
  2076bc:	02c7c066 	addi.d	$r6,$r3,496(0x1f0)
  2076c0:	29c46066 	st.d	$r6,$r3,280(0x118)
  2076c4:	02c1e066 	addi.d	$r6,$r3,120(0x78)
  2076c8:	29c42066 	st.d	$r6,$r3,264(0x108)
  2076cc:	1a000206 	pcalau12i	$r6,16(0x10)
  2076d0:	02d920c6 	addi.d	$r6,$r6,1608(0x648)
  2076d4:	29c3e066 	st.d	$r6,$r3,248(0xf8)
  2076d8:	29c36077 	st.d	$r23,$r3,216(0xd8)
  2076dc:	29c4807b 	st.d	$r27,$r3,288(0x120)
  2076e0:	29c4407b 	st.d	$r27,$r3,272(0x110)
  2076e4:	29c4007b 	st.d	$r27,$r3,256(0x100)
  2076e8:	00150366 	move	$r6,$r27
  2076ec:	160004e6 	lu32i.d	$r6,39(0x27)
  2076f0:	29c3c066 	st.d	$r6,$r3,240(0xf0)
  2076f4:	0380a806 	ori	$r6,$r0,0x2a
  2076f8:	29c34066 	st.d	$r6,$r3,208(0xd0)
  2076fc:	29c3207f 	st.d	$r31,$r3,200(0xc8)
  207700:	03807806 	ori	$r6,$r0,0x1e
  207704:	29c3a066 	st.d	$r6,$r3,232(0xe8)
  207708:	29c2e066 	st.d	$r6,$r3,184(0xb8)
  20770c:	29c3807e 	st.d	$r30,$r3,224(0xe0)
  207710:	29c2c07e 	st.d	$r30,$r3,176(0xb0)
  207714:	29c30060 	st.d	$r0,$r3,192(0xc0)
  207718:	29c2a060 	st.d	$r0,$r3,168(0xa8)
  20771c:	02fff884 	addi.d	$r4,$r4,-2(0xffe)
  207720:	02400486 	sltui	$r6,$r4,1(0x1)
  207724:	00139b04 	masknez	$r4,$r24,$r6
  207728:	00131b87 	maskeqz	$r7,$r28,$r6
  20772c:	001510e4 	or	$r4,$r7,$r4
  207730:	00139ba7 	masknez	$r7,$r29,$r6
  207734:	001318a5 	maskeqz	$r5,$r5,$r6
  207738:	00151ca5 	or	$r5,$r5,$r7
  20773c:	28c0a0a6 	ld.d	$r6,$r5,40(0x28)
  207740:	02c2a065 	addi.d	$r5,$r3,168(0xa8)
  207744:	4c0000c1 	jirl	$r1,$r6,0
  207748:	28c1a064 	ld.d	$r4,$r3,104(0x68)
  20774c:	28c00084 	ld.d	$r4,$r4,0
  207750:	001292e5 	sltu	$r5,$r23,$r4
  207754:	02fff484 	addi.d	$r4,$r4,-3(0xffd)
  207758:	00129004 	sltu	$r4,$r0,$r4
  20775c:	00139484 	masknez	$r4,$r4,$r5
  207760:	28c18066 	ld.d	$r6,$r3,96(0x60)
  207764:	001314c5 	maskeqz	$r5,$r6,$r5
  207768:	001510a4 	or	$r4,$r5,$r4
  20776c:	58000c86 	beq	$r4,$r6,12(0xc) # 207778 <loongarch64_trap_handler+0x918>
  207770:	0343fc84 	andi	$r4,$r4,0xff
  207774:	4400b880 	bnez	$r4,184(0xb8) # 20782c <loongarch64_trap_handler+0x9cc>
  207778:	03800804 	ori	$r4,$r0,0x2
  20777c:	00006c85 	cpucfg	$r5,$r4
  207780:	28c12064 	ld.d	$r4,$r3,72(0x48)
  207784:	29c7e064 	st.d	$r4,$r3,504(0x1f8)
  207788:	02c1e064 	addi.d	$r4,$r3,120(0x78)
  20778c:	29c7c064 	st.d	$r4,$r3,496(0x1f0)
  207790:	00d554a4 	bstrpick.d	$r4,$r5,0x15,0x15
  207794:	2901e064 	st.b	$r4,$r3,120(0x78)
  207798:	28c00344 	ld.d	$r4,$r26,0
  20779c:	38720000 	dbar	0x0
  2077a0:	28c16065 	ld.d	$r5,$r3,88(0x58)
  2077a4:	28c000a5 	ld.d	$r5,$r5,0
  2077a8:	02c7c066 	addi.d	$r6,$r3,496(0x1f0)
  2077ac:	29c42066 	st.d	$r6,$r3,264(0x108)
  2077b0:	1a000206 	pcalau12i	$r6,16(0x10)
  2077b4:	02d960c6 	addi.d	$r6,$r6,1624(0x658)
  2077b8:	29c3e066 	st.d	$r6,$r3,248(0xf8)
  2077bc:	29c36077 	st.d	$r23,$r3,216(0xd8)
  2077c0:	29c4407b 	st.d	$r27,$r3,272(0x110)
  2077c4:	29c4007b 	st.d	$r27,$r3,256(0x100)
  2077c8:	00150366 	move	$r6,$r27
  2077cc:	16000506 	lu32i.d	$r6,40(0x28)
  2077d0:	29c3c066 	st.d	$r6,$r3,240(0xf0)
  2077d4:	0380a806 	ori	$r6,$r0,0x2a
  2077d8:	29c34066 	st.d	$r6,$r3,208(0xd0)
  2077dc:	29c3207f 	st.d	$r31,$r3,200(0xc8)
  2077e0:	03807806 	ori	$r6,$r0,0x1e
  2077e4:	29c3a066 	st.d	$r6,$r3,232(0xe8)
  2077e8:	29c2e066 	st.d	$r6,$r3,184(0xb8)
  2077ec:	29c3807e 	st.d	$r30,$r3,224(0xe0)
  2077f0:	29c2c07e 	st.d	$r30,$r3,176(0xb0)
  2077f4:	29c46060 	st.d	$r0,$r3,280(0x118)
  2077f8:	29c30060 	st.d	$r0,$r3,192(0xc0)
  2077fc:	29c2a060 	st.d	$r0,$r3,168(0xa8)
  207800:	02fff884 	addi.d	$r4,$r4,-2(0xffe)
  207804:	02400486 	sltui	$r6,$r4,1(0x1)
  207808:	00139b04 	masknez	$r4,$r24,$r6
  20780c:	00131b87 	maskeqz	$r7,$r28,$r6
  207810:	001510e4 	or	$r4,$r7,$r4
  207814:	00139ba7 	masknez	$r7,$r29,$r6
  207818:	001318a5 	maskeqz	$r5,$r5,$r6
  20781c:	00151ca5 	or	$r5,$r5,$r7
  207820:	28c0a0a6 	ld.d	$r6,$r5,40(0x28)
  207824:	02c2a065 	addi.d	$r5,$r3,168(0xa8)
  207828:	4c0000c1 	jirl	$r1,$r6,0
  20782c:	04008c04 	csrrd	$r4,0x23
  207830:	03403c84 	andi	$r4,$r4,0xf
  207834:	03800805 	ori	$r5,$r0,0x2
  207838:	29c14065 	st.d	$r5,$r3,80(0x50)
  20783c:	5801ac85 	beq	$r4,$r5,428(0x1ac) # 2079e8 <loongarch64_trap_handler+0xb88>
  207840:	5802089b 	beq	$r4,$r27,520(0x208) # 207a48 <loongarch64_trap_handler+0xbe8>
  207844:	44026480 	bnez	$r4,612(0x264) # 207aa8 <loongarch64_trap_handler+0xc48>
  207848:	28c1a064 	ld.d	$r4,$r3,104(0x68)
  20784c:	28c00084 	ld.d	$r4,$r4,0
  207850:	001292e5 	sltu	$r5,$r23,$r4
  207854:	02fff484 	addi.d	$r4,$r4,-3(0xffd)
  207858:	00129004 	sltu	$r4,$r0,$r4
  20785c:	00139484 	masknez	$r4,$r4,$r5
  207860:	28c18066 	ld.d	$r6,$r3,96(0x60)
  207864:	001314c5 	maskeqz	$r5,$r6,$r5
  207868:	001510a4 	or	$r4,$r5,$r4
  20786c:	58000c86 	beq	$r4,$r6,12(0xc) # 207878 <loongarch64_trap_handler+0xa18>
  207870:	0343fc84 	andi	$r4,$r4,0xff
  207874:	4402f480 	bnez	$r4,756(0x2f4) # 207b68 <loongarch64_trap_handler+0xd08>
  207878:	28c00344 	ld.d	$r4,$r26,0
  20787c:	38720000 	dbar	0x0
  207880:	28c16065 	ld.d	$r5,$r3,88(0x58)
  207884:	28c000a5 	ld.d	$r5,$r5,0
  207888:	1a000206 	pcalau12i	$r6,16(0x10)
  20788c:	02d9a0c6 	addi.d	$r6,$r6,1640(0x668)
  207890:	29c3e066 	st.d	$r6,$r3,248(0xf8)
  207894:	29c36077 	st.d	$r23,$r3,216(0xd8)
  207898:	29c4007b 	st.d	$r27,$r3,256(0x100)
  20789c:	00150366 	move	$r6,$r27
  2078a0:	16000566 	lu32i.d	$r6,43(0x2b)
  2078a4:	50026000 	b	608(0x260) # 207b04 <loongarch64_trap_handler+0xca4>
  2078a8:	02c4a2c4 	addi.d	$r4,$r22,296(0x128)
  2078ac:	29c70064 	st.d	$r4,$r3,448(0x1c0)
  2078b0:	1a000ea4 	pcalau12i	$r4,117(0x75)
  2078b4:	02d12084 	addi.d	$r4,$r4,1096(0x448)
  2078b8:	28c00085 	ld.d	$r5,$r4,0
  2078bc:	03801004 	ori	$r4,$r0,0x4
  2078c0:	00129486 	sltu	$r6,$r4,$r5
  2078c4:	02fff0a5 	addi.d	$r5,$r5,-4(0xffc)
  2078c8:	00129405 	sltu	$r5,$r0,$r5
  2078cc:	001398a5 	masknez	$r5,$r5,$r6
  2078d0:	02bffc07 	addi.w	$r7,$r0,-1(0xfff)
  2078d4:	001318e6 	maskeqz	$r6,$r7,$r6
  2078d8:	001514c5 	or	$r5,$r6,$r5
  2078dc:	58000ca7 	beq	$r5,$r7,12(0xc) # 2078e8 <loongarch64_trap_handler+0xa88>
  2078e0:	0343fca5 	andi	$r5,$r5,0xff
  2078e4:	443240a0 	bnez	$r5,12864(0x3240) # 20ab24 <loongarch64_trap_handler+0x3cc4>
  2078e8:	1a000185 	pcalau12i	$r5,12(0xc)
  2078ec:	02ccf0a5 	addi.d	$r5,$r5,828(0x33c)
  2078f0:	29c20065 	st.d	$r5,$r3,128(0x80)
  2078f4:	02c70065 	addi.d	$r5,$r3,448(0x1c0)
  2078f8:	29c1e065 	st.d	$r5,$r3,120(0x78)
  2078fc:	03800c05 	ori	$r5,$r0,0x3
  207900:	29088065 	st.b	$r5,$r3,544(0x220)
  207904:	03808005 	ori	$r5,$r0,0x20
  207908:	16000085 	lu32i.d	$r5,4(0x4)
  20790c:	29c86065 	st.d	$r5,$r3,536(0x218)
  207910:	29c84060 	st.d	$r0,$r3,528(0x210)
  207914:	03800805 	ori	$r5,$r0,0x2
  207918:	29c80065 	st.d	$r5,$r3,512(0x200)
  20791c:	29c7c065 	st.d	$r5,$r3,496(0x1f0)
  207920:	1a000ea6 	pcalau12i	$r6,117(0x75)
  207924:	02d100c6 	addi.d	$r6,$r6,1088(0x440)
  207928:	28c000c6 	ld.d	$r6,$r6,0
  20792c:	38720000 	dbar	0x0
  207930:	1a000227 	pcalau12i	$r7,17(0x11)
  207934:	02d300e7 	addi.d	$r7,$r7,1216(0x4c0)
  207938:	28c000e7 	ld.d	$r7,$r7,0
  20793c:	02c7c068 	addi.d	$r8,$r3,496(0x1f0)
  207940:	29c46068 	st.d	$r8,$r3,280(0x118)
  207944:	02c1e068 	addi.d	$r8,$r3,120(0x78)
  207948:	29c42068 	st.d	$r8,$r3,264(0x108)
  20794c:	29c40065 	st.d	$r5,$r3,256(0x100)
  207950:	1a000225 	pcalau12i	$r5,17(0x11)
  207954:	02e7e0a5 	addi.d	$r5,$r5,-1544(0x9f8)
  207958:	29c3e065 	st.d	$r5,$r3,248(0xf8)
  20795c:	29c36064 	st.d	$r4,$r3,216(0xd8)
  207960:	03800404 	ori	$r4,$r0,0x1
  207964:	29c48064 	st.d	$r4,$r3,288(0x120)
  207968:	29c44064 	st.d	$r4,$r3,272(0x110)
  20796c:	16001b84 	lu32i.d	$r4,220(0xdc)
  207970:	29c3c064 	st.d	$r4,$r3,240(0xf0)
  207974:	0380a804 	ori	$r4,$r0,0x2a
  207978:	29c34064 	st.d	$r4,$r3,208(0xd0)
  20797c:	1a0001c4 	pcalau12i	$r4,14(0xe)
  207980:	02e47484 	addi.d	$r4,$r4,-1763(0x91d)
  207984:	29c32064 	st.d	$r4,$r3,200(0xc8)
  207988:	03807804 	ori	$r4,$r0,0x1e
  20798c:	29c3a064 	st.d	$r4,$r3,232(0xe8)
  207990:	29c2e064 	st.d	$r4,$r3,184(0xb8)
  207994:	1a0001c4 	pcalau12i	$r4,14(0xe)
  207998:	02e3fc84 	addi.d	$r4,$r4,-1793(0x8ff)
  20799c:	29c38064 	st.d	$r4,$r3,224(0xe0)
  2079a0:	29c2c064 	st.d	$r4,$r3,176(0xb0)
  2079a4:	29c30060 	st.d	$r0,$r3,192(0xc0)
  2079a8:	29c2a060 	st.d	$r0,$r3,168(0xa8)
  2079ac:	02fff8c4 	addi.d	$r4,$r6,-2(0xffe)
  2079b0:	02400485 	sltui	$r5,$r4,1(0x1)
  2079b4:	1a0001e4 	pcalau12i	$r4,15(0xf)
  2079b8:	02fa1484 	addi.d	$r4,$r4,-379(0xe85)
  2079bc:	00139484 	masknez	$r4,$r4,$r5
  2079c0:	1a0001e6 	pcalau12i	$r6,15(0xf)
  2079c4:	02c420c6 	addi.d	$r6,$r6,264(0x108)
  2079c8:	001314c6 	maskeqz	$r6,$r6,$r5
  2079cc:	001510c4 	or	$r4,$r6,$r4
  2079d0:	1a000226 	pcalau12i	$r6,17(0x11)
  2079d4:	02d220c6 	addi.d	$r6,$r6,1160(0x488)
  2079d8:	001394c6 	masknez	$r6,$r6,$r5
  2079dc:	001314e5 	maskeqz	$r5,$r7,$r5
  2079e0:	001518a5 	or	$r5,$r5,$r6
  2079e4:	50313400 	b	12596(0x3134) # 20ab18 <loongarch64_trap_handler+0x3cb8>
  2079e8:	28c1a064 	ld.d	$r4,$r3,104(0x68)
  2079ec:	28c00084 	ld.d	$r4,$r4,0
  2079f0:	001292e5 	sltu	$r5,$r23,$r4
  2079f4:	02fff484 	addi.d	$r4,$r4,-3(0xffd)
  2079f8:	00129004 	sltu	$r4,$r0,$r4
  2079fc:	00139484 	masknez	$r4,$r4,$r5
  207a00:	28c18066 	ld.d	$r6,$r3,96(0x60)
  207a04:	001314c5 	maskeqz	$r5,$r6,$r5
  207a08:	001510a4 	or	$r4,$r5,$r4
  207a0c:	58000c86 	beq	$r4,$r6,12(0xc) # 207a18 <loongarch64_trap_handler+0xbb8>
  207a10:	0343fc84 	andi	$r4,$r4,0xff
  207a14:	44015480 	bnez	$r4,340(0x154) # 207b68 <loongarch64_trap_handler+0xd08>
  207a18:	28c00344 	ld.d	$r4,$r26,0
  207a1c:	38720000 	dbar	0x0
  207a20:	28c16065 	ld.d	$r5,$r3,88(0x58)
  207a24:	28c000a5 	ld.d	$r5,$r5,0
  207a28:	1a000206 	pcalau12i	$r6,16(0x10)
  207a2c:	02da20c6 	addi.d	$r6,$r6,1672(0x688)
  207a30:	29c3e066 	st.d	$r6,$r3,248(0xf8)
  207a34:	29c36077 	st.d	$r23,$r3,216(0xd8)
  207a38:	29c4007b 	st.d	$r27,$r3,256(0x100)
  207a3c:	00150366 	move	$r6,$r27
  207a40:	16000626 	lu32i.d	$r6,49(0x31)
  207a44:	5000c000 	b	192(0xc0) # 207b04 <loongarch64_trap_handler+0xca4>
  207a48:	28c1a064 	ld.d	$r4,$r3,104(0x68)
  207a4c:	28c00084 	ld.d	$r4,$r4,0
  207a50:	001292e5 	sltu	$r5,$r23,$r4
  207a54:	02fff484 	addi.d	$r4,$r4,-3(0xffd)
  207a58:	00129004 	sltu	$r4,$r0,$r4
  207a5c:	00139484 	masknez	$r4,$r4,$r5
  207a60:	28c18066 	ld.d	$r6,$r3,96(0x60)
  207a64:	001314c5 	maskeqz	$r5,$r6,$r5
  207a68:	001510a4 	or	$r4,$r5,$r4
  207a6c:	58000c86 	beq	$r4,$r6,12(0xc) # 207a78 <loongarch64_trap_handler+0xc18>
  207a70:	0343fc84 	andi	$r4,$r4,0xff
  207a74:	4400f480 	bnez	$r4,244(0xf4) # 207b68 <loongarch64_trap_handler+0xd08>
  207a78:	28c00344 	ld.d	$r4,$r26,0
  207a7c:	38720000 	dbar	0x0
  207a80:	28c16065 	ld.d	$r5,$r3,88(0x58)
  207a84:	28c000a5 	ld.d	$r5,$r5,0
  207a88:	1a000206 	pcalau12i	$r6,16(0x10)
  207a8c:	02d9e0c6 	addi.d	$r6,$r6,1656(0x678)
  207a90:	29c3e066 	st.d	$r6,$r3,248(0xf8)
  207a94:	29c36077 	st.d	$r23,$r3,216(0xd8)
  207a98:	29c4007b 	st.d	$r27,$r3,256(0x100)
  207a9c:	00150366 	move	$r6,$r27
  207aa0:	160005c6 	lu32i.d	$r6,46(0x2e)
  207aa4:	50006000 	b	96(0x60) # 207b04 <loongarch64_trap_handler+0xca4>
  207aa8:	28c1a064 	ld.d	$r4,$r3,104(0x68)
  207aac:	28c00084 	ld.d	$r4,$r4,0
  207ab0:	001292e5 	sltu	$r5,$r23,$r4
  207ab4:	02fff484 	addi.d	$r4,$r4,-3(0xffd)
  207ab8:	00129004 	sltu	$r4,$r0,$r4
  207abc:	00139484 	masknez	$r4,$r4,$r5
  207ac0:	28c18066 	ld.d	$r6,$r3,96(0x60)
  207ac4:	001314c5 	maskeqz	$r5,$r6,$r5
  207ac8:	001510a4 	or	$r4,$r5,$r4
  207acc:	58000c86 	beq	$r4,$r6,12(0xc) # 207ad8 <loongarch64_trap_handler+0xc78>
  207ad0:	0343fc84 	andi	$r4,$r4,0xff
  207ad4:	44009480 	bnez	$r4,148(0x94) # 207b68 <loongarch64_trap_handler+0xd08>
  207ad8:	28c00344 	ld.d	$r4,$r26,0
  207adc:	38720000 	dbar	0x0
  207ae0:	28c16065 	ld.d	$r5,$r3,88(0x58)
  207ae4:	28c000a5 	ld.d	$r5,$r5,0
  207ae8:	1a000206 	pcalau12i	$r6,16(0x10)
  207aec:	02da60c6 	addi.d	$r6,$r6,1688(0x698)
  207af0:	29c3e066 	st.d	$r6,$r3,248(0xf8)
  207af4:	29c36077 	st.d	$r23,$r3,216(0xd8)
  207af8:	29c4007b 	st.d	$r27,$r3,256(0x100)
  207afc:	00150366 	move	$r6,$r27
  207b00:	16000686 	lu32i.d	$r6,52(0x34)
  207b04:	29c3c066 	st.d	$r6,$r3,240(0xf0)
  207b08:	0380a806 	ori	$r6,$r0,0x2a
  207b0c:	29c34066 	st.d	$r6,$r3,208(0xd0)
  207b10:	29c3207f 	st.d	$r31,$r3,200(0xc8)
  207b14:	03807806 	ori	$r6,$r0,0x1e
  207b18:	29c3a066 	st.d	$r6,$r3,232(0xe8)
  207b1c:	29c2e066 	st.d	$r6,$r3,184(0xb8)
  207b20:	29c3807e 	st.d	$r30,$r3,224(0xe0)
  207b24:	29c2c07e 	st.d	$r30,$r3,176(0xb0)
  207b28:	29c44060 	st.d	$r0,$r3,272(0x110)
  207b2c:	29c46060 	st.d	$r0,$r3,280(0x118)
  207b30:	29c30060 	st.d	$r0,$r3,192(0xc0)
  207b34:	29c2a060 	st.d	$r0,$r3,168(0xa8)
  207b38:	02fff884 	addi.d	$r4,$r4,-2(0xffe)
  207b3c:	02400486 	sltui	$r6,$r4,1(0x1)
  207b40:	29c4207c 	st.d	$r28,$r3,264(0x108)
  207b44:	00139b04 	masknez	$r4,$r24,$r6
  207b48:	00131b87 	maskeqz	$r7,$r28,$r6
  207b4c:	001510e4 	or	$r4,$r7,$r4
  207b50:	00139ba7 	masknez	$r7,$r29,$r6
  207b54:	001318a5 	maskeqz	$r5,$r5,$r6
  207b58:	00151ca5 	or	$r5,$r5,$r7
  207b5c:	28c0a0a6 	ld.d	$r6,$r5,40(0x28)
  207b60:	02c2a065 	addi.d	$r5,$r3,168(0xa8)
  207b64:	4c0000c1 	jirl	$r1,$r6,0
  207b68:	28c1a064 	ld.d	$r4,$r3,104(0x68)
  207b6c:	28c00084 	ld.d	$r4,$r4,0
  207b70:	001292e5 	sltu	$r5,$r23,$r4
  207b74:	02fff484 	addi.d	$r4,$r4,-3(0xffd)
  207b78:	00129004 	sltu	$r4,$r0,$r4
  207b7c:	00139484 	masknez	$r4,$r4,$r5
  207b80:	28c18066 	ld.d	$r6,$r3,96(0x60)
  207b84:	001314c5 	maskeqz	$r5,$r6,$r5
  207b88:	001510a4 	or	$r4,$r5,$r4
  207b8c:	1a000105 	pcalau12i	$r5,8(0x8)
  207b90:	02c5f0b6 	addi.d	$r22,$r5,380(0x17c)
  207b94:	58000c86 	beq	$r4,$r6,12(0xc) # 207ba0 <loongarch64_trap_handler+0xd40>
  207b98:	0343fc84 	andi	$r4,$r4,0xff
  207b9c:	4400b080 	bnez	$r4,176(0xb0) # 207c4c <loongarch64_trap_handler+0xdec>
  207ba0:	04008c04 	csrrd	$r4,0x23
  207ba4:	29c7e076 	st.d	$r22,$r3,504(0x1f8)
  207ba8:	02c1e065 	addi.d	$r5,$r3,120(0x78)
  207bac:	29c7c065 	st.d	$r5,$r3,496(0x1f0)
  207bb0:	00cb1084 	bstrpick.d	$r4,$r4,0xb,0x4
  207bb4:	2981e064 	st.w	$r4,$r3,120(0x78)
  207bb8:	28c00344 	ld.d	$r4,$r26,0
  207bbc:	38720000 	dbar	0x0
  207bc0:	28c16065 	ld.d	$r5,$r3,88(0x58)
  207bc4:	28c000a5 	ld.d	$r5,$r5,0
  207bc8:	02c7c066 	addi.d	$r6,$r3,496(0x1f0)
  207bcc:	29c42066 	st.d	$r6,$r3,264(0x108)
  207bd0:	1a000206 	pcalau12i	$r6,16(0x10)
  207bd4:	02daa0c6 	addi.d	$r6,$r6,1704(0x6a8)
  207bd8:	29c3e066 	st.d	$r6,$r3,248(0xf8)
  207bdc:	29c36077 	st.d	$r23,$r3,216(0xd8)
  207be0:	29c4407b 	st.d	$r27,$r3,272(0x110)
  207be4:	29c4007b 	st.d	$r27,$r3,256(0x100)
  207be8:	00150366 	move	$r6,$r27
  207bec:	160006e6 	lu32i.d	$r6,55(0x37)
  207bf0:	29c3c066 	st.d	$r6,$r3,240(0xf0)
  207bf4:	0380a806 	ori	$r6,$r0,0x2a
  207bf8:	29c34066 	st.d	$r6,$r3,208(0xd0)
  207bfc:	29c3207f 	st.d	$r31,$r3,200(0xc8)
  207c00:	03807806 	ori	$r6,$r0,0x1e
  207c04:	29c3a066 	st.d	$r6,$r3,232(0xe8)
  207c08:	29c2e066 	st.d	$r6,$r3,184(0xb8)
  207c0c:	29c3807e 	st.d	$r30,$r3,224(0xe0)
  207c10:	29c2c07e 	st.d	$r30,$r3,176(0xb0)
  207c14:	29c46060 	st.d	$r0,$r3,280(0x118)
  207c18:	29c30060 	st.d	$r0,$r3,192(0xc0)
  207c1c:	29c2a060 	st.d	$r0,$r3,168(0xa8)
  207c20:	02fff884 	addi.d	$r4,$r4,-2(0xffe)
  207c24:	02400486 	sltui	$r6,$r4,1(0x1)
  207c28:	00139b04 	masknez	$r4,$r24,$r6
  207c2c:	00131b87 	maskeqz	$r7,$r28,$r6
  207c30:	001510e4 	or	$r4,$r7,$r4
  207c34:	00139ba7 	masknez	$r7,$r29,$r6
  207c38:	001318a5 	maskeqz	$r5,$r5,$r6
  207c3c:	00151ca5 	or	$r5,$r5,$r7
  207c40:	28c0a0a6 	ld.d	$r6,$r5,40(0x28)
  207c44:	02c2a065 	addi.d	$r5,$r3,168(0xa8)
  207c48:	4c0000c1 	jirl	$r1,$r6,0
  207c4c:	28c1a064 	ld.d	$r4,$r3,104(0x68)
  207c50:	28c00084 	ld.d	$r4,$r4,0
  207c54:	001292e5 	sltu	$r5,$r23,$r4
  207c58:	02fff484 	addi.d	$r4,$r4,-3(0xffd)
  207c5c:	00129004 	sltu	$r4,$r0,$r4
  207c60:	00139484 	masknez	$r4,$r4,$r5
  207c64:	28c18066 	ld.d	$r6,$r3,96(0x60)
  207c68:	001314c5 	maskeqz	$r5,$r6,$r5
  207c6c:	001510a4 	or	$r4,$r5,$r4
  207c70:	58000c86 	beq	$r4,$r6,12(0xc) # 207c7c <loongarch64_trap_handler+0xe1c>
  207c74:	0343fc84 	andi	$r4,$r4,0xff
  207c78:	4400b480 	bnez	$r4,180(0xb4) # 207d2c <loongarch64_trap_handler+0xecc>
  207c7c:	04008c04 	csrrd	$r4,0x23
  207c80:	29c7e076 	st.d	$r22,$r3,504(0x1f8)
  207c84:	02c1e065 	addi.d	$r5,$r3,120(0x78)
  207c88:	29c7c065 	st.d	$r5,$r3,496(0x1f0)
  207c8c:	00d33084 	bstrpick.d	$r4,$r4,0x13,0xc
  207c90:	02c00484 	addi.d	$r4,$r4,1(0x1)
  207c94:	2981e064 	st.w	$r4,$r3,120(0x78)
  207c98:	28c00344 	ld.d	$r4,$r26,0
  207c9c:	38720000 	dbar	0x0
  207ca0:	28c16065 	ld.d	$r5,$r3,88(0x58)
  207ca4:	28c000a5 	ld.d	$r5,$r5,0
  207ca8:	02c7c066 	addi.d	$r6,$r3,496(0x1f0)
  207cac:	29c42066 	st.d	$r6,$r3,264(0x108)
  207cb0:	1a000206 	pcalau12i	$r6,16(0x10)
  207cb4:	02dae0c6 	addi.d	$r6,$r6,1720(0x6b8)
  207cb8:	29c3e066 	st.d	$r6,$r3,248(0xf8)
  207cbc:	29c36077 	st.d	$r23,$r3,216(0xd8)
  207cc0:	29c4407b 	st.d	$r27,$r3,272(0x110)
  207cc4:	29c4007b 	st.d	$r27,$r3,256(0x100)
  207cc8:	00150366 	move	$r6,$r27
  207ccc:	16000706 	lu32i.d	$r6,56(0x38)
  207cd0:	29c3c066 	st.d	$r6,$r3,240(0xf0)
  207cd4:	0380a806 	ori	$r6,$r0,0x2a
  207cd8:	29c34066 	st.d	$r6,$r3,208(0xd0)
  207cdc:	29c3207f 	st.d	$r31,$r3,200(0xc8)
  207ce0:	03807806 	ori	$r6,$r0,0x1e
  207ce4:	29c3a066 	st.d	$r6,$r3,232(0xe8)
  207ce8:	29c2e066 	st.d	$r6,$r3,184(0xb8)
  207cec:	29c3807e 	st.d	$r30,$r3,224(0xe0)
  207cf0:	29c2c07e 	st.d	$r30,$r3,176(0xb0)
  207cf4:	29c46060 	st.d	$r0,$r3,280(0x118)
  207cf8:	29c30060 	st.d	$r0,$r3,192(0xc0)
  207cfc:	29c2a060 	st.d	$r0,$r3,168(0xa8)
  207d00:	02fff884 	addi.d	$r4,$r4,-2(0xffe)
  207d04:	02400486 	sltui	$r6,$r4,1(0x1)
  207d08:	00139b04 	masknez	$r4,$r24,$r6
  207d0c:	00131b87 	maskeqz	$r7,$r28,$r6
  207d10:	001510e4 	or	$r4,$r7,$r4
  207d14:	00139ba7 	masknez	$r7,$r29,$r6
  207d18:	001318a5 	maskeqz	$r5,$r5,$r6
  207d1c:	00151ca5 	or	$r5,$r5,$r7
  207d20:	28c0a0a6 	ld.d	$r6,$r5,40(0x28)
  207d24:	02c2a065 	addi.d	$r5,$r3,168(0xa8)
  207d28:	4c0000c1 	jirl	$r1,$r6,0
  207d2c:	28c1a064 	ld.d	$r4,$r3,104(0x68)
  207d30:	28c00084 	ld.d	$r4,$r4,0
  207d34:	001292e5 	sltu	$r5,$r23,$r4
  207d38:	02fff484 	addi.d	$r4,$r4,-3(0xffd)
  207d3c:	00129004 	sltu	$r4,$r0,$r4
  207d40:	00139484 	masknez	$r4,$r4,$r5
  207d44:	28c18066 	ld.d	$r6,$r3,96(0x60)
  207d48:	001314c5 	maskeqz	$r5,$r6,$r5
  207d4c:	001510a4 	or	$r4,$r5,$r4
  207d50:	58000c86 	beq	$r4,$r6,12(0xc) # 207d5c <loongarch64_trap_handler+0xefc>
  207d54:	0343fc84 	andi	$r4,$r4,0xff
  207d58:	4400b080 	bnez	$r4,176(0xb0) # 207e08 <loongarch64_trap_handler+0xfa8>
  207d5c:	04008c04 	csrrd	$r4,0x23
  207d60:	29c7e076 	st.d	$r22,$r3,504(0x1f8)
  207d64:	02c1e065 	addi.d	$r5,$r3,120(0x78)
  207d68:	29c7c065 	st.d	$r5,$r3,496(0x1f0)
  207d6c:	00d95084 	bstrpick.d	$r4,$r4,0x19,0x14
  207d70:	2981e064 	st.w	$r4,$r3,120(0x78)
  207d74:	28c00344 	ld.d	$r4,$r26,0
  207d78:	38720000 	dbar	0x0
  207d7c:	28c16065 	ld.d	$r5,$r3,88(0x58)
  207d80:	28c000a5 	ld.d	$r5,$r5,0
  207d84:	02c7c066 	addi.d	$r6,$r3,496(0x1f0)
  207d88:	29c42066 	st.d	$r6,$r3,264(0x108)
  207d8c:	1a000206 	pcalau12i	$r6,16(0x10)
  207d90:	02db20c6 	addi.d	$r6,$r6,1736(0x6c8)
  207d94:	29c3e066 	st.d	$r6,$r3,248(0xf8)
  207d98:	29c36077 	st.d	$r23,$r3,216(0xd8)
  207d9c:	29c4407b 	st.d	$r27,$r3,272(0x110)
  207da0:	29c4007b 	st.d	$r27,$r3,256(0x100)
  207da4:	00150366 	move	$r6,$r27
  207da8:	16000726 	lu32i.d	$r6,57(0x39)
  207dac:	29c3c066 	st.d	$r6,$r3,240(0xf0)
  207db0:	0380a806 	ori	$r6,$r0,0x2a
  207db4:	29c34066 	st.d	$r6,$r3,208(0xd0)
  207db8:	29c3207f 	st.d	$r31,$r3,200(0xc8)
  207dbc:	03807806 	ori	$r6,$r0,0x1e
  207dc0:	29c3a066 	st.d	$r6,$r3,232(0xe8)
  207dc4:	29c2e066 	st.d	$r6,$r3,184(0xb8)
  207dc8:	29c3807e 	st.d	$r30,$r3,224(0xe0)
  207dcc:	29c2c07e 	st.d	$r30,$r3,176(0xb0)
  207dd0:	29c46060 	st.d	$r0,$r3,280(0x118)
  207dd4:	29c30060 	st.d	$r0,$r3,192(0xc0)
  207dd8:	29c2a060 	st.d	$r0,$r3,168(0xa8)
  207ddc:	02fff884 	addi.d	$r4,$r4,-2(0xffe)
  207de0:	02400486 	sltui	$r6,$r4,1(0x1)
  207de4:	00139b04 	masknez	$r4,$r24,$r6
  207de8:	00131b87 	maskeqz	$r7,$r28,$r6
  207dec:	001510e4 	or	$r4,$r7,$r4
  207df0:	00139ba7 	masknez	$r7,$r29,$r6
  207df4:	001318a5 	maskeqz	$r5,$r5,$r6
  207df8:	00151ca5 	or	$r5,$r5,$r7
  207dfc:	28c0a0a6 	ld.d	$r6,$r5,40(0x28)
  207e00:	02c2a065 	addi.d	$r5,$r3,168(0xa8)
  207e04:	4c0000c1 	jirl	$r1,$r6,0
  207e08:	28c1a064 	ld.d	$r4,$r3,104(0x68)
  207e0c:	28c00084 	ld.d	$r4,$r4,0
  207e10:	001292e5 	sltu	$r5,$r23,$r4
  207e14:	02fff484 	addi.d	$r4,$r4,-3(0xffd)
  207e18:	00129004 	sltu	$r4,$r0,$r4
  207e1c:	00139484 	masknez	$r4,$r4,$r5
  207e20:	28c18066 	ld.d	$r6,$r3,96(0x60)
  207e24:	001314c5 	maskeqz	$r5,$r6,$r5
  207e28:	001510a4 	or	$r4,$r5,$r4
  207e2c:	58000c86 	beq	$r4,$r6,12(0xc) # 207e38 <loongarch64_trap_handler+0xfd8>
  207e30:	0343fc84 	andi	$r4,$r4,0xff
  207e34:	4400b080 	bnez	$r4,176(0xb0) # 207ee4 <loongarch64_trap_handler+0x1084>
  207e38:	04007804 	csrrd	$r4,0x1e
  207e3c:	29c7e076 	st.d	$r22,$r3,504(0x1f8)
  207e40:	02c1e065 	addi.d	$r5,$r3,120(0x78)
  207e44:	29c7c065 	st.d	$r5,$r3,496(0x1f0)
  207e48:	0340fc84 	andi	$r4,$r4,0x3f
  207e4c:	2981e064 	st.w	$r4,$r3,120(0x78)
  207e50:	28c00344 	ld.d	$r4,$r26,0
  207e54:	38720000 	dbar	0x0
  207e58:	28c16065 	ld.d	$r5,$r3,88(0x58)
  207e5c:	28c000a5 	ld.d	$r5,$r5,0
  207e60:	02c7c066 	addi.d	$r6,$r3,496(0x1f0)
  207e64:	29c42066 	st.d	$r6,$r3,264(0x108)
  207e68:	1a000206 	pcalau12i	$r6,16(0x10)
  207e6c:	02db60c6 	addi.d	$r6,$r6,1752(0x6d8)
  207e70:	29c3e066 	st.d	$r6,$r3,248(0xf8)
  207e74:	29c36077 	st.d	$r23,$r3,216(0xd8)
  207e78:	29c4407b 	st.d	$r27,$r3,272(0x110)
  207e7c:	29c4007b 	st.d	$r27,$r3,256(0x100)
  207e80:	00150366 	move	$r6,$r27
  207e84:	16000746 	lu32i.d	$r6,58(0x3a)
  207e88:	29c3c066 	st.d	$r6,$r3,240(0xf0)
  207e8c:	0380a806 	ori	$r6,$r0,0x2a
  207e90:	29c34066 	st.d	$r6,$r3,208(0xd0)
  207e94:	29c3207f 	st.d	$r31,$r3,200(0xc8)
  207e98:	03807806 	ori	$r6,$r0,0x1e
  207e9c:	29c3a066 	st.d	$r6,$r3,232(0xe8)
  207ea0:	29c2e066 	st.d	$r6,$r3,184(0xb8)
  207ea4:	29c3807e 	st.d	$r30,$r3,224(0xe0)
  207ea8:	29c2c07e 	st.d	$r30,$r3,176(0xb0)
  207eac:	29c46060 	st.d	$r0,$r3,280(0x118)
  207eb0:	29c30060 	st.d	$r0,$r3,192(0xc0)
  207eb4:	29c2a060 	st.d	$r0,$r3,168(0xa8)
  207eb8:	02fff884 	addi.d	$r4,$r4,-2(0xffe)
  207ebc:	02400486 	sltui	$r6,$r4,1(0x1)
  207ec0:	00139b04 	masknez	$r4,$r24,$r6
  207ec4:	00131b87 	maskeqz	$r7,$r28,$r6
  207ec8:	001510e4 	or	$r4,$r7,$r4
  207ecc:	00139ba7 	masknez	$r7,$r29,$r6
  207ed0:	001318a5 	maskeqz	$r5,$r5,$r6
  207ed4:	00151ca5 	or	$r5,$r5,$r7
  207ed8:	28c0a0a6 	ld.d	$r6,$r5,40(0x28)
  207edc:	02c2a065 	addi.d	$r5,$r3,168(0xa8)
  207ee0:	4c0000c1 	jirl	$r1,$r6,0
  207ee4:	28c1a064 	ld.d	$r4,$r3,104(0x68)
  207ee8:	28c00084 	ld.d	$r4,$r4,0
  207eec:	001292e5 	sltu	$r5,$r23,$r4
  207ef0:	02fff484 	addi.d	$r4,$r4,-3(0xffd)
  207ef4:	00129004 	sltu	$r4,$r0,$r4
  207ef8:	00139484 	masknez	$r4,$r4,$r5
  207efc:	28c18066 	ld.d	$r6,$r3,96(0x60)
  207f00:	001314c5 	maskeqz	$r5,$r6,$r5
  207f04:	001510a4 	or	$r4,$r5,$r4
  207f08:	58000c86 	beq	$r4,$r6,12(0xc) # 207f14 <loongarch64_trap_handler+0x10b4>
  207f0c:	0343fc84 	andi	$r4,$r4,0xff
  207f10:	4400b880 	bnez	$r4,184(0xb8) # 207fc8 <loongarch64_trap_handler+0x1168>
  207f14:	04007004 	csrrd	$r4,0x1c
  207f18:	29c7e076 	st.d	$r22,$r3,504(0x1f8)
  207f1c:	02c1e065 	addi.d	$r5,$r3,120(0x78)
  207f20:	29c7c065 	st.d	$r5,$r3,496(0x1f0)
  207f24:	00456084 	srli.d	$r4,$r4,0x18
  207f28:	03430084 	andi	$r4,$r4,0xc0
  207f2c:	02c10084 	addi.d	$r4,$r4,64(0x40)
  207f30:	2981e064 	st.w	$r4,$r3,120(0x78)
  207f34:	28c00344 	ld.d	$r4,$r26,0
  207f38:	38720000 	dbar	0x0
  207f3c:	28c16065 	ld.d	$r5,$r3,88(0x58)
  207f40:	28c000a5 	ld.d	$r5,$r5,0
  207f44:	02c7c066 	addi.d	$r6,$r3,496(0x1f0)
  207f48:	29c42066 	st.d	$r6,$r3,264(0x108)
  207f4c:	1a000206 	pcalau12i	$r6,16(0x10)
  207f50:	02dba0c6 	addi.d	$r6,$r6,1768(0x6e8)
  207f54:	29c3e066 	st.d	$r6,$r3,248(0xf8)
  207f58:	29c36077 	st.d	$r23,$r3,216(0xd8)
  207f5c:	29c4407b 	st.d	$r27,$r3,272(0x110)
  207f60:	29c4007b 	st.d	$r27,$r3,256(0x100)
  207f64:	00150366 	move	$r6,$r27
  207f68:	16000766 	lu32i.d	$r6,59(0x3b)
  207f6c:	29c3c066 	st.d	$r6,$r3,240(0xf0)
  207f70:	0380a806 	ori	$r6,$r0,0x2a
  207f74:	29c34066 	st.d	$r6,$r3,208(0xd0)
  207f78:	29c3207f 	st.d	$r31,$r3,200(0xc8)
  207f7c:	03807806 	ori	$r6,$r0,0x1e
  207f80:	29c3a066 	st.d	$r6,$r3,232(0xe8)
  207f84:	29c2e066 	st.d	$r6,$r3,184(0xb8)
  207f88:	29c3807e 	st.d	$r30,$r3,224(0xe0)
  207f8c:	29c2c07e 	st.d	$r30,$r3,176(0xb0)
  207f90:	29c46060 	st.d	$r0,$r3,280(0x118)
  207f94:	29c30060 	st.d	$r0,$r3,192(0xc0)
  207f98:	29c2a060 	st.d	$r0,$r3,168(0xa8)
  207f9c:	02fff884 	addi.d	$r4,$r4,-2(0xffe)
  207fa0:	02400486 	sltui	$r6,$r4,1(0x1)
  207fa4:	00139b04 	masknez	$r4,$r24,$r6
  207fa8:	00131b87 	maskeqz	$r7,$r28,$r6
  207fac:	001510e4 	or	$r4,$r7,$r4
  207fb0:	00139ba7 	masknez	$r7,$r29,$r6
  207fb4:	001318a5 	maskeqz	$r5,$r5,$r6
  207fb8:	00151ca5 	or	$r5,$r5,$r7
  207fbc:	28c0a0a6 	ld.d	$r6,$r5,40(0x28)
  207fc0:	02c2a065 	addi.d	$r5,$r3,168(0xa8)
  207fc4:	4c0000c1 	jirl	$r1,$r6,0
  207fc8:	28c1a064 	ld.d	$r4,$r3,104(0x68)
  207fcc:	28c00084 	ld.d	$r4,$r4,0
  207fd0:	001292e5 	sltu	$r5,$r23,$r4
  207fd4:	02fff484 	addi.d	$r4,$r4,-3(0xffd)
  207fd8:	00129004 	sltu	$r4,$r0,$r4
  207fdc:	00139484 	masknez	$r4,$r4,$r5
  207fe0:	28c18066 	ld.d	$r6,$r3,96(0x60)
  207fe4:	001314c5 	maskeqz	$r5,$r6,$r5
  207fe8:	001510a4 	or	$r4,$r5,$r4
  207fec:	58000c86 	beq	$r4,$r6,12(0xc) # 207ff8 <loongarch64_trap_handler+0x1198>
  207ff0:	0343fc84 	andi	$r4,$r4,0xff
  207ff4:	4400dc80 	bnez	$r4,220(0xdc) # 2080d0 <loongarch64_trap_handler+0x1270>
  207ff8:	04022004 	csrrd	$r4,0x88
  207ffc:	29c70064 	st.d	$r4,$r3,448(0x1c0)
  208000:	1a0000e4 	pcalau12i	$r4,7(0x7)
  208004:	02c32084 	addi.d	$r4,$r4,200(0xc8)
  208008:	29c20064 	st.d	$r4,$r3,128(0x80)
  20800c:	02c70064 	addi.d	$r4,$r3,448(0x1c0)
  208010:	29c1e064 	st.d	$r4,$r3,120(0x78)
  208014:	03808004 	ori	$r4,$r0,0x20
  208018:	16000084 	lu32i.d	$r4,4(0x4)
  20801c:	29c86064 	st.d	$r4,$r3,536(0x218)
  208020:	28c14064 	ld.d	$r4,$r3,80(0x50)
  208024:	29c80064 	st.d	$r4,$r3,512(0x200)
  208028:	29c7c064 	st.d	$r4,$r3,496(0x1f0)
  20802c:	29088077 	st.b	$r23,$r3,544(0x220)
  208030:	29c84060 	st.d	$r0,$r3,528(0x210)
  208034:	28c00344 	ld.d	$r4,$r26,0
  208038:	38720000 	dbar	0x0
  20803c:	28c16065 	ld.d	$r5,$r3,88(0x58)
  208040:	28c000a5 	ld.d	$r5,$r5,0
  208044:	02c7c066 	addi.d	$r6,$r3,496(0x1f0)
  208048:	29c46066 	st.d	$r6,$r3,280(0x118)
  20804c:	02c1e066 	addi.d	$r6,$r3,120(0x78)
  208050:	29c42066 	st.d	$r6,$r3,264(0x108)
  208054:	1a0001e6 	pcalau12i	$r6,15(0xf)
  208058:	02dbe0c6 	addi.d	$r6,$r6,1784(0x6f8)
  20805c:	29c3e066 	st.d	$r6,$r3,248(0xf8)
  208060:	29c36077 	st.d	$r23,$r3,216(0xd8)
  208064:	29c4807b 	st.d	$r27,$r3,288(0x120)
  208068:	29c4407b 	st.d	$r27,$r3,272(0x110)
  20806c:	29c4007b 	st.d	$r27,$r3,256(0x100)
  208070:	00150366 	move	$r6,$r27
  208074:	16000786 	lu32i.d	$r6,60(0x3c)
  208078:	29c3c066 	st.d	$r6,$r3,240(0xf0)
  20807c:	0380a806 	ori	$r6,$r0,0x2a
  208080:	29c34066 	st.d	$r6,$r3,208(0xd0)
  208084:	29c3207f 	st.d	$r31,$r3,200(0xc8)
  208088:	03807806 	ori	$r6,$r0,0x1e
  20808c:	29c3a066 	st.d	$r6,$r3,232(0xe8)
  208090:	29c2e066 	st.d	$r6,$r3,184(0xb8)
  208094:	29c3807e 	st.d	$r30,$r3,224(0xe0)
  208098:	29c2c07e 	st.d	$r30,$r3,176(0xb0)
  20809c:	29c30060 	st.d	$r0,$r3,192(0xc0)
  2080a0:	29c2a060 	st.d	$r0,$r3,168(0xa8)
  2080a4:	02fff884 	addi.d	$r4,$r4,-2(0xffe)
  2080a8:	02400486 	sltui	$r6,$r4,1(0x1)
  2080ac:	00139b04 	masknez	$r4,$r24,$r6
  2080b0:	00131b87 	maskeqz	$r7,$r28,$r6
  2080b4:	001510e4 	or	$r4,$r7,$r4
  2080b8:	00139ba7 	masknez	$r7,$r29,$r6
  2080bc:	001318a5 	maskeqz	$r5,$r5,$r6
  2080c0:	00151ca5 	or	$r5,$r5,$r7
  2080c4:	28c0a0a6 	ld.d	$r6,$r5,40(0x28)
  2080c8:	02c2a065 	addi.d	$r5,$r3,168(0xa8)
  2080cc:	4c0000c1 	jirl	$r1,$r6,0
  2080d0:	28c1a064 	ld.d	$r4,$r3,104(0x68)
  2080d4:	28c00084 	ld.d	$r4,$r4,0
  2080d8:	001292e5 	sltu	$r5,$r23,$r4
  2080dc:	02fff484 	addi.d	$r4,$r4,-3(0xffd)
  2080e0:	00129004 	sltu	$r4,$r0,$r4
  2080e4:	00139484 	masknez	$r4,$r4,$r5
  2080e8:	28c18066 	ld.d	$r6,$r3,96(0x60)
  2080ec:	001314c5 	maskeqz	$r5,$r6,$r5
  2080f0:	001510a4 	or	$r4,$r5,$r4
  2080f4:	58000c86 	beq	$r4,$r6,12(0xc) # 208100 <loongarch64_trap_handler+0x12a0>
  2080f8:	0343fc84 	andi	$r4,$r4,0xff
  2080fc:	4400b480 	bnez	$r4,180(0xb4) # 2081b0 <loongarch64_trap_handler+0x1350>
  208100:	04023804 	csrrd	$r4,0x8e
  208104:	28c0c065 	ld.d	$r5,$r3,48(0x30)
  208108:	29c7e065 	st.d	$r5,$r3,504(0x1f8)
  20810c:	02c1e065 	addi.d	$r5,$r3,120(0x78)
  208110:	29c7c065 	st.d	$r5,$r3,496(0x1f0)
  208114:	0340fc84 	andi	$r4,$r4,0x3f
  208118:	29c1e064 	st.d	$r4,$r3,120(0x78)
  20811c:	28c00344 	ld.d	$r4,$r26,0
  208120:	38720000 	dbar	0x0
  208124:	28c16065 	ld.d	$r5,$r3,88(0x58)
  208128:	28c000a5 	ld.d	$r5,$r5,0
  20812c:	02c7c066 	addi.d	$r6,$r3,496(0x1f0)
  208130:	29c42066 	st.d	$r6,$r3,264(0x108)
  208134:	1a0001e6 	pcalau12i	$r6,15(0xf)
  208138:	02dc20c6 	addi.d	$r6,$r6,1800(0x708)
  20813c:	29c3e066 	st.d	$r6,$r3,248(0xf8)
  208140:	29c36077 	st.d	$r23,$r3,216(0xd8)
  208144:	29c4407b 	st.d	$r27,$r3,272(0x110)
  208148:	29c4007b 	st.d	$r27,$r3,256(0x100)
  20814c:	00150366 	move	$r6,$r27
  208150:	160007a6 	lu32i.d	$r6,61(0x3d)
  208154:	29c3c066 	st.d	$r6,$r3,240(0xf0)
  208158:	0380a806 	ori	$r6,$r0,0x2a
  20815c:	29c34066 	st.d	$r6,$r3,208(0xd0)
  208160:	29c3207f 	st.d	$r31,$r3,200(0xc8)
  208164:	03807806 	ori	$r6,$r0,0x1e
  208168:	29c3a066 	st.d	$r6,$r3,232(0xe8)
  20816c:	29c2e066 	st.d	$r6,$r3,184(0xb8)
  208170:	29c3807e 	st.d	$r30,$r3,224(0xe0)
  208174:	29c2c07e 	st.d	$r30,$r3,176(0xb0)
  208178:	29c46060 	st.d	$r0,$r3,280(0x118)
  20817c:	29c30060 	st.d	$r0,$r3,192(0xc0)
  208180:	29c2a060 	st.d	$r0,$r3,168(0xa8)
  208184:	02fff884 	addi.d	$r4,$r4,-2(0xffe)
  208188:	02400486 	sltui	$r6,$r4,1(0x1)
  20818c:	00139b04 	masknez	$r4,$r24,$r6
  208190:	00131b87 	maskeqz	$r7,$r28,$r6
  208194:	001510e4 	or	$r4,$r7,$r4
  208198:	00139ba7 	masknez	$r7,$r29,$r6
  20819c:	001318a5 	maskeqz	$r5,$r5,$r6
  2081a0:	00151ca5 	or	$r5,$r5,$r7
  2081a4:	28c0a0a6 	ld.d	$r6,$r5,40(0x28)
  2081a8:	02c2a065 	addi.d	$r5,$r3,168(0xa8)
  2081ac:	4c0000c1 	jirl	$r1,$r6,0
  2081b0:	04007019 	csrrd	$r25,0x1c
  2081b4:	28c1a064 	ld.d	$r4,$r3,104(0x68)
  2081b8:	28c00084 	ld.d	$r4,$r4,0
  2081bc:	001292e5 	sltu	$r5,$r23,$r4
  2081c0:	02fff484 	addi.d	$r4,$r4,-3(0xffd)
  2081c4:	00129004 	sltu	$r4,$r0,$r4
  2081c8:	00139484 	masknez	$r4,$r4,$r5
  2081cc:	28c18066 	ld.d	$r6,$r3,96(0x60)
  2081d0:	001314c5 	maskeqz	$r5,$r6,$r5
  2081d4:	001510a4 	or	$r4,$r5,$r4
  2081d8:	58000c86 	beq	$r4,$r6,12(0xc) # 2081e4 <loongarch64_trap_handler+0x1384>
  2081dc:	0343fc84 	andi	$r4,$r4,0xff
  2081e0:	4400c480 	bnez	$r4,196(0xc4) # 2082a4 <loongarch64_trap_handler+0x1444>
  2081e4:	03407f24 	andi	$r4,$r25,0x1f
  2081e8:	29870064 	st.w	$r4,$r3,448(0x1c0)
  2081ec:	02c1e064 	addi.d	$r4,$r3,120(0x78)
  2081f0:	29c80064 	st.d	$r4,$r3,512(0x200)
  2081f4:	29c82076 	st.d	$r22,$r3,520(0x208)
  2081f8:	29c7e076 	st.d	$r22,$r3,504(0x1f8)
  2081fc:	02c70064 	addi.d	$r4,$r3,448(0x1c0)
  208200:	29c7c064 	st.d	$r4,$r3,496(0x1f0)
  208204:	00c91724 	bstrpick.d	$r4,$r25,0x9,0x5
  208208:	2981e064 	st.w	$r4,$r3,120(0x78)
  20820c:	28c00344 	ld.d	$r4,$r26,0
  208210:	38720000 	dbar	0x0
  208214:	28c16065 	ld.d	$r5,$r3,88(0x58)
  208218:	28c000a5 	ld.d	$r5,$r5,0
  20821c:	02c7c066 	addi.d	$r6,$r3,496(0x1f0)
  208220:	29c42066 	st.d	$r6,$r3,264(0x108)
  208224:	28c14066 	ld.d	$r6,$r3,80(0x50)
  208228:	29c44066 	st.d	$r6,$r3,272(0x110)
  20822c:	29c40066 	st.d	$r6,$r3,256(0x100)
  208230:	1a0001e6 	pcalau12i	$r6,15(0xf)
  208234:	02dc60c6 	addi.d	$r6,$r6,1816(0x718)
  208238:	29c3e066 	st.d	$r6,$r3,248(0xf8)
  20823c:	29c36077 	st.d	$r23,$r3,216(0xd8)
  208240:	00150366 	move	$r6,$r27
  208244:	160007e6 	lu32i.d	$r6,63(0x3f)
  208248:	29c3c066 	st.d	$r6,$r3,240(0xf0)
  20824c:	0380a806 	ori	$r6,$r0,0x2a
  208250:	29c34066 	st.d	$r6,$r3,208(0xd0)
  208254:	29c3207f 	st.d	$r31,$r3,200(0xc8)
  208258:	03807806 	ori	$r6,$r0,0x1e
  20825c:	29c3a066 	st.d	$r6,$r3,232(0xe8)
  208260:	29c2e066 	st.d	$r6,$r3,184(0xb8)
  208264:	29c3807e 	st.d	$r30,$r3,224(0xe0)
  208268:	29c2c07e 	st.d	$r30,$r3,176(0xb0)
  20826c:	29c46060 	st.d	$r0,$r3,280(0x118)
  208270:	29c30060 	st.d	$r0,$r3,192(0xc0)
  208274:	29c2a060 	st.d	$r0,$r3,168(0xa8)
  208278:	02fff884 	addi.d	$r4,$r4,-2(0xffe)
  20827c:	02400486 	sltui	$r6,$r4,1(0x1)
  208280:	00139b04 	masknez	$r4,$r24,$r6
  208284:	00131b87 	maskeqz	$r7,$r28,$r6
  208288:	001510e4 	or	$r4,$r7,$r4
  20828c:	00139ba7 	masknez	$r7,$r29,$r6
  208290:	001318a5 	maskeqz	$r5,$r5,$r6
  208294:	00151ca5 	or	$r5,$r5,$r7
  208298:	28c0a0a6 	ld.d	$r6,$r5,40(0x28)
  20829c:	02c2a065 	addi.d	$r5,$r3,168(0xa8)
  2082a0:	4c0000c1 	jirl	$r1,$r6,0
  2082a4:	28c1a064 	ld.d	$r4,$r3,104(0x68)
  2082a8:	28c00084 	ld.d	$r4,$r4,0
  2082ac:	001292e5 	sltu	$r5,$r23,$r4
  2082b0:	02fff484 	addi.d	$r4,$r4,-3(0xffd)
  2082b4:	00129004 	sltu	$r4,$r0,$r4
  2082b8:	00139484 	masknez	$r4,$r4,$r5
  2082bc:	28c18066 	ld.d	$r6,$r3,96(0x60)
  2082c0:	001314c5 	maskeqz	$r5,$r6,$r5
  2082c4:	001510a4 	or	$r4,$r5,$r4
  2082c8:	58000c86 	beq	$r4,$r6,12(0xc) # 2082d4 <loongarch64_trap_handler+0x1474>
  2082cc:	0343fc84 	andi	$r4,$r4,0xff
  2082d0:	4400c480 	bnez	$r4,196(0xc4) # 208394 <loongarch64_trap_handler+0x1534>
  2082d4:	00ce2b24 	bstrpick.d	$r4,$r25,0xe,0xa
  2082d8:	29870064 	st.w	$r4,$r3,448(0x1c0)
  2082dc:	02c1e064 	addi.d	$r4,$r3,120(0x78)
  2082e0:	29c80064 	st.d	$r4,$r3,512(0x200)
  2082e4:	29c82076 	st.d	$r22,$r3,520(0x208)
  2082e8:	29c7e076 	st.d	$r22,$r3,504(0x1f8)
  2082ec:	02c70064 	addi.d	$r4,$r3,448(0x1c0)
  2082f0:	29c7c064 	st.d	$r4,$r3,496(0x1f0)
  2082f4:	00d33f24 	bstrpick.d	$r4,$r25,0x13,0xf
  2082f8:	2981e064 	st.w	$r4,$r3,120(0x78)
  2082fc:	28c00344 	ld.d	$r4,$r26,0
  208300:	38720000 	dbar	0x0
  208304:	28c16065 	ld.d	$r5,$r3,88(0x58)
  208308:	28c000a5 	ld.d	$r5,$r5,0
  20830c:	02c7c066 	addi.d	$r6,$r3,496(0x1f0)
  208310:	29c42066 	st.d	$r6,$r3,264(0x108)
  208314:	28c14066 	ld.d	$r6,$r3,80(0x50)
  208318:	29c44066 	st.d	$r6,$r3,272(0x110)
  20831c:	29c40066 	st.d	$r6,$r3,256(0x100)
  208320:	1a0001e6 	pcalau12i	$r6,15(0xf)
  208324:	02dce0c6 	addi.d	$r6,$r6,1848(0x738)
  208328:	29c3e066 	st.d	$r6,$r3,248(0xf8)
  20832c:	29c36077 	st.d	$r23,$r3,216(0xd8)
  208330:	00150366 	move	$r6,$r27
  208334:	16000886 	lu32i.d	$r6,68(0x44)
  208338:	29c3c066 	st.d	$r6,$r3,240(0xf0)
  20833c:	0380a806 	ori	$r6,$r0,0x2a
  208340:	29c34066 	st.d	$r6,$r3,208(0xd0)
  208344:	29c3207f 	st.d	$r31,$r3,200(0xc8)
  208348:	03807806 	ori	$r6,$r0,0x1e
  20834c:	29c3a066 	st.d	$r6,$r3,232(0xe8)
  208350:	29c2e066 	st.d	$r6,$r3,184(0xb8)
  208354:	29c3807e 	st.d	$r30,$r3,224(0xe0)
  208358:	29c2c07e 	st.d	$r30,$r3,176(0xb0)
  20835c:	29c46060 	st.d	$r0,$r3,280(0x118)
  208360:	29c30060 	st.d	$r0,$r3,192(0xc0)
  208364:	29c2a060 	st.d	$r0,$r3,168(0xa8)
  208368:	02fff884 	addi.d	$r4,$r4,-2(0xffe)
  20836c:	02400486 	sltui	$r6,$r4,1(0x1)
  208370:	00139b04 	masknez	$r4,$r24,$r6
  208374:	00131b87 	maskeqz	$r7,$r28,$r6
  208378:	001510e4 	or	$r4,$r7,$r4
  20837c:	00139ba7 	masknez	$r7,$r29,$r6
  208380:	001318a5 	maskeqz	$r5,$r5,$r6
  208384:	00151ca5 	or	$r5,$r5,$r7
  208388:	28c0a0a6 	ld.d	$r6,$r5,40(0x28)
  20838c:	02c2a065 	addi.d	$r5,$r3,168(0xa8)
  208390:	4c0000c1 	jirl	$r1,$r6,0
  208394:	29c0e07a 	st.d	$r26,$r3,56(0x38)
  208398:	0400741a 	csrrd	$r26,0x1d
  20839c:	28c1a064 	ld.d	$r4,$r3,104(0x68)
  2083a0:	28c00084 	ld.d	$r4,$r4,0
  2083a4:	001292e5 	sltu	$r5,$r23,$r4
  2083a8:	02fff484 	addi.d	$r4,$r4,-3(0xffd)
  2083ac:	00129004 	sltu	$r4,$r0,$r4
  2083b0:	00139484 	masknez	$r4,$r4,$r5
  2083b4:	28c18066 	ld.d	$r6,$r3,96(0x60)
  2083b8:	001314c5 	maskeqz	$r5,$r6,$r5
  2083bc:	001510a4 	or	$r4,$r5,$r4
  2083c0:	58000c86 	beq	$r4,$r6,12(0xc) # 2083cc <loongarch64_trap_handler+0x156c>
  2083c4:	0343fc84 	andi	$r4,$r4,0xff
  2083c8:	4400c880 	bnez	$r4,200(0xc8) # 208490 <loongarch64_trap_handler+0x1630>
  2083cc:	00d85324 	bstrpick.d	$r4,$r25,0x18,0x14
  2083d0:	29870064 	st.w	$r4,$r3,448(0x1c0)
  2083d4:	02c1e064 	addi.d	$r4,$r3,120(0x78)
  2083d8:	29c80064 	st.d	$r4,$r3,512(0x200)
  2083dc:	29c82076 	st.d	$r22,$r3,520(0x208)
  2083e0:	29c7e076 	st.d	$r22,$r3,504(0x1f8)
  2083e4:	02c70064 	addi.d	$r4,$r3,448(0x1c0)
  2083e8:	29c7c064 	st.d	$r4,$r3,496(0x1f0)
  2083ec:	00dd6724 	bstrpick.d	$r4,$r25,0x1d,0x19
  2083f0:	2981e064 	st.w	$r4,$r3,120(0x78)
  2083f4:	28c0e064 	ld.d	$r4,$r3,56(0x38)
  2083f8:	28c00084 	ld.d	$r4,$r4,0
  2083fc:	38720000 	dbar	0x0
  208400:	28c16065 	ld.d	$r5,$r3,88(0x58)
  208404:	28c000a5 	ld.d	$r5,$r5,0
  208408:	02c7c066 	addi.d	$r6,$r3,496(0x1f0)
  20840c:	29c42066 	st.d	$r6,$r3,264(0x108)
  208410:	28c14066 	ld.d	$r6,$r3,80(0x50)
  208414:	29c44066 	st.d	$r6,$r3,272(0x110)
  208418:	29c40066 	st.d	$r6,$r3,256(0x100)
  20841c:	1a0001e6 	pcalau12i	$r6,15(0xf)
  208420:	02dd60c6 	addi.d	$r6,$r6,1880(0x758)
  208424:	29c3e066 	st.d	$r6,$r3,248(0xf8)
  208428:	29c36077 	st.d	$r23,$r3,216(0xd8)
  20842c:	00150366 	move	$r6,$r27
  208430:	16000946 	lu32i.d	$r6,74(0x4a)
  208434:	29c3c066 	st.d	$r6,$r3,240(0xf0)
  208438:	0380a806 	ori	$r6,$r0,0x2a
  20843c:	29c34066 	st.d	$r6,$r3,208(0xd0)
  208440:	29c3207f 	st.d	$r31,$r3,200(0xc8)
  208444:	03807806 	ori	$r6,$r0,0x1e
  208448:	29c3a066 	st.d	$r6,$r3,232(0xe8)
  20844c:	29c2e066 	st.d	$r6,$r3,184(0xb8)
  208450:	29c3807e 	st.d	$r30,$r3,224(0xe0)
  208454:	29c2c07e 	st.d	$r30,$r3,176(0xb0)
  208458:	29c46060 	st.d	$r0,$r3,280(0x118)
  20845c:	29c30060 	st.d	$r0,$r3,192(0xc0)
  208460:	29c2a060 	st.d	$r0,$r3,168(0xa8)
  208464:	02fff884 	addi.d	$r4,$r4,-2(0xffe)
  208468:	02400486 	sltui	$r6,$r4,1(0x1)
  20846c:	00139b04 	masknez	$r4,$r24,$r6
  208470:	00131b87 	maskeqz	$r7,$r28,$r6
  208474:	001510e4 	or	$r4,$r7,$r4
  208478:	00139ba7 	masknez	$r7,$r29,$r6
  20847c:	001318a5 	maskeqz	$r5,$r5,$r6
  208480:	00151ca5 	or	$r5,$r5,$r7
  208484:	28c0a0a6 	ld.d	$r6,$r5,40(0x28)
  208488:	02c2a065 	addi.d	$r5,$r3,168(0xa8)
  20848c:	4c0000c1 	jirl	$r1,$r6,0
  208490:	28c1a064 	ld.d	$r4,$r3,104(0x68)
  208494:	28c00084 	ld.d	$r4,$r4,0
  208498:	001292e5 	sltu	$r5,$r23,$r4
  20849c:	02fff484 	addi.d	$r4,$r4,-3(0xffd)
  2084a0:	00129004 	sltu	$r4,$r0,$r4
  2084a4:	00139484 	masknez	$r4,$r4,$r5
  2084a8:	28c18066 	ld.d	$r6,$r3,96(0x60)
  2084ac:	001314c5 	maskeqz	$r5,$r6,$r5
  2084b0:	001510a4 	or	$r4,$r5,$r4
  2084b4:	58000c86 	beq	$r4,$r6,12(0xc) # 2084c0 <loongarch64_trap_handler+0x1660>
  2084b8:	0343fc84 	andi	$r4,$r4,0xff
  2084bc:	4400c880 	bnez	$r4,200(0xc8) # 208584 <loongarch64_trap_handler+0x1724>
  2084c0:	0340ff44 	andi	$r4,$r26,0x3f
  2084c4:	29870064 	st.w	$r4,$r3,448(0x1c0)
  2084c8:	02c1e064 	addi.d	$r4,$r3,120(0x78)
  2084cc:	29c80064 	st.d	$r4,$r3,512(0x200)
  2084d0:	29c82076 	st.d	$r22,$r3,520(0x208)
  2084d4:	29c7e076 	st.d	$r22,$r3,504(0x1f8)
  2084d8:	02c70064 	addi.d	$r4,$r3,448(0x1c0)
  2084dc:	29c7c064 	st.d	$r4,$r3,496(0x1f0)
  2084e0:	00cb1b44 	bstrpick.d	$r4,$r26,0xb,0x6
  2084e4:	2981e064 	st.w	$r4,$r3,120(0x78)
  2084e8:	28c0e064 	ld.d	$r4,$r3,56(0x38)
  2084ec:	28c00084 	ld.d	$r4,$r4,0
  2084f0:	38720000 	dbar	0x0
  2084f4:	28c16065 	ld.d	$r5,$r3,88(0x58)
  2084f8:	28c000a5 	ld.d	$r5,$r5,0
  2084fc:	02c7c066 	addi.d	$r6,$r3,496(0x1f0)
  208500:	29c42066 	st.d	$r6,$r3,264(0x108)
  208504:	28c14066 	ld.d	$r6,$r3,80(0x50)
  208508:	29c44066 	st.d	$r6,$r3,272(0x110)
  20850c:	29c40066 	st.d	$r6,$r3,256(0x100)
  208510:	1a0001e6 	pcalau12i	$r6,15(0xf)
  208514:	02dde0c6 	addi.d	$r6,$r6,1912(0x778)
  208518:	29c3e066 	st.d	$r6,$r3,248(0xf8)
  20851c:	29c36077 	st.d	$r23,$r3,216(0xd8)
  208520:	00150366 	move	$r6,$r27
  208524:	160009e6 	lu32i.d	$r6,79(0x4f)
  208528:	29c3c066 	st.d	$r6,$r3,240(0xf0)
  20852c:	0380a806 	ori	$r6,$r0,0x2a
  208530:	29c34066 	st.d	$r6,$r3,208(0xd0)
  208534:	29c3207f 	st.d	$r31,$r3,200(0xc8)
  208538:	03807806 	ori	$r6,$r0,0x1e
  20853c:	29c3a066 	st.d	$r6,$r3,232(0xe8)
  208540:	29c2e066 	st.d	$r6,$r3,184(0xb8)
  208544:	29c3807e 	st.d	$r30,$r3,224(0xe0)
  208548:	29c2c07e 	st.d	$r30,$r3,176(0xb0)
  20854c:	29c46060 	st.d	$r0,$r3,280(0x118)
  208550:	29c30060 	st.d	$r0,$r3,192(0xc0)
  208554:	29c2a060 	st.d	$r0,$r3,168(0xa8)
  208558:	02fff884 	addi.d	$r4,$r4,-2(0xffe)
  20855c:	02400486 	sltui	$r6,$r4,1(0x1)
  208560:	00139b04 	masknez	$r4,$r24,$r6
  208564:	00131b87 	maskeqz	$r7,$r28,$r6
  208568:	001510e4 	or	$r4,$r7,$r4
  20856c:	00139ba7 	masknez	$r7,$r29,$r6
  208570:	001318a5 	maskeqz	$r5,$r5,$r6
  208574:	00151ca5 	or	$r5,$r5,$r7
  208578:	28c0a0a6 	ld.d	$r6,$r5,40(0x28)
  20857c:	02c2a065 	addi.d	$r5,$r3,168(0xa8)
  208580:	4c0000c1 	jirl	$r1,$r6,0
  208584:	28c1a064 	ld.d	$r4,$r3,104(0x68)
  208588:	28c00084 	ld.d	$r4,$r4,0
  20858c:	001292e5 	sltu	$r5,$r23,$r4
  208590:	02fff484 	addi.d	$r4,$r4,-3(0xffd)
  208594:	00129004 	sltu	$r4,$r0,$r4
  208598:	00139484 	masknez	$r4,$r4,$r5
  20859c:	28c18066 	ld.d	$r6,$r3,96(0x60)
  2085a0:	001314c5 	maskeqz	$r5,$r6,$r5
  2085a4:	001510a4 	or	$r4,$r5,$r4
  2085a8:	58000c86 	beq	$r4,$r6,12(0xc) # 2085b4 <loongarch64_trap_handler+0x1754>
  2085ac:	0343fc84 	andi	$r4,$r4,0xff
  2085b0:	4400c880 	bnez	$r4,200(0xc8) # 208678 <loongarch64_trap_handler+0x1818>
  2085b4:	00d13344 	bstrpick.d	$r4,$r26,0x11,0xc
  2085b8:	29870064 	st.w	$r4,$r3,448(0x1c0)
  2085bc:	02c1e064 	addi.d	$r4,$r3,120(0x78)
  2085c0:	29c80064 	st.d	$r4,$r3,512(0x200)
  2085c4:	29c82076 	st.d	$r22,$r3,520(0x208)
  2085c8:	29c7e076 	st.d	$r22,$r3,504(0x1f8)
  2085cc:	02c70064 	addi.d	$r4,$r3,448(0x1c0)
  2085d0:	29c7c064 	st.d	$r4,$r3,496(0x1f0)
  2085d4:	00d74b44 	bstrpick.d	$r4,$r26,0x17,0x12
  2085d8:	2981e064 	st.w	$r4,$r3,120(0x78)
  2085dc:	28c0e064 	ld.d	$r4,$r3,56(0x38)
  2085e0:	28c00084 	ld.d	$r4,$r4,0
  2085e4:	38720000 	dbar	0x0
  2085e8:	28c16065 	ld.d	$r5,$r3,88(0x58)
  2085ec:	28c000a5 	ld.d	$r5,$r5,0
  2085f0:	02c7c066 	addi.d	$r6,$r3,496(0x1f0)
  2085f4:	29c42066 	st.d	$r6,$r3,264(0x108)
  2085f8:	28c14066 	ld.d	$r6,$r3,80(0x50)
  2085fc:	29c44066 	st.d	$r6,$r3,272(0x110)
  208600:	29c40066 	st.d	$r6,$r3,256(0x100)
  208604:	1a0001e6 	pcalau12i	$r6,15(0xf)
  208608:	02de60c6 	addi.d	$r6,$r6,1944(0x798)
  20860c:	29c3e066 	st.d	$r6,$r3,248(0xf8)
  208610:	29c36077 	st.d	$r23,$r3,216(0xd8)
  208614:	00150366 	move	$r6,$r27
  208618:	16000a86 	lu32i.d	$r6,84(0x54)
  20861c:	29c3c066 	st.d	$r6,$r3,240(0xf0)
  208620:	0380a806 	ori	$r6,$r0,0x2a
  208624:	29c34066 	st.d	$r6,$r3,208(0xd0)
  208628:	29c3207f 	st.d	$r31,$r3,200(0xc8)
  20862c:	03807806 	ori	$r6,$r0,0x1e
  208630:	29c3a066 	st.d	$r6,$r3,232(0xe8)
  208634:	29c2e066 	st.d	$r6,$r3,184(0xb8)
  208638:	29c3807e 	st.d	$r30,$r3,224(0xe0)
  20863c:	29c2c07e 	st.d	$r30,$r3,176(0xb0)
  208640:	29c46060 	st.d	$r0,$r3,280(0x118)
  208644:	29c30060 	st.d	$r0,$r3,192(0xc0)
  208648:	29c2a060 	st.d	$r0,$r3,168(0xa8)
  20864c:	02fff884 	addi.d	$r4,$r4,-2(0xffe)
  208650:	02400486 	sltui	$r6,$r4,1(0x1)
  208654:	00139b04 	masknez	$r4,$r24,$r6
  208658:	00131b87 	maskeqz	$r7,$r28,$r6
  20865c:	001510e4 	or	$r4,$r7,$r4
  208660:	00139ba7 	masknez	$r7,$r29,$r6
  208664:	001318a5 	maskeqz	$r5,$r5,$r6
  208668:	00151ca5 	or	$r5,$r5,$r7
  20866c:	28c0a0a6 	ld.d	$r6,$r5,40(0x28)
  208670:	02c2a065 	addi.d	$r5,$r3,168(0xa8)
  208674:	4c0000c1 	jirl	$r1,$r6,0
  208678:	04000016 	csrrd	$r22,0x0
  20867c:	28c1a064 	ld.d	$r4,$r3,104(0x68)
  208680:	28c00084 	ld.d	$r4,$r4,0
  208684:	001292e5 	sltu	$r5,$r23,$r4
  208688:	02fff484 	addi.d	$r4,$r4,-3(0xffd)
  20868c:	00129004 	sltu	$r4,$r0,$r4
  208690:	00139484 	masknez	$r4,$r4,$r5
  208694:	28c18066 	ld.d	$r6,$r3,96(0x60)
  208698:	001314c5 	maskeqz	$r5,$r6,$r5
  20869c:	001510a4 	or	$r4,$r5,$r4
  2086a0:	28c0e079 	ld.d	$r25,$r3,56(0x38)
  2086a4:	58000c86 	beq	$r4,$r6,12(0xc) # 2086b0 <loongarch64_trap_handler+0x1850>
  2086a8:	0343fc84 	andi	$r4,$r4,0xff
  2086ac:	4400b080 	bnez	$r4,176(0xb0) # 20875c <loongarch64_trap_handler+0x18fc>
  2086b0:	28c12064 	ld.d	$r4,$r3,72(0x48)
  2086b4:	29c7e064 	st.d	$r4,$r3,504(0x1f8)
  2086b8:	02c1e064 	addi.d	$r4,$r3,120(0x78)
  2086bc:	29c7c064 	st.d	$r4,$r3,496(0x1f0)
  2086c0:	00c30ec4 	bstrpick.d	$r4,$r22,0x3,0x3
  2086c4:	2901e064 	st.b	$r4,$r3,120(0x78)
  2086c8:	28c00324 	ld.d	$r4,$r25,0
  2086cc:	38720000 	dbar	0x0
  2086d0:	28c16065 	ld.d	$r5,$r3,88(0x58)
  2086d4:	28c000a5 	ld.d	$r5,$r5,0
  2086d8:	02c7c066 	addi.d	$r6,$r3,496(0x1f0)
  2086dc:	29c42066 	st.d	$r6,$r3,264(0x108)
  2086e0:	1a0001e6 	pcalau12i	$r6,15(0xf)
  2086e4:	02dee0c6 	addi.d	$r6,$r6,1976(0x7b8)
  2086e8:	29c3e066 	st.d	$r6,$r3,248(0xf8)
  2086ec:	29c36077 	st.d	$r23,$r3,216(0xd8)
  2086f0:	29c4407b 	st.d	$r27,$r3,272(0x110)
  2086f4:	29c4007b 	st.d	$r27,$r3,256(0x100)
  2086f8:	00150366 	move	$r6,$r27
  2086fc:	16000b46 	lu32i.d	$r6,90(0x5a)
  208700:	29c3c066 	st.d	$r6,$r3,240(0xf0)
  208704:	0380a806 	ori	$r6,$r0,0x2a
  208708:	29c34066 	st.d	$r6,$r3,208(0xd0)
  20870c:	29c3207f 	st.d	$r31,$r3,200(0xc8)
  208710:	03807806 	ori	$r6,$r0,0x1e
  208714:	29c3a066 	st.d	$r6,$r3,232(0xe8)
  208718:	29c2e066 	st.d	$r6,$r3,184(0xb8)
  20871c:	29c3807e 	st.d	$r30,$r3,224(0xe0)
  208720:	29c2c07e 	st.d	$r30,$r3,176(0xb0)
  208724:	29c46060 	st.d	$r0,$r3,280(0x118)
  208728:	29c30060 	st.d	$r0,$r3,192(0xc0)
  20872c:	29c2a060 	st.d	$r0,$r3,168(0xa8)
  208730:	02fff884 	addi.d	$r4,$r4,-2(0xffe)
  208734:	02400486 	sltui	$r6,$r4,1(0x1)
  208738:	00139b04 	masknez	$r4,$r24,$r6
  20873c:	00131b87 	maskeqz	$r7,$r28,$r6
  208740:	001510e4 	or	$r4,$r7,$r4
  208744:	00139ba7 	masknez	$r7,$r29,$r6
  208748:	001318a5 	maskeqz	$r5,$r5,$r6
  20874c:	00151ca5 	or	$r5,$r5,$r7
  208750:	28c0a0a6 	ld.d	$r6,$r5,40(0x28)
  208754:	02c2a065 	addi.d	$r5,$r3,168(0xa8)
  208758:	4c0000c1 	jirl	$r1,$r6,0
  20875c:	28c1a064 	ld.d	$r4,$r3,104(0x68)
  208760:	28c00084 	ld.d	$r4,$r4,0
  208764:	001292e5 	sltu	$r5,$r23,$r4
  208768:	02fff484 	addi.d	$r4,$r4,-3(0xffd)
  20876c:	00129004 	sltu	$r4,$r0,$r4
  208770:	00139484 	masknez	$r4,$r4,$r5
  208774:	28c18066 	ld.d	$r6,$r3,96(0x60)
  208778:	001314c5 	maskeqz	$r5,$r6,$r5
  20877c:	001510a4 	or	$r4,$r5,$r4
  208780:	58000c86 	beq	$r4,$r6,12(0xc) # 20878c <loongarch64_trap_handler+0x192c>
  208784:	0343fc84 	andi	$r4,$r4,0xff
  208788:	4400b080 	bnez	$r4,176(0xb0) # 208838 <loongarch64_trap_handler+0x19d8>
  20878c:	28c12064 	ld.d	$r4,$r3,72(0x48)
  208790:	29c7e064 	st.d	$r4,$r3,504(0x1f8)
  208794:	02c1e064 	addi.d	$r4,$r3,120(0x78)
  208798:	29c7c064 	st.d	$r4,$r3,496(0x1f0)
  20879c:	00c412c4 	bstrpick.d	$r4,$r22,0x4,0x4
  2087a0:	2901e064 	st.b	$r4,$r3,120(0x78)
  2087a4:	28c00324 	ld.d	$r4,$r25,0
  2087a8:	38720000 	dbar	0x0
  2087ac:	28c16065 	ld.d	$r5,$r3,88(0x58)
  2087b0:	28c000a5 	ld.d	$r5,$r5,0
  2087b4:	02c7c066 	addi.d	$r6,$r3,496(0x1f0)
  2087b8:	29c42066 	st.d	$r6,$r3,264(0x108)
  2087bc:	1a0001e6 	pcalau12i	$r6,15(0xf)
  2087c0:	02df20c6 	addi.d	$r6,$r6,1992(0x7c8)
  2087c4:	29c3e066 	st.d	$r6,$r3,248(0xf8)
  2087c8:	29c36077 	st.d	$r23,$r3,216(0xd8)
  2087cc:	29c4407b 	st.d	$r27,$r3,272(0x110)
  2087d0:	29c4007b 	st.d	$r27,$r3,256(0x100)
  2087d4:	00150366 	move	$r6,$r27
  2087d8:	16000b66 	lu32i.d	$r6,91(0x5b)
  2087dc:	29c3c066 	st.d	$r6,$r3,240(0xf0)
  2087e0:	0380a806 	ori	$r6,$r0,0x2a
  2087e4:	29c34066 	st.d	$r6,$r3,208(0xd0)
  2087e8:	29c3207f 	st.d	$r31,$r3,200(0xc8)
  2087ec:	03807806 	ori	$r6,$r0,0x1e
  2087f0:	29c3a066 	st.d	$r6,$r3,232(0xe8)
  2087f4:	29c2e066 	st.d	$r6,$r3,184(0xb8)
  2087f8:	29c3807e 	st.d	$r30,$r3,224(0xe0)
  2087fc:	29c2c07e 	st.d	$r30,$r3,176(0xb0)
  208800:	29c46060 	st.d	$r0,$r3,280(0x118)
  208804:	29c30060 	st.d	$r0,$r3,192(0xc0)
  208808:	29c2a060 	st.d	$r0,$r3,168(0xa8)
  20880c:	02fff884 	addi.d	$r4,$r4,-2(0xffe)
  208810:	02400486 	sltui	$r6,$r4,1(0x1)
  208814:	00139b04 	masknez	$r4,$r24,$r6
  208818:	00131b87 	maskeqz	$r7,$r28,$r6
  20881c:	001510e4 	or	$r4,$r7,$r4
  208820:	00139ba7 	masknez	$r7,$r29,$r6
  208824:	001318a5 	maskeqz	$r5,$r5,$r6
  208828:	00151ca5 	or	$r5,$r5,$r7
  20882c:	28c0a0a6 	ld.d	$r6,$r5,40(0x28)
  208830:	02c2a065 	addi.d	$r5,$r3,168(0xa8)
  208834:	4c0000c1 	jirl	$r1,$r6,0
  208838:	28c1a064 	ld.d	$r4,$r3,104(0x68)
  20883c:	28c00084 	ld.d	$r4,$r4,0
  208840:	001292e5 	sltu	$r5,$r23,$r4
  208844:	02fff484 	addi.d	$r4,$r4,-3(0xffd)
  208848:	00129004 	sltu	$r4,$r0,$r4
  20884c:	00139484 	masknez	$r4,$r4,$r5
  208850:	28c18066 	ld.d	$r6,$r3,96(0x60)
  208854:	001314c5 	maskeqz	$r5,$r6,$r5
  208858:	001510a4 	or	$r4,$r5,$r4
  20885c:	58000c86 	beq	$r4,$r6,12(0xc) # 208868 <loongarch64_trap_handler+0x1a08>
  208860:	0343fc84 	andi	$r4,$r4,0xff
  208864:	4400b080 	bnez	$r4,176(0xb0) # 208914 <loongarch64_trap_handler+0x1ab4>
  208868:	28c0c064 	ld.d	$r4,$r3,48(0x30)
  20886c:	29c7e064 	st.d	$r4,$r3,504(0x1f8)
  208870:	02c1e064 	addi.d	$r4,$r3,120(0x78)
  208874:	29c7c064 	st.d	$r4,$r3,496(0x1f0)
  208878:	00c616c4 	bstrpick.d	$r4,$r22,0x6,0x5
  20887c:	29c1e064 	st.d	$r4,$r3,120(0x78)
  208880:	28c00324 	ld.d	$r4,$r25,0
  208884:	38720000 	dbar	0x0
  208888:	28c16065 	ld.d	$r5,$r3,88(0x58)
  20888c:	28c000a5 	ld.d	$r5,$r5,0
  208890:	02c7c066 	addi.d	$r6,$r3,496(0x1f0)
  208894:	29c42066 	st.d	$r6,$r3,264(0x108)
  208898:	1a0001e6 	pcalau12i	$r6,15(0xf)
  20889c:	02df60c6 	addi.d	$r6,$r6,2008(0x7d8)
  2088a0:	29c3e066 	st.d	$r6,$r3,248(0xf8)
  2088a4:	29c36077 	st.d	$r23,$r3,216(0xd8)
  2088a8:	29c4407b 	st.d	$r27,$r3,272(0x110)
  2088ac:	29c4007b 	st.d	$r27,$r3,256(0x100)
  2088b0:	00150366 	move	$r6,$r27
  2088b4:	16000b86 	lu32i.d	$r6,92(0x5c)
  2088b8:	29c3c066 	st.d	$r6,$r3,240(0xf0)
  2088bc:	0380a806 	ori	$r6,$r0,0x2a
  2088c0:	29c34066 	st.d	$r6,$r3,208(0xd0)
  2088c4:	29c3207f 	st.d	$r31,$r3,200(0xc8)
  2088c8:	03807806 	ori	$r6,$r0,0x1e
  2088cc:	29c3a066 	st.d	$r6,$r3,232(0xe8)
  2088d0:	29c2e066 	st.d	$r6,$r3,184(0xb8)
  2088d4:	29c3807e 	st.d	$r30,$r3,224(0xe0)
  2088d8:	29c2c07e 	st.d	$r30,$r3,176(0xb0)
  2088dc:	29c46060 	st.d	$r0,$r3,280(0x118)
  2088e0:	29c30060 	st.d	$r0,$r3,192(0xc0)
  2088e4:	29c2a060 	st.d	$r0,$r3,168(0xa8)
  2088e8:	02fff884 	addi.d	$r4,$r4,-2(0xffe)
  2088ec:	02400486 	sltui	$r6,$r4,1(0x1)
  2088f0:	00139b04 	masknez	$r4,$r24,$r6
  2088f4:	00131b87 	maskeqz	$r7,$r28,$r6
  2088f8:	001510e4 	or	$r4,$r7,$r4
  2088fc:	00139ba7 	masknez	$r7,$r29,$r6
  208900:	001318a5 	maskeqz	$r5,$r5,$r6
  208904:	00151ca5 	or	$r5,$r5,$r7
  208908:	28c0a0a6 	ld.d	$r6,$r5,40(0x28)
  20890c:	02c2a065 	addi.d	$r5,$r3,168(0xa8)
  208910:	4c0000c1 	jirl	$r1,$r6,0
  208914:	28c1a064 	ld.d	$r4,$r3,104(0x68)
  208918:	28c00084 	ld.d	$r4,$r4,0
  20891c:	001292e5 	sltu	$r5,$r23,$r4
  208920:	02fff484 	addi.d	$r4,$r4,-3(0xffd)
  208924:	00129004 	sltu	$r4,$r0,$r4
  208928:	00139484 	masknez	$r4,$r4,$r5
  20892c:	28c18066 	ld.d	$r6,$r3,96(0x60)
  208930:	001314c5 	maskeqz	$r5,$r6,$r5
  208934:	001510a4 	or	$r4,$r5,$r4
  208938:	58000c86 	beq	$r4,$r6,12(0xc) # 208944 <loongarch64_trap_handler+0x1ae4>
  20893c:	0343fc84 	andi	$r4,$r4,0xff
  208940:	4400b080 	bnez	$r4,176(0xb0) # 2089f0 <loongarch64_trap_handler+0x1b90>
  208944:	28c0c064 	ld.d	$r4,$r3,48(0x30)
  208948:	29c7e064 	st.d	$r4,$r3,504(0x1f8)
  20894c:	02c1e064 	addi.d	$r4,$r3,120(0x78)
  208950:	29c7c064 	st.d	$r4,$r3,496(0x1f0)
  208954:	00c81ec4 	bstrpick.d	$r4,$r22,0x8,0x7
  208958:	29c1e064 	st.d	$r4,$r3,120(0x78)
  20895c:	28c00324 	ld.d	$r4,$r25,0
  208960:	38720000 	dbar	0x0
  208964:	28c16065 	ld.d	$r5,$r3,88(0x58)
  208968:	28c000a5 	ld.d	$r5,$r5,0
  20896c:	02c7c066 	addi.d	$r6,$r3,496(0x1f0)
  208970:	29c42066 	st.d	$r6,$r3,264(0x108)
  208974:	1a0001e6 	pcalau12i	$r6,15(0xf)
  208978:	02dfa0c6 	addi.d	$r6,$r6,2024(0x7e8)
  20897c:	29c3e066 	st.d	$r6,$r3,248(0xf8)
  208980:	29c36077 	st.d	$r23,$r3,216(0xd8)
  208984:	29c4407b 	st.d	$r27,$r3,272(0x110)
  208988:	29c4007b 	st.d	$r27,$r3,256(0x100)
  20898c:	00150366 	move	$r6,$r27
  208990:	16000ba6 	lu32i.d	$r6,93(0x5d)
  208994:	29c3c066 	st.d	$r6,$r3,240(0xf0)
  208998:	0380a806 	ori	$r6,$r0,0x2a
  20899c:	29c34066 	st.d	$r6,$r3,208(0xd0)
  2089a0:	29c3207f 	st.d	$r31,$r3,200(0xc8)
  2089a4:	03807806 	ori	$r6,$r0,0x1e
  2089a8:	29c3a066 	st.d	$r6,$r3,232(0xe8)
  2089ac:	29c2e066 	st.d	$r6,$r3,184(0xb8)
  2089b0:	29c3807e 	st.d	$r30,$r3,224(0xe0)
  2089b4:	29c2c07e 	st.d	$r30,$r3,176(0xb0)
  2089b8:	29c46060 	st.d	$r0,$r3,280(0x118)
  2089bc:	29c30060 	st.d	$r0,$r3,192(0xc0)
  2089c0:	29c2a060 	st.d	$r0,$r3,168(0xa8)
  2089c4:	02fff884 	addi.d	$r4,$r4,-2(0xffe)
  2089c8:	02400486 	sltui	$r6,$r4,1(0x1)
  2089cc:	00139b04 	masknez	$r4,$r24,$r6
  2089d0:	00131b87 	maskeqz	$r7,$r28,$r6
  2089d4:	001510e4 	or	$r4,$r7,$r4
  2089d8:	00139ba7 	masknez	$r7,$r29,$r6
  2089dc:	001318a5 	maskeqz	$r5,$r5,$r6
  2089e0:	00151ca5 	or	$r5,$r5,$r7
  2089e4:	28c0a0a6 	ld.d	$r6,$r5,40(0x28)
  2089e8:	02c2a065 	addi.d	$r5,$r3,168(0xa8)
  2089ec:	4c0000c1 	jirl	$r1,$r6,0
  2089f0:	28c1a064 	ld.d	$r4,$r3,104(0x68)
  2089f4:	28c00084 	ld.d	$r4,$r4,0
  2089f8:	001292e5 	sltu	$r5,$r23,$r4
  2089fc:	02fff484 	addi.d	$r4,$r4,-3(0xffd)
  208a00:	00129004 	sltu	$r4,$r0,$r4
  208a04:	00139484 	masknez	$r4,$r4,$r5
  208a08:	28c18066 	ld.d	$r6,$r3,96(0x60)
  208a0c:	001314c5 	maskeqz	$r5,$r6,$r5
  208a10:	001510a4 	or	$r4,$r5,$r4
  208a14:	58000c86 	beq	$r4,$r6,12(0xc) # 208a20 <loongarch64_trap_handler+0x1bc0>
  208a18:	0343fc84 	andi	$r4,$r4,0xff
  208a1c:	4400d880 	bnez	$r4,216(0xd8) # 208af4 <loongarch64_trap_handler+0x1c94>
  208a20:	1a0000e4 	pcalau12i	$r4,7(0x7)
  208a24:	02c32084 	addi.d	$r4,$r4,200(0xc8)
  208a28:	29c20064 	st.d	$r4,$r3,128(0x80)
  208a2c:	02c70064 	addi.d	$r4,$r3,448(0x1c0)
  208a30:	29c1e064 	st.d	$r4,$r3,120(0x78)
  208a34:	29c70076 	st.d	$r22,$r3,448(0x1c0)
  208a38:	03808004 	ori	$r4,$r0,0x20
  208a3c:	16000084 	lu32i.d	$r4,4(0x4)
  208a40:	29c86064 	st.d	$r4,$r3,536(0x218)
  208a44:	28c14064 	ld.d	$r4,$r3,80(0x50)
  208a48:	29c80064 	st.d	$r4,$r3,512(0x200)
  208a4c:	29c7c064 	st.d	$r4,$r3,496(0x1f0)
  208a50:	29088077 	st.b	$r23,$r3,544(0x220)
  208a54:	29c84060 	st.d	$r0,$r3,528(0x210)
  208a58:	28c00324 	ld.d	$r4,$r25,0
  208a5c:	38720000 	dbar	0x0
  208a60:	28c16065 	ld.d	$r5,$r3,88(0x58)
  208a64:	28c000a5 	ld.d	$r5,$r5,0
  208a68:	02c7c066 	addi.d	$r6,$r3,496(0x1f0)
  208a6c:	29c46066 	st.d	$r6,$r3,280(0x118)
  208a70:	02c1e066 	addi.d	$r6,$r3,120(0x78)
  208a74:	29c42066 	st.d	$r6,$r3,264(0x108)
  208a78:	1a0001e6 	pcalau12i	$r6,15(0xf)
  208a7c:	02dfe0c6 	addi.d	$r6,$r6,2040(0x7f8)
  208a80:	29c3e066 	st.d	$r6,$r3,248(0xf8)
  208a84:	29c36077 	st.d	$r23,$r3,216(0xd8)
  208a88:	29c4807b 	st.d	$r27,$r3,288(0x120)
  208a8c:	29c4407b 	st.d	$r27,$r3,272(0x110)
  208a90:	29c4007b 	st.d	$r27,$r3,256(0x100)
  208a94:	00150366 	move	$r6,$r27
  208a98:	16000bc6 	lu32i.d	$r6,94(0x5e)
  208a9c:	29c3c066 	st.d	$r6,$r3,240(0xf0)
  208aa0:	0380a806 	ori	$r6,$r0,0x2a
  208aa4:	29c34066 	st.d	$r6,$r3,208(0xd0)
  208aa8:	29c3207f 	st.d	$r31,$r3,200(0xc8)
  208aac:	03807806 	ori	$r6,$r0,0x1e
  208ab0:	29c3a066 	st.d	$r6,$r3,232(0xe8)
  208ab4:	29c2e066 	st.d	$r6,$r3,184(0xb8)
  208ab8:	29c3807e 	st.d	$r30,$r3,224(0xe0)
  208abc:	29c2c07e 	st.d	$r30,$r3,176(0xb0)
  208ac0:	29c30060 	st.d	$r0,$r3,192(0xc0)
  208ac4:	29c2a060 	st.d	$r0,$r3,168(0xa8)
  208ac8:	02fff884 	addi.d	$r4,$r4,-2(0xffe)
  208acc:	02400486 	sltui	$r6,$r4,1(0x1)
  208ad0:	00139b04 	masknez	$r4,$r24,$r6
  208ad4:	00131b87 	maskeqz	$r7,$r28,$r6
  208ad8:	001510e4 	or	$r4,$r7,$r4
  208adc:	00139ba7 	masknez	$r7,$r29,$r6
  208ae0:	001318a5 	maskeqz	$r5,$r5,$r6
  208ae4:	00151ca5 	or	$r5,$r5,$r7
  208ae8:	28c0a0a6 	ld.d	$r6,$r5,40(0x28)
  208aec:	02c2a065 	addi.d	$r5,$r3,168(0xa8)
  208af0:	4c0000c1 	jirl	$r1,$r6,0
  208af4:	04000c04 	csrrd	$r4,0x3
  208af8:	00c30c84 	bstrpick.d	$r4,$r4,0x3,0x3
  208afc:	2906c064 	st.b	$r4,$r3,432(0x1b0)
  208b00:	28c1a064 	ld.d	$r4,$r3,104(0x68)
  208b04:	28c00084 	ld.d	$r4,$r4,0
  208b08:	001292e5 	sltu	$r5,$r23,$r4
  208b0c:	02fff484 	addi.d	$r4,$r4,-3(0xffd)
  208b10:	00129004 	sltu	$r4,$r0,$r4
  208b14:	00139484 	masknez	$r4,$r4,$r5
  208b18:	28c18066 	ld.d	$r6,$r3,96(0x60)
  208b1c:	001314c5 	maskeqz	$r5,$r6,$r5
  208b20:	001510a4 	or	$r4,$r5,$r4
  208b24:	02c6c07a 	addi.d	$r26,$r3,432(0x1b0)
  208b28:	58000c86 	beq	$r4,$r6,12(0xc) # 208b34 <loongarch64_trap_handler+0x1cd4>
  208b2c:	0343fc84 	andi	$r4,$r4,0xff
  208b30:	4400a480 	bnez	$r4,164(0xa4) # 208bd4 <loongarch64_trap_handler+0x1d74>
  208b34:	28c12064 	ld.d	$r4,$r3,72(0x48)
  208b38:	29c7e064 	st.d	$r4,$r3,504(0x1f8)
  208b3c:	29c7c07a 	st.d	$r26,$r3,496(0x1f0)
  208b40:	28c00324 	ld.d	$r4,$r25,0
  208b44:	38720000 	dbar	0x0
  208b48:	28c16065 	ld.d	$r5,$r3,88(0x58)
  208b4c:	28c000a5 	ld.d	$r5,$r5,0
  208b50:	02c7c066 	addi.d	$r6,$r3,496(0x1f0)
  208b54:	29c42066 	st.d	$r6,$r3,264(0x108)
  208b58:	1a000206 	pcalau12i	$r6,16(0x10)
  208b5c:	02e020c6 	addi.d	$r6,$r6,-2040(0x808)
  208b60:	29c3e066 	st.d	$r6,$r3,248(0xf8)
  208b64:	29c36077 	st.d	$r23,$r3,216(0xd8)
  208b68:	29c4407b 	st.d	$r27,$r3,272(0x110)
  208b6c:	29c4007b 	st.d	$r27,$r3,256(0x100)
  208b70:	00150366 	move	$r6,$r27
  208b74:	16000c06 	lu32i.d	$r6,96(0x60)
  208b78:	29c3c066 	st.d	$r6,$r3,240(0xf0)
  208b7c:	0380a806 	ori	$r6,$r0,0x2a
  208b80:	29c34066 	st.d	$r6,$r3,208(0xd0)
  208b84:	29c3207f 	st.d	$r31,$r3,200(0xc8)
  208b88:	03807806 	ori	$r6,$r0,0x1e
  208b8c:	29c3a066 	st.d	$r6,$r3,232(0xe8)
  208b90:	29c2e066 	st.d	$r6,$r3,184(0xb8)
  208b94:	29c3807e 	st.d	$r30,$r3,224(0xe0)
  208b98:	29c2c07e 	st.d	$r30,$r3,176(0xb0)
  208b9c:	29c46060 	st.d	$r0,$r3,280(0x118)
  208ba0:	29c30060 	st.d	$r0,$r3,192(0xc0)
  208ba4:	29c2a060 	st.d	$r0,$r3,168(0xa8)
  208ba8:	02fff884 	addi.d	$r4,$r4,-2(0xffe)
  208bac:	02400486 	sltui	$r6,$r4,1(0x1)
  208bb0:	00139b04 	masknez	$r4,$r24,$r6
  208bb4:	00131b87 	maskeqz	$r7,$r28,$r6
  208bb8:	001510e4 	or	$r4,$r7,$r4
  208bbc:	00139ba7 	masknez	$r7,$r29,$r6
  208bc0:	001318a5 	maskeqz	$r5,$r5,$r6
  208bc4:	00151ca5 	or	$r5,$r5,$r7
  208bc8:	28c0a0a6 	ld.d	$r6,$r5,40(0x28)
  208bcc:	02c2a065 	addi.d	$r5,$r3,168(0xa8)
  208bd0:	4c0000c1 	jirl	$r1,$r6,0
  208bd4:	28c1a064 	ld.d	$r4,$r3,104(0x68)
  208bd8:	28c00084 	ld.d	$r4,$r4,0
  208bdc:	001292e5 	sltu	$r5,$r23,$r4
  208be0:	02fff484 	addi.d	$r4,$r4,-3(0xffd)
  208be4:	00129004 	sltu	$r4,$r0,$r4
  208be8:	00139484 	masknez	$r4,$r4,$r5
  208bec:	28c18066 	ld.d	$r6,$r3,96(0x60)
  208bf0:	001314c5 	maskeqz	$r5,$r6,$r5
  208bf4:	001510a4 	or	$r4,$r5,$r4
  208bf8:	58000c86 	beq	$r4,$r6,12(0xc) # 208c04 <loongarch64_trap_handler+0x1da4>
  208bfc:	0343fc84 	andi	$r4,$r4,0xff
  208c00:	4400dc80 	bnez	$r4,220(0xdc) # 208cdc <loongarch64_trap_handler+0x1e7c>
  208c04:	04060004 	csrrd	$r4,0x180
  208c08:	29c70064 	st.d	$r4,$r3,448(0x1c0)
  208c0c:	1a0000e4 	pcalau12i	$r4,7(0x7)
  208c10:	02c32084 	addi.d	$r4,$r4,200(0xc8)
  208c14:	29c20064 	st.d	$r4,$r3,128(0x80)
  208c18:	02c70064 	addi.d	$r4,$r3,448(0x1c0)
  208c1c:	29c1e064 	st.d	$r4,$r3,120(0x78)
  208c20:	03808004 	ori	$r4,$r0,0x20
  208c24:	16000084 	lu32i.d	$r4,4(0x4)
  208c28:	29c86064 	st.d	$r4,$r3,536(0x218)
  208c2c:	28c14064 	ld.d	$r4,$r3,80(0x50)
  208c30:	29c80064 	st.d	$r4,$r3,512(0x200)
  208c34:	29c7c064 	st.d	$r4,$r3,496(0x1f0)
  208c38:	29088077 	st.b	$r23,$r3,544(0x220)
  208c3c:	29c84060 	st.d	$r0,$r3,528(0x210)
  208c40:	28c00324 	ld.d	$r4,$r25,0
  208c44:	38720000 	dbar	0x0
  208c48:	28c16065 	ld.d	$r5,$r3,88(0x58)
  208c4c:	28c000a5 	ld.d	$r5,$r5,0
  208c50:	02c7c066 	addi.d	$r6,$r3,496(0x1f0)
  208c54:	29c46066 	st.d	$r6,$r3,280(0x118)
  208c58:	02c1e066 	addi.d	$r6,$r3,120(0x78)
  208c5c:	29c42066 	st.d	$r6,$r3,264(0x108)
  208c60:	1a000206 	pcalau12i	$r6,16(0x10)
  208c64:	02e060c6 	addi.d	$r6,$r6,-2024(0x818)
  208c68:	29c3e066 	st.d	$r6,$r3,248(0xf8)
  208c6c:	29c36077 	st.d	$r23,$r3,216(0xd8)
  208c70:	29c4807b 	st.d	$r27,$r3,288(0x120)
  208c74:	29c4407b 	st.d	$r27,$r3,272(0x110)
  208c78:	29c4007b 	st.d	$r27,$r3,256(0x100)
  208c7c:	00150366 	move	$r6,$r27
  208c80:	16000c26 	lu32i.d	$r6,97(0x61)
  208c84:	29c3c066 	st.d	$r6,$r3,240(0xf0)
  208c88:	0380a806 	ori	$r6,$r0,0x2a
  208c8c:	29c34066 	st.d	$r6,$r3,208(0xd0)
  208c90:	29c3207f 	st.d	$r31,$r3,200(0xc8)
  208c94:	03807806 	ori	$r6,$r0,0x1e
  208c98:	29c3a066 	st.d	$r6,$r3,232(0xe8)
  208c9c:	29c2e066 	st.d	$r6,$r3,184(0xb8)
  208ca0:	29c3807e 	st.d	$r30,$r3,224(0xe0)
  208ca4:	29c2c07e 	st.d	$r30,$r3,176(0xb0)
  208ca8:	29c30060 	st.d	$r0,$r3,192(0xc0)
  208cac:	29c2a060 	st.d	$r0,$r3,168(0xa8)
  208cb0:	02fff884 	addi.d	$r4,$r4,-2(0xffe)
  208cb4:	02400486 	sltui	$r6,$r4,1(0x1)
  208cb8:	00139b04 	masknez	$r4,$r24,$r6
  208cbc:	00131b87 	maskeqz	$r7,$r28,$r6
  208cc0:	001510e4 	or	$r4,$r7,$r4
  208cc4:	00139ba7 	masknez	$r7,$r29,$r6
  208cc8:	001318a5 	maskeqz	$r5,$r5,$r6
  208ccc:	00151ca5 	or	$r5,$r5,$r7
  208cd0:	28c0a0a6 	ld.d	$r6,$r5,40(0x28)
  208cd4:	02c2a065 	addi.d	$r5,$r3,168(0xa8)
  208cd8:	4c0000c1 	jirl	$r1,$r6,0
  208cdc:	28c1a064 	ld.d	$r4,$r3,104(0x68)
  208ce0:	28c00084 	ld.d	$r4,$r4,0
  208ce4:	001292e5 	sltu	$r5,$r23,$r4
  208ce8:	02fff484 	addi.d	$r4,$r4,-3(0xffd)
  208cec:	00129004 	sltu	$r4,$r0,$r4
  208cf0:	00139484 	masknez	$r4,$r4,$r5
  208cf4:	28c18066 	ld.d	$r6,$r3,96(0x60)
  208cf8:	001314c5 	maskeqz	$r5,$r6,$r5
  208cfc:	001510a4 	or	$r4,$r5,$r4
  208d00:	58000c86 	beq	$r4,$r6,12(0xc) # 208d0c <loongarch64_trap_handler+0x1eac>
  208d04:	0343fc84 	andi	$r4,$r4,0xff
  208d08:	4400dc80 	bnez	$r4,220(0xdc) # 208de4 <loongarch64_trap_handler+0x1f84>
  208d0c:	04060404 	csrrd	$r4,0x181
  208d10:	29c70064 	st.d	$r4,$r3,448(0x1c0)
  208d14:	1a0000e4 	pcalau12i	$r4,7(0x7)
  208d18:	02c32084 	addi.d	$r4,$r4,200(0xc8)
  208d1c:	29c20064 	st.d	$r4,$r3,128(0x80)
  208d20:	02c70064 	addi.d	$r4,$r3,448(0x1c0)
  208d24:	29c1e064 	st.d	$r4,$r3,120(0x78)
  208d28:	03808004 	ori	$r4,$r0,0x20
  208d2c:	16000084 	lu32i.d	$r4,4(0x4)
  208d30:	29c86064 	st.d	$r4,$r3,536(0x218)
  208d34:	28c14064 	ld.d	$r4,$r3,80(0x50)
  208d38:	29c80064 	st.d	$r4,$r3,512(0x200)
  208d3c:	29c7c064 	st.d	$r4,$r3,496(0x1f0)
  208d40:	29088077 	st.b	$r23,$r3,544(0x220)
  208d44:	29c84060 	st.d	$r0,$r3,528(0x210)
  208d48:	28c00324 	ld.d	$r4,$r25,0
  208d4c:	38720000 	dbar	0x0
  208d50:	28c16065 	ld.d	$r5,$r3,88(0x58)
  208d54:	28c000a5 	ld.d	$r5,$r5,0
  208d58:	02c7c066 	addi.d	$r6,$r3,496(0x1f0)
  208d5c:	29c46066 	st.d	$r6,$r3,280(0x118)
  208d60:	02c1e066 	addi.d	$r6,$r3,120(0x78)
  208d64:	29c42066 	st.d	$r6,$r3,264(0x108)
  208d68:	1a000206 	pcalau12i	$r6,16(0x10)
  208d6c:	02e0a0c6 	addi.d	$r6,$r6,-2008(0x828)
  208d70:	29c3e066 	st.d	$r6,$r3,248(0xf8)
  208d74:	29c36077 	st.d	$r23,$r3,216(0xd8)
  208d78:	29c4807b 	st.d	$r27,$r3,288(0x120)
  208d7c:	29c4407b 	st.d	$r27,$r3,272(0x110)
  208d80:	29c4007b 	st.d	$r27,$r3,256(0x100)
  208d84:	00150366 	move	$r6,$r27
  208d88:	16000c46 	lu32i.d	$r6,98(0x62)
  208d8c:	29c3c066 	st.d	$r6,$r3,240(0xf0)
  208d90:	0380a806 	ori	$r6,$r0,0x2a
  208d94:	29c34066 	st.d	$r6,$r3,208(0xd0)
  208d98:	29c3207f 	st.d	$r31,$r3,200(0xc8)
  208d9c:	03807806 	ori	$r6,$r0,0x1e
  208da0:	29c3a066 	st.d	$r6,$r3,232(0xe8)
  208da4:	29c2e066 	st.d	$r6,$r3,184(0xb8)
  208da8:	29c3807e 	st.d	$r30,$r3,224(0xe0)
  208dac:	29c2c07e 	st.d	$r30,$r3,176(0xb0)
  208db0:	29c30060 	st.d	$r0,$r3,192(0xc0)
  208db4:	29c2a060 	st.d	$r0,$r3,168(0xa8)
  208db8:	02fff884 	addi.d	$r4,$r4,-2(0xffe)
  208dbc:	02400486 	sltui	$r6,$r4,1(0x1)
  208dc0:	00139b04 	masknez	$r4,$r24,$r6
  208dc4:	00131b87 	maskeqz	$r7,$r28,$r6
  208dc8:	001510e4 	or	$r4,$r7,$r4
  208dcc:	00139ba7 	masknez	$r7,$r29,$r6
  208dd0:	001318a5 	maskeqz	$r5,$r5,$r6
  208dd4:	00151ca5 	or	$r5,$r5,$r7
  208dd8:	28c0a0a6 	ld.d	$r6,$r5,40(0x28)
  208ddc:	02c2a065 	addi.d	$r5,$r3,168(0xa8)
  208de0:	4c0000c1 	jirl	$r1,$r6,0
  208de4:	28c1a064 	ld.d	$r4,$r3,104(0x68)
  208de8:	28c00084 	ld.d	$r4,$r4,0
  208dec:	001292e5 	sltu	$r5,$r23,$r4
  208df0:	02fff484 	addi.d	$r4,$r4,-3(0xffd)
  208df4:	00129004 	sltu	$r4,$r0,$r4
  208df8:	00139484 	masknez	$r4,$r4,$r5
  208dfc:	28c18066 	ld.d	$r6,$r3,96(0x60)
  208e00:	001314c5 	maskeqz	$r5,$r6,$r5
  208e04:	001510a4 	or	$r4,$r5,$r4
  208e08:	58000c86 	beq	$r4,$r6,12(0xc) # 208e14 <loongarch64_trap_handler+0x1fb4>
  208e0c:	0343fc84 	andi	$r4,$r4,0xff
  208e10:	4400b080 	bnez	$r4,176(0xb0) # 208ec0 <loongarch64_trap_handler+0x2060>
  208e14:	28c0c064 	ld.d	$r4,$r3,48(0x30)
  208e18:	29c7e064 	st.d	$r4,$r3,504(0x1f8)
  208e1c:	02c1e064 	addi.d	$r4,$r3,120(0x78)
  208e20:	29c7c064 	st.d	$r4,$r3,496(0x1f0)
  208e24:	03400ec4 	andi	$r4,$r22,0x3
  208e28:	29c1e064 	st.d	$r4,$r3,120(0x78)
  208e2c:	28c00324 	ld.d	$r4,$r25,0
  208e30:	38720000 	dbar	0x0
  208e34:	28c16065 	ld.d	$r5,$r3,88(0x58)
  208e38:	28c000a5 	ld.d	$r5,$r5,0
  208e3c:	02c7c066 	addi.d	$r6,$r3,496(0x1f0)
  208e40:	29c42066 	st.d	$r6,$r3,264(0x108)
  208e44:	1a000206 	pcalau12i	$r6,16(0x10)
  208e48:	02e0e0c6 	addi.d	$r6,$r6,-1992(0x838)
  208e4c:	29c3e066 	st.d	$r6,$r3,248(0xf8)
  208e50:	29c36077 	st.d	$r23,$r3,216(0xd8)
  208e54:	29c4407b 	st.d	$r27,$r3,272(0x110)
  208e58:	29c4007b 	st.d	$r27,$r3,256(0x100)
  208e5c:	00150366 	move	$r6,$r27
  208e60:	16000c66 	lu32i.d	$r6,99(0x63)
  208e64:	29c3c066 	st.d	$r6,$r3,240(0xf0)
  208e68:	0380a806 	ori	$r6,$r0,0x2a
  208e6c:	29c34066 	st.d	$r6,$r3,208(0xd0)
  208e70:	29c3207f 	st.d	$r31,$r3,200(0xc8)
  208e74:	03807806 	ori	$r6,$r0,0x1e
  208e78:	29c3a066 	st.d	$r6,$r3,232(0xe8)
  208e7c:	29c2e066 	st.d	$r6,$r3,184(0xb8)
  208e80:	29c3807e 	st.d	$r30,$r3,224(0xe0)
  208e84:	29c2c07e 	st.d	$r30,$r3,176(0xb0)
  208e88:	29c46060 	st.d	$r0,$r3,280(0x118)
  208e8c:	29c30060 	st.d	$r0,$r3,192(0xc0)
  208e90:	29c2a060 	st.d	$r0,$r3,168(0xa8)
  208e94:	02fff884 	addi.d	$r4,$r4,-2(0xffe)
  208e98:	02400486 	sltui	$r6,$r4,1(0x1)
  208e9c:	00139b04 	masknez	$r4,$r24,$r6
  208ea0:	00131b87 	maskeqz	$r7,$r28,$r6
  208ea4:	001510e4 	or	$r4,$r7,$r4
  208ea8:	00139ba7 	masknez	$r7,$r29,$r6
  208eac:	001318a5 	maskeqz	$r5,$r5,$r6
  208eb0:	00151ca5 	or	$r5,$r5,$r7
  208eb4:	28c0a0a6 	ld.d	$r6,$r5,40(0x28)
  208eb8:	02c2a065 	addi.d	$r5,$r3,168(0xa8)
  208ebc:	4c0000c1 	jirl	$r1,$r6,0
  208ec0:	04001404 	csrrd	$r4,0x5
  208ec4:	28c1a065 	ld.d	$r5,$r3,104(0x68)
  208ec8:	28c000a5 	ld.d	$r5,$r5,0
  208ecc:	001296e6 	sltu	$r6,$r23,$r5
  208ed0:	02fff4a5 	addi.d	$r5,$r5,-3(0xffd)
  208ed4:	00129405 	sltu	$r5,$r0,$r5
  208ed8:	001398a5 	masknez	$r5,$r5,$r6
  208edc:	28c18067 	ld.d	$r7,$r3,96(0x60)
  208ee0:	001318e6 	maskeqz	$r6,$r7,$r6
  208ee4:	001514c5 	or	$r5,$r6,$r5
  208ee8:	58000ca7 	beq	$r5,$r7,12(0xc) # 208ef4 <loongarch64_trap_handler+0x2094>
  208eec:	0343fca5 	andi	$r5,$r5,0xff
  208ef0:	4400d8a0 	bnez	$r5,216(0xd8) # 208fc8 <loongarch64_trap_handler+0x2168>
  208ef4:	1a0000e5 	pcalau12i	$r5,7(0x7)
  208ef8:	02c320a5 	addi.d	$r5,$r5,200(0xc8)
  208efc:	29c20065 	st.d	$r5,$r3,128(0x80)
  208f00:	02c70065 	addi.d	$r5,$r3,448(0x1c0)
  208f04:	29c1e065 	st.d	$r5,$r3,120(0x78)
  208f08:	29c70064 	st.d	$r4,$r3,448(0x1c0)
  208f0c:	03808004 	ori	$r4,$r0,0x20
  208f10:	16000084 	lu32i.d	$r4,4(0x4)
  208f14:	29c86064 	st.d	$r4,$r3,536(0x218)
  208f18:	28c14064 	ld.d	$r4,$r3,80(0x50)
  208f1c:	29c80064 	st.d	$r4,$r3,512(0x200)
  208f20:	29c7c064 	st.d	$r4,$r3,496(0x1f0)
  208f24:	29088077 	st.b	$r23,$r3,544(0x220)
  208f28:	29c84060 	st.d	$r0,$r3,528(0x210)
  208f2c:	28c00324 	ld.d	$r4,$r25,0
  208f30:	38720000 	dbar	0x0
  208f34:	28c16065 	ld.d	$r5,$r3,88(0x58)
  208f38:	28c000a5 	ld.d	$r5,$r5,0
  208f3c:	02c7c066 	addi.d	$r6,$r3,496(0x1f0)
  208f40:	29c46066 	st.d	$r6,$r3,280(0x118)
  208f44:	02c1e066 	addi.d	$r6,$r3,120(0x78)
  208f48:	29c42066 	st.d	$r6,$r3,264(0x108)
  208f4c:	1a000206 	pcalau12i	$r6,16(0x10)
  208f50:	02e1e0c6 	addi.d	$r6,$r6,-1928(0x878)
  208f54:	29c3e066 	st.d	$r6,$r3,248(0xf8)
  208f58:	29c36077 	st.d	$r23,$r3,216(0xd8)
  208f5c:	29c4807b 	st.d	$r27,$r3,288(0x120)
  208f60:	29c4407b 	st.d	$r27,$r3,272(0x110)
  208f64:	29c4007b 	st.d	$r27,$r3,256(0x100)
  208f68:	00150366 	move	$r6,$r27
  208f6c:	16000e26 	lu32i.d	$r6,113(0x71)
  208f70:	29c3c066 	st.d	$r6,$r3,240(0xf0)
  208f74:	0380a806 	ori	$r6,$r0,0x2a
  208f78:	29c34066 	st.d	$r6,$r3,208(0xd0)
  208f7c:	29c3207f 	st.d	$r31,$r3,200(0xc8)
  208f80:	03807806 	ori	$r6,$r0,0x1e
  208f84:	29c3a066 	st.d	$r6,$r3,232(0xe8)
  208f88:	29c2e066 	st.d	$r6,$r3,184(0xb8)
  208f8c:	29c3807e 	st.d	$r30,$r3,224(0xe0)
  208f90:	29c2c07e 	st.d	$r30,$r3,176(0xb0)
  208f94:	29c30060 	st.d	$r0,$r3,192(0xc0)
  208f98:	29c2a060 	st.d	$r0,$r3,168(0xa8)
  208f9c:	02fff884 	addi.d	$r4,$r4,-2(0xffe)
  208fa0:	02400486 	sltui	$r6,$r4,1(0x1)
  208fa4:	00139b04 	masknez	$r4,$r24,$r6
  208fa8:	00131b87 	maskeqz	$r7,$r28,$r6
  208fac:	001510e4 	or	$r4,$r7,$r4
  208fb0:	00139ba7 	masknez	$r7,$r29,$r6
  208fb4:	001318a5 	maskeqz	$r5,$r5,$r6
  208fb8:	00151ca5 	or	$r5,$r5,$r7
  208fbc:	28c0a0a6 	ld.d	$r6,$r5,40(0x28)
  208fc0:	02c2a065 	addi.d	$r5,$r3,168(0xa8)
  208fc4:	4c0000c1 	jirl	$r1,$r6,0
  208fc8:	04000016 	csrrd	$r22,0x0
  208fcc:	03400ec4 	andi	$r4,$r22,0x3
  208fd0:	29c54064 	st.d	$r4,$r3,336(0x150)
  208fd4:	28c1a064 	ld.d	$r4,$r3,104(0x68)
  208fd8:	28c00084 	ld.d	$r4,$r4,0
  208fdc:	001292e5 	sltu	$r5,$r23,$r4
  208fe0:	02fff484 	addi.d	$r4,$r4,-3(0xffd)
  208fe4:	00129004 	sltu	$r4,$r0,$r4
  208fe8:	00139484 	masknez	$r4,$r4,$r5
  208fec:	28c18066 	ld.d	$r6,$r3,96(0x60)
  208ff0:	001314c5 	maskeqz	$r5,$r6,$r5
  208ff4:	001510a4 	or	$r4,$r5,$r4
  208ff8:	58000c86 	beq	$r4,$r6,12(0xc) # 209004 <loongarch64_trap_handler+0x21a4>
  208ffc:	0343fc84 	andi	$r4,$r4,0xff
  209000:	4400a880 	bnez	$r4,168(0xa8) # 2090a8 <loongarch64_trap_handler+0x2248>
  209004:	28c0c064 	ld.d	$r4,$r3,48(0x30)
  209008:	29c7e064 	st.d	$r4,$r3,504(0x1f8)
  20900c:	02c54064 	addi.d	$r4,$r3,336(0x150)
  209010:	29c7c064 	st.d	$r4,$r3,496(0x1f0)
  209014:	28c00324 	ld.d	$r4,$r25,0
  209018:	38720000 	dbar	0x0
  20901c:	28c16065 	ld.d	$r5,$r3,88(0x58)
  209020:	28c000a5 	ld.d	$r5,$r5,0
  209024:	02c7c066 	addi.d	$r6,$r3,496(0x1f0)
  209028:	29c42066 	st.d	$r6,$r3,264(0x108)
  20902c:	1a0001e6 	pcalau12i	$r6,15(0xf)
  209030:	02e220c6 	addi.d	$r6,$r6,-1912(0x888)
  209034:	29c3e066 	st.d	$r6,$r3,248(0xf8)
  209038:	29c36077 	st.d	$r23,$r3,216(0xd8)
  20903c:	29c4407b 	st.d	$r27,$r3,272(0x110)
  209040:	29c4007b 	st.d	$r27,$r3,256(0x100)
  209044:	00150366 	move	$r6,$r27
  209048:	16000ea6 	lu32i.d	$r6,117(0x75)
  20904c:	29c3c066 	st.d	$r6,$r3,240(0xf0)
  209050:	0380a806 	ori	$r6,$r0,0x2a
  209054:	29c34066 	st.d	$r6,$r3,208(0xd0)
  209058:	29c3207f 	st.d	$r31,$r3,200(0xc8)
  20905c:	03807806 	ori	$r6,$r0,0x1e
  209060:	29c3a066 	st.d	$r6,$r3,232(0xe8)
  209064:	29c2e066 	st.d	$r6,$r3,184(0xb8)
  209068:	29c3807e 	st.d	$r30,$r3,224(0xe0)
  20906c:	29c2c07e 	st.d	$r30,$r3,176(0xb0)
  209070:	29c46060 	st.d	$r0,$r3,280(0x118)
  209074:	29c30060 	st.d	$r0,$r3,192(0xc0)
  209078:	29c2a060 	st.d	$r0,$r3,168(0xa8)
  20907c:	02fff884 	addi.d	$r4,$r4,-2(0xffe)
  209080:	02400486 	sltui	$r6,$r4,1(0x1)
  209084:	00139b04 	masknez	$r4,$r24,$r6
  209088:	00131b87 	maskeqz	$r7,$r28,$r6
  20908c:	001510e4 	or	$r4,$r7,$r4
  209090:	00139ba7 	masknez	$r7,$r29,$r6
  209094:	001318a5 	maskeqz	$r5,$r5,$r6
  209098:	00151ca5 	or	$r5,$r5,$r7
  20909c:	28c0a0a6 	ld.d	$r6,$r5,40(0x28)
  2090a0:	02c2a065 	addi.d	$r5,$r3,168(0xa8)
  2090a4:	4c0000c1 	jirl	$r1,$r6,0
  2090a8:	00c20ac4 	bstrpick.d	$r4,$r22,0x2,0x2
  2090ac:	29057c64 	st.b	$r4,$r3,351(0x15f)
  2090b0:	28c1a064 	ld.d	$r4,$r3,104(0x68)
  2090b4:	28c00084 	ld.d	$r4,$r4,0
  2090b8:	001292e5 	sltu	$r5,$r23,$r4
  2090bc:	02fff484 	addi.d	$r4,$r4,-3(0xffd)
  2090c0:	00129004 	sltu	$r4,$r0,$r4
  2090c4:	00139484 	masknez	$r4,$r4,$r5
  2090c8:	28c18066 	ld.d	$r6,$r3,96(0x60)
  2090cc:	001314c5 	maskeqz	$r5,$r6,$r5
  2090d0:	001510a4 	or	$r4,$r5,$r4
  2090d4:	58000c86 	beq	$r4,$r6,12(0xc) # 2090e0 <loongarch64_trap_handler+0x2280>
  2090d8:	0343fc84 	andi	$r4,$r4,0xff
  2090dc:	4400a880 	bnez	$r4,168(0xa8) # 209184 <loongarch64_trap_handler+0x2324>
  2090e0:	28c12064 	ld.d	$r4,$r3,72(0x48)
  2090e4:	29c7e064 	st.d	$r4,$r3,504(0x1f8)
  2090e8:	02c57c64 	addi.d	$r4,$r3,351(0x15f)
  2090ec:	29c7c064 	st.d	$r4,$r3,496(0x1f0)
  2090f0:	28c00324 	ld.d	$r4,$r25,0
  2090f4:	38720000 	dbar	0x0
  2090f8:	28c16065 	ld.d	$r5,$r3,88(0x58)
  2090fc:	28c000a5 	ld.d	$r5,$r5,0
  209100:	02c7c066 	addi.d	$r6,$r3,496(0x1f0)
  209104:	29c42066 	st.d	$r6,$r3,264(0x108)
  209108:	1a0001e6 	pcalau12i	$r6,15(0xf)
  20910c:	02e260c6 	addi.d	$r6,$r6,-1896(0x898)
  209110:	29c3e066 	st.d	$r6,$r3,248(0xf8)
  209114:	29c36077 	st.d	$r23,$r3,216(0xd8)
  209118:	29c4407b 	st.d	$r27,$r3,272(0x110)
  20911c:	29c4007b 	st.d	$r27,$r3,256(0x100)
  209120:	00150366 	move	$r6,$r27
  209124:	16000f06 	lu32i.d	$r6,120(0x78)
  209128:	29c3c066 	st.d	$r6,$r3,240(0xf0)
  20912c:	0380a806 	ori	$r6,$r0,0x2a
  209130:	29c34066 	st.d	$r6,$r3,208(0xd0)
  209134:	29c3207f 	st.d	$r31,$r3,200(0xc8)
  209138:	03807806 	ori	$r6,$r0,0x1e
  20913c:	29c3a066 	st.d	$r6,$r3,232(0xe8)
  209140:	29c2e066 	st.d	$r6,$r3,184(0xb8)
  209144:	29c3807e 	st.d	$r30,$r3,224(0xe0)
  209148:	29c2c07e 	st.d	$r30,$r3,176(0xb0)
  20914c:	29c46060 	st.d	$r0,$r3,280(0x118)
  209150:	29c30060 	st.d	$r0,$r3,192(0xc0)
  209154:	29c2a060 	st.d	$r0,$r3,168(0xa8)
  209158:	02fff884 	addi.d	$r4,$r4,-2(0xffe)
  20915c:	02400486 	sltui	$r6,$r4,1(0x1)
  209160:	00139b04 	masknez	$r4,$r24,$r6
  209164:	00131b87 	maskeqz	$r7,$r28,$r6
  209168:	001510e4 	or	$r4,$r7,$r4
  20916c:	00139ba7 	masknez	$r7,$r29,$r6
  209170:	001318a5 	maskeqz	$r5,$r5,$r6
  209174:	00151ca5 	or	$r5,$r5,$r7
  209178:	28c0a0a6 	ld.d	$r6,$r5,40(0x28)
  20917c:	02c2a065 	addi.d	$r5,$r3,168(0xa8)
  209180:	4c0000c1 	jirl	$r1,$r6,0
  209184:	04001004 	csrrd	$r4,0x4
  209188:	29c10064 	st.d	$r4,$r3,64(0x40)
  20918c:	00d24084 	bstrpick.d	$r4,$r4,0x12,0x10
  209190:	29c58064 	st.d	$r4,$r3,352(0x160)
  209194:	28c1a064 	ld.d	$r4,$r3,104(0x68)
  209198:	28c00084 	ld.d	$r4,$r4,0
  20919c:	001292e5 	sltu	$r5,$r23,$r4
  2091a0:	02fff484 	addi.d	$r4,$r4,-3(0xffd)
  2091a4:	00129004 	sltu	$r4,$r0,$r4
  2091a8:	00139484 	masknez	$r4,$r4,$r5
  2091ac:	28c18066 	ld.d	$r6,$r3,96(0x60)
  2091b0:	001314c5 	maskeqz	$r5,$r6,$r5
  2091b4:	001510a4 	or	$r4,$r5,$r4
  2091b8:	58000c86 	beq	$r4,$r6,12(0xc) # 2091c4 <loongarch64_trap_handler+0x2364>
  2091bc:	0343fc84 	andi	$r4,$r4,0xff
  2091c0:	4400a880 	bnez	$r4,168(0xa8) # 209268 <loongarch64_trap_handler+0x2408>
  2091c4:	28c0c064 	ld.d	$r4,$r3,48(0x30)
  2091c8:	29c7e064 	st.d	$r4,$r3,504(0x1f8)
  2091cc:	02c58064 	addi.d	$r4,$r3,352(0x160)
  2091d0:	29c7c064 	st.d	$r4,$r3,496(0x1f0)
  2091d4:	28c00324 	ld.d	$r4,$r25,0
  2091d8:	38720000 	dbar	0x0
  2091dc:	28c16065 	ld.d	$r5,$r3,88(0x58)
  2091e0:	28c000a5 	ld.d	$r5,$r5,0
  2091e4:	02c7c066 	addi.d	$r6,$r3,496(0x1f0)
  2091e8:	29c42066 	st.d	$r6,$r3,264(0x108)
  2091ec:	1a0001e6 	pcalau12i	$r6,15(0xf)
  2091f0:	02e2a0c6 	addi.d	$r6,$r6,-1880(0x8a8)
  2091f4:	29c3e066 	st.d	$r6,$r3,248(0xf8)
  2091f8:	29c36077 	st.d	$r23,$r3,216(0xd8)
  2091fc:	29c4407b 	st.d	$r27,$r3,272(0x110)
  209200:	29c4007b 	st.d	$r27,$r3,256(0x100)
  209204:	00150366 	move	$r6,$r27
  209208:	16000f86 	lu32i.d	$r6,124(0x7c)
  20920c:	29c3c066 	st.d	$r6,$r3,240(0xf0)
  209210:	0380a806 	ori	$r6,$r0,0x2a
  209214:	29c34066 	st.d	$r6,$r3,208(0xd0)
  209218:	29c3207f 	st.d	$r31,$r3,200(0xc8)
  20921c:	03807806 	ori	$r6,$r0,0x1e
  209220:	29c3a066 	st.d	$r6,$r3,232(0xe8)
  209224:	29c2e066 	st.d	$r6,$r3,184(0xb8)
  209228:	29c3807e 	st.d	$r30,$r3,224(0xe0)
  20922c:	29c2c07e 	st.d	$r30,$r3,176(0xb0)
  209230:	29c46060 	st.d	$r0,$r3,280(0x118)
  209234:	29c30060 	st.d	$r0,$r3,192(0xc0)
  209238:	29c2a060 	st.d	$r0,$r3,168(0xa8)
  20923c:	02fff884 	addi.d	$r4,$r4,-2(0xffe)
  209240:	02400486 	sltui	$r6,$r4,1(0x1)
  209244:	00139b04 	masknez	$r4,$r24,$r6
  209248:	00131b87 	maskeqz	$r7,$r28,$r6
  20924c:	001510e4 	or	$r4,$r7,$r4
  209250:	00139ba7 	masknez	$r7,$r29,$r6
  209254:	001318a5 	maskeqz	$r5,$r5,$r6
  209258:	00151ca5 	or	$r5,$r5,$r7
  20925c:	28c0a0a6 	ld.d	$r6,$r5,40(0x28)
  209260:	02c2a065 	addi.d	$r5,$r3,168(0xa8)
  209264:	4c0000c1 	jirl	$r1,$r6,0
  209268:	04003004 	csrrd	$r4,0xc
  20926c:	29c5a064 	st.d	$r4,$r3,360(0x168)
  209270:	28c1a064 	ld.d	$r4,$r3,104(0x68)
  209274:	28c00084 	ld.d	$r4,$r4,0
  209278:	001292e5 	sltu	$r5,$r23,$r4
  20927c:	02fff484 	addi.d	$r4,$r4,-3(0xffd)
  209280:	00129004 	sltu	$r4,$r0,$r4
  209284:	00139484 	masknez	$r4,$r4,$r5
  209288:	28c18066 	ld.d	$r6,$r3,96(0x60)
  20928c:	001314c5 	maskeqz	$r5,$r6,$r5
  209290:	001510a4 	or	$r4,$r5,$r4
  209294:	58000c86 	beq	$r4,$r6,12(0xc) # 2092a0 <loongarch64_trap_handler+0x2440>
  209298:	0343fc84 	andi	$r4,$r4,0xff
  20929c:	4400d480 	bnez	$r4,212(0xd4) # 209370 <loongarch64_trap_handler+0x2510>
  2092a0:	1a0000c4 	pcalau12i	$r4,6(0x6)
  2092a4:	02c32084 	addi.d	$r4,$r4,200(0xc8)
  2092a8:	29c20064 	st.d	$r4,$r3,128(0x80)
  2092ac:	02c5a064 	addi.d	$r4,$r3,360(0x168)
  2092b0:	29c1e064 	st.d	$r4,$r3,120(0x78)
  2092b4:	03808004 	ori	$r4,$r0,0x20
  2092b8:	16000084 	lu32i.d	$r4,4(0x4)
  2092bc:	29c86064 	st.d	$r4,$r3,536(0x218)
  2092c0:	28c14064 	ld.d	$r4,$r3,80(0x50)
  2092c4:	29c80064 	st.d	$r4,$r3,512(0x200)
  2092c8:	29c7c064 	st.d	$r4,$r3,496(0x1f0)
  2092cc:	29088077 	st.b	$r23,$r3,544(0x220)
  2092d0:	29c84060 	st.d	$r0,$r3,528(0x210)
  2092d4:	28c00324 	ld.d	$r4,$r25,0
  2092d8:	38720000 	dbar	0x0
  2092dc:	28c16065 	ld.d	$r5,$r3,88(0x58)
  2092e0:	28c000a5 	ld.d	$r5,$r5,0
  2092e4:	02c7c066 	addi.d	$r6,$r3,496(0x1f0)
  2092e8:	29c46066 	st.d	$r6,$r3,280(0x118)
  2092ec:	02c1e066 	addi.d	$r6,$r3,120(0x78)
  2092f0:	29c42066 	st.d	$r6,$r3,264(0x108)
  2092f4:	1a0001e6 	pcalau12i	$r6,15(0xf)
  2092f8:	02e2e0c6 	addi.d	$r6,$r6,-1864(0x8b8)
  2092fc:	29c3e066 	st.d	$r6,$r3,248(0xf8)
  209300:	29c36077 	st.d	$r23,$r3,216(0xd8)
  209304:	29c4807b 	st.d	$r27,$r3,288(0x120)
  209308:	29c4407b 	st.d	$r27,$r3,272(0x110)
  20930c:	29c4007b 	st.d	$r27,$r3,256(0x100)
  209310:	00150366 	move	$r6,$r27
  209314:	16001006 	lu32i.d	$r6,128(0x80)
  209318:	29c3c066 	st.d	$r6,$r3,240(0xf0)
  20931c:	0380a806 	ori	$r6,$r0,0x2a
  209320:	29c34066 	st.d	$r6,$r3,208(0xd0)
  209324:	29c3207f 	st.d	$r31,$r3,200(0xc8)
  209328:	03807806 	ori	$r6,$r0,0x1e
  20932c:	29c3a066 	st.d	$r6,$r3,232(0xe8)
  209330:	29c2e066 	st.d	$r6,$r3,184(0xb8)
  209334:	29c3807e 	st.d	$r30,$r3,224(0xe0)
  209338:	29c2c07e 	st.d	$r30,$r3,176(0xb0)
  20933c:	29c30060 	st.d	$r0,$r3,192(0xc0)
  209340:	29c2a060 	st.d	$r0,$r3,168(0xa8)
  209344:	02fff884 	addi.d	$r4,$r4,-2(0xffe)
  209348:	02400486 	sltui	$r6,$r4,1(0x1)
  20934c:	00139b04 	masknez	$r4,$r24,$r6
  209350:	00131b87 	maskeqz	$r7,$r28,$r6
  209354:	001510e4 	or	$r4,$r7,$r4
  209358:	00139ba7 	masknez	$r7,$r29,$r6
  20935c:	001318a5 	maskeqz	$r5,$r5,$r6
  209360:	00151ca5 	or	$r5,$r5,$r7
  209364:	28c0a0a6 	ld.d	$r6,$r5,40(0x28)
  209368:	02c2a065 	addi.d	$r5,$r3,168(0xa8)
  20936c:	4c0000c1 	jirl	$r1,$r6,0
  209370:	04008404 	csrrd	$r4,0x21
  209374:	29c5c064 	st.d	$r4,$r3,368(0x170)
  209378:	03403c85 	andi	$r5,$r4,0xf
  20937c:	29c5e065 	st.d	$r5,$r3,376(0x178)
  209380:	00cb1084 	bstrpick.d	$r4,$r4,0xb,0x4
  209384:	02c00484 	addi.d	$r4,$r4,1(0x1)
  209388:	29c60064 	st.d	$r4,$r3,384(0x180)
  20938c:	28c1a064 	ld.d	$r4,$r3,104(0x68)
  209390:	28c00084 	ld.d	$r4,$r4,0
  209394:	001292e5 	sltu	$r5,$r23,$r4
  209398:	02fff484 	addi.d	$r4,$r4,-3(0xffd)
  20939c:	00129004 	sltu	$r4,$r0,$r4
  2093a0:	00139484 	masknez	$r4,$r4,$r5
  2093a4:	28c18066 	ld.d	$r6,$r3,96(0x60)
  2093a8:	001314c5 	maskeqz	$r5,$r6,$r5
  2093ac:	001510a4 	or	$r4,$r5,$r4
  2093b0:	58000c86 	beq	$r4,$r6,12(0xc) # 2093bc <loongarch64_trap_handler+0x255c>
  2093b4:	0343fc84 	andi	$r4,$r4,0xff
  2093b8:	4400a880 	bnez	$r4,168(0xa8) # 209460 <loongarch64_trap_handler+0x2600>
  2093bc:	28c0c064 	ld.d	$r4,$r3,48(0x30)
  2093c0:	29c7e064 	st.d	$r4,$r3,504(0x1f8)
  2093c4:	02c5e064 	addi.d	$r4,$r3,376(0x178)
  2093c8:	29c7c064 	st.d	$r4,$r3,496(0x1f0)
  2093cc:	28c00324 	ld.d	$r4,$r25,0
  2093d0:	38720000 	dbar	0x0
  2093d4:	28c16065 	ld.d	$r5,$r3,88(0x58)
  2093d8:	28c000a5 	ld.d	$r5,$r5,0
  2093dc:	02c7c066 	addi.d	$r6,$r3,496(0x1f0)
  2093e0:	29c42066 	st.d	$r6,$r3,264(0x108)
  2093e4:	1a0001e6 	pcalau12i	$r6,15(0xf)
  2093e8:	02e320c6 	addi.d	$r6,$r6,-1848(0x8c8)
  2093ec:	29c3e066 	st.d	$r6,$r3,248(0xf8)
  2093f0:	29c36077 	st.d	$r23,$r3,216(0xd8)
  2093f4:	29c4407b 	st.d	$r27,$r3,272(0x110)
  2093f8:	29c4007b 	st.d	$r27,$r3,256(0x100)
  2093fc:	00150366 	move	$r6,$r27
  209400:	160010a6 	lu32i.d	$r6,133(0x85)
  209404:	29c3c066 	st.d	$r6,$r3,240(0xf0)
  209408:	0380a806 	ori	$r6,$r0,0x2a
  20940c:	29c34066 	st.d	$r6,$r3,208(0xd0)
  209410:	29c3207f 	st.d	$r31,$r3,200(0xc8)
  209414:	03807806 	ori	$r6,$r0,0x1e
  209418:	29c3a066 	st.d	$r6,$r3,232(0xe8)
  20941c:	29c2e066 	st.d	$r6,$r3,184(0xb8)
  209420:	29c3807e 	st.d	$r30,$r3,224(0xe0)
  209424:	29c2c07e 	st.d	$r30,$r3,176(0xb0)
  209428:	29c46060 	st.d	$r0,$r3,280(0x118)
  20942c:	29c30060 	st.d	$r0,$r3,192(0xc0)
  209430:	29c2a060 	st.d	$r0,$r3,168(0xa8)
  209434:	02fff884 	addi.d	$r4,$r4,-2(0xffe)
  209438:	02400486 	sltui	$r6,$r4,1(0x1)
  20943c:	00139b04 	masknez	$r4,$r24,$r6
  209440:	00131b87 	maskeqz	$r7,$r28,$r6
  209444:	001510e4 	or	$r4,$r7,$r4
  209448:	00139ba7 	masknez	$r7,$r29,$r6
  20944c:	001318a5 	maskeqz	$r5,$r5,$r6
  209450:	00151ca5 	or	$r5,$r5,$r7
  209454:	28c0a0a6 	ld.d	$r6,$r5,40(0x28)
  209458:	02c2a065 	addi.d	$r5,$r3,168(0xa8)
  20945c:	4c0000c1 	jirl	$r1,$r6,0
  209460:	29c0a076 	st.d	$r22,$r3,40(0x28)
  209464:	28c1a064 	ld.d	$r4,$r3,104(0x68)
  209468:	28c00084 	ld.d	$r4,$r4,0
  20946c:	001292e5 	sltu	$r5,$r23,$r4
  209470:	02fff484 	addi.d	$r4,$r4,-3(0xffd)
  209474:	00129004 	sltu	$r4,$r0,$r4
  209478:	00139484 	masknez	$r4,$r4,$r5
  20947c:	28c18066 	ld.d	$r6,$r3,96(0x60)
  209480:	001314c5 	maskeqz	$r5,$r6,$r5
  209484:	001510a4 	or	$r4,$r5,$r4
  209488:	58000c86 	beq	$r4,$r6,12(0xc) # 209494 <loongarch64_trap_handler+0x2634>
  20948c:	0343fc84 	andi	$r4,$r4,0xff
  209490:	4400a880 	bnez	$r4,168(0xa8) # 209538 <loongarch64_trap_handler+0x26d8>
  209494:	28c0c064 	ld.d	$r4,$r3,48(0x30)
  209498:	29c7e064 	st.d	$r4,$r3,504(0x1f8)
  20949c:	02c60064 	addi.d	$r4,$r3,384(0x180)
  2094a0:	29c7c064 	st.d	$r4,$r3,496(0x1f0)
  2094a4:	28c00324 	ld.d	$r4,$r25,0
  2094a8:	38720000 	dbar	0x0
  2094ac:	28c16065 	ld.d	$r5,$r3,88(0x58)
  2094b0:	28c000a5 	ld.d	$r5,$r5,0
  2094b4:	02c7c066 	addi.d	$r6,$r3,496(0x1f0)
  2094b8:	29c42066 	st.d	$r6,$r3,264(0x108)
  2094bc:	1a0001e6 	pcalau12i	$r6,15(0xf)
  2094c0:	02e360c6 	addi.d	$r6,$r6,-1832(0x8d8)
  2094c4:	29c3e066 	st.d	$r6,$r3,248(0xf8)
  2094c8:	29c36077 	st.d	$r23,$r3,216(0xd8)
  2094cc:	29c4407b 	st.d	$r27,$r3,272(0x110)
  2094d0:	29c4007b 	st.d	$r27,$r3,256(0x100)
  2094d4:	00150366 	move	$r6,$r27
  2094d8:	160010c6 	lu32i.d	$r6,134(0x86)
  2094dc:	29c3c066 	st.d	$r6,$r3,240(0xf0)
  2094e0:	0380a806 	ori	$r6,$r0,0x2a
  2094e4:	29c34066 	st.d	$r6,$r3,208(0xd0)
  2094e8:	29c3207f 	st.d	$r31,$r3,200(0xc8)
  2094ec:	03807806 	ori	$r6,$r0,0x1e
  2094f0:	29c3a066 	st.d	$r6,$r3,232(0xe8)
  2094f4:	29c2e066 	st.d	$r6,$r3,184(0xb8)
  2094f8:	29c3807e 	st.d	$r30,$r3,224(0xe0)
  2094fc:	29c2c07e 	st.d	$r30,$r3,176(0xb0)
  209500:	29c46060 	st.d	$r0,$r3,280(0x118)
  209504:	29c30060 	st.d	$r0,$r3,192(0xc0)
  209508:	29c2a060 	st.d	$r0,$r3,168(0xa8)
  20950c:	02fff884 	addi.d	$r4,$r4,-2(0xffe)
  209510:	02400486 	sltui	$r6,$r4,1(0x1)
  209514:	00139b04 	masknez	$r4,$r24,$r6
  209518:	00131b87 	maskeqz	$r7,$r28,$r6
  20951c:	001510e4 	or	$r4,$r7,$r4
  209520:	00139ba7 	masknez	$r7,$r29,$r6
  209524:	001318a5 	maskeqz	$r5,$r5,$r6
  209528:	00151ca5 	or	$r5,$r5,$r7
  20952c:	28c0a0a6 	ld.d	$r6,$r5,40(0x28)
  209530:	02c2a065 	addi.d	$r5,$r3,168(0xa8)
  209534:	4c0000c1 	jirl	$r1,$r6,0
  209538:	28c1a064 	ld.d	$r4,$r3,104(0x68)
  20953c:	28c00084 	ld.d	$r4,$r4,0
  209540:	001292e5 	sltu	$r5,$r23,$r4
  209544:	02fff484 	addi.d	$r4,$r4,-3(0xffd)
  209548:	00129004 	sltu	$r4,$r0,$r4
  20954c:	00139484 	masknez	$r4,$r4,$r5
  209550:	28c18066 	ld.d	$r6,$r3,96(0x60)
  209554:	001314c5 	maskeqz	$r5,$r6,$r5
  209558:	001510a4 	or	$r4,$r5,$r4
  20955c:	1a0001e5 	pcalau12i	$r5,15(0xf)
  209560:	02dca0b6 	addi.d	$r22,$r5,1832(0x728)
  209564:	58000c86 	beq	$r4,$r6,12(0xc) # 209570 <loongarch64_trap_handler+0x2710>
  209568:	0343fc84 	andi	$r4,$r4,0xff
  20956c:	4400a480 	bnez	$r4,164(0xa4) # 209610 <loongarch64_trap_handler+0x27b0>
  209570:	1a000144 	pcalau12i	$r4,10(0xa)
  209574:	02f29084 	addi.d	$r4,$r4,-860(0xca4)
  209578:	29c7e064 	st.d	$r4,$r3,504(0x1f8)
  20957c:	02c5c064 	addi.d	$r4,$r3,368(0x170)
  209580:	29c7c064 	st.d	$r4,$r3,496(0x1f0)
  209584:	28c00324 	ld.d	$r4,$r25,0
  209588:	38720000 	dbar	0x0
  20958c:	28c16065 	ld.d	$r5,$r3,88(0x58)
  209590:	28c000a5 	ld.d	$r5,$r5,0
  209594:	02c7c066 	addi.d	$r6,$r3,496(0x1f0)
  209598:	29c42066 	st.d	$r6,$r3,264(0x108)
  20959c:	29c3e076 	st.d	$r22,$r3,248(0xf8)
  2095a0:	29c36077 	st.d	$r23,$r3,216(0xd8)
  2095a4:	29c4407b 	st.d	$r27,$r3,272(0x110)
  2095a8:	29c4007b 	st.d	$r27,$r3,256(0x100)
  2095ac:	00150366 	move	$r6,$r27
  2095b0:	160010e6 	lu32i.d	$r6,135(0x87)
  2095b4:	29c3c066 	st.d	$r6,$r3,240(0xf0)
  2095b8:	0380a806 	ori	$r6,$r0,0x2a
  2095bc:	29c34066 	st.d	$r6,$r3,208(0xd0)
  2095c0:	29c3207f 	st.d	$r31,$r3,200(0xc8)
  2095c4:	03807806 	ori	$r6,$r0,0x1e
  2095c8:	29c3a066 	st.d	$r6,$r3,232(0xe8)
  2095cc:	29c2e066 	st.d	$r6,$r3,184(0xb8)
  2095d0:	29c3807e 	st.d	$r30,$r3,224(0xe0)
  2095d4:	29c2c07e 	st.d	$r30,$r3,176(0xb0)
  2095d8:	29c46060 	st.d	$r0,$r3,280(0x118)
  2095dc:	29c30060 	st.d	$r0,$r3,192(0xc0)
  2095e0:	29c2a060 	st.d	$r0,$r3,168(0xa8)
  2095e4:	02fff884 	addi.d	$r4,$r4,-2(0xffe)
  2095e8:	02400486 	sltui	$r6,$r4,1(0x1)
  2095ec:	00139b04 	masknez	$r4,$r24,$r6
  2095f0:	00131b87 	maskeqz	$r7,$r28,$r6
  2095f4:	001510e4 	or	$r4,$r7,$r4
  2095f8:	00139ba7 	masknez	$r7,$r29,$r6
  2095fc:	001318a5 	maskeqz	$r5,$r5,$r6
  209600:	00151ca5 	or	$r5,$r5,$r7
  209604:	28c0a0a6 	ld.d	$r6,$r5,40(0x28)
  209608:	02c2a065 	addi.d	$r5,$r3,168(0xa8)
  20960c:	4c0000c1 	jirl	$r1,$r6,0
  209610:	04006804 	csrrd	$r4,0x1a
  209614:	29c62064 	st.d	$r4,$r3,392(0x188)
  209618:	04006404 	csrrd	$r4,0x19
  20961c:	29c64064 	st.d	$r4,$r3,400(0x190)
  209620:	04006c04 	csrrd	$r4,0x1b
  209624:	29c66064 	st.d	$r4,$r3,408(0x198)
  209628:	28c1a064 	ld.d	$r4,$r3,104(0x68)
  20962c:	28c00084 	ld.d	$r4,$r4,0
  209630:	001292e5 	sltu	$r5,$r23,$r4
  209634:	02fff484 	addi.d	$r4,$r4,-3(0xffd)
  209638:	00129004 	sltu	$r4,$r0,$r4
  20963c:	00139484 	masknez	$r4,$r4,$r5
  209640:	28c18066 	ld.d	$r6,$r3,96(0x60)
  209644:	001314c5 	maskeqz	$r5,$r6,$r5
  209648:	001510a4 	or	$r4,$r5,$r4
  20964c:	58000c86 	beq	$r4,$r6,12(0xc) # 209658 <loongarch64_trap_handler+0x27f8>
  209650:	0343fc84 	andi	$r4,$r4,0xff
  209654:	4400d480 	bnez	$r4,212(0xd4) # 209728 <loongarch64_trap_handler+0x28c8>
  209658:	1a0000c4 	pcalau12i	$r4,6(0x6)
  20965c:	02c32084 	addi.d	$r4,$r4,200(0xc8)
  209660:	29c20064 	st.d	$r4,$r3,128(0x80)
  209664:	02c62064 	addi.d	$r4,$r3,392(0x188)
  209668:	29c1e064 	st.d	$r4,$r3,120(0x78)
  20966c:	03808004 	ori	$r4,$r0,0x20
  209670:	16000084 	lu32i.d	$r4,4(0x4)
  209674:	29c86064 	st.d	$r4,$r3,536(0x218)
  209678:	28c14064 	ld.d	$r4,$r3,80(0x50)
  20967c:	29c80064 	st.d	$r4,$r3,512(0x200)
  209680:	29c7c064 	st.d	$r4,$r3,496(0x1f0)
  209684:	29088077 	st.b	$r23,$r3,544(0x220)
  209688:	29c84060 	st.d	$r0,$r3,528(0x210)
  20968c:	28c00324 	ld.d	$r4,$r25,0
  209690:	38720000 	dbar	0x0
  209694:	28c16065 	ld.d	$r5,$r3,88(0x58)
  209698:	28c000a5 	ld.d	$r5,$r5,0
  20969c:	02c7c066 	addi.d	$r6,$r3,496(0x1f0)
  2096a0:	29c46066 	st.d	$r6,$r3,280(0x118)
  2096a4:	02c1e066 	addi.d	$r6,$r3,120(0x78)
  2096a8:	29c42066 	st.d	$r6,$r3,264(0x108)
  2096ac:	1a0001e6 	pcalau12i	$r6,15(0xf)
  2096b0:	02e3a0c6 	addi.d	$r6,$r6,-1816(0x8e8)
  2096b4:	29c3e066 	st.d	$r6,$r3,248(0xf8)
  2096b8:	29c36077 	st.d	$r23,$r3,216(0xd8)
  2096bc:	29c4807b 	st.d	$r27,$r3,288(0x120)
  2096c0:	29c4407b 	st.d	$r27,$r3,272(0x110)
  2096c4:	29c4007b 	st.d	$r27,$r3,256(0x100)
  2096c8:	00150366 	move	$r6,$r27
  2096cc:	16001206 	lu32i.d	$r6,144(0x90)
  2096d0:	29c3c066 	st.d	$r6,$r3,240(0xf0)
  2096d4:	0380a806 	ori	$r6,$r0,0x2a
  2096d8:	29c34066 	st.d	$r6,$r3,208(0xd0)
  2096dc:	29c3207f 	st.d	$r31,$r3,200(0xc8)
  2096e0:	03807806 	ori	$r6,$r0,0x1e
  2096e4:	29c3a066 	st.d	$r6,$r3,232(0xe8)
  2096e8:	29c2e066 	st.d	$r6,$r3,184(0xb8)
  2096ec:	29c3807e 	st.d	$r30,$r3,224(0xe0)
  2096f0:	29c2c07e 	st.d	$r30,$r3,176(0xb0)
  2096f4:	29c30060 	st.d	$r0,$r3,192(0xc0)
  2096f8:	29c2a060 	st.d	$r0,$r3,168(0xa8)
  2096fc:	02fff884 	addi.d	$r4,$r4,-2(0xffe)
  209700:	02400486 	sltui	$r6,$r4,1(0x1)
  209704:	00139b04 	masknez	$r4,$r24,$r6
  209708:	00131b87 	maskeqz	$r7,$r28,$r6
  20970c:	001510e4 	or	$r4,$r7,$r4
  209710:	00139ba7 	masknez	$r7,$r29,$r6
  209714:	001318a5 	maskeqz	$r5,$r5,$r6
  209718:	00151ca5 	or	$r5,$r5,$r7
  20971c:	28c0a0a6 	ld.d	$r6,$r5,40(0x28)
  209720:	02c2a065 	addi.d	$r5,$r3,168(0xa8)
  209724:	4c0000c1 	jirl	$r1,$r6,0
  209728:	28c1a064 	ld.d	$r4,$r3,104(0x68)
  20972c:	28c00084 	ld.d	$r4,$r4,0
  209730:	001292e5 	sltu	$r5,$r23,$r4
  209734:	02fff484 	addi.d	$r4,$r4,-3(0xffd)
  209738:	00129004 	sltu	$r4,$r0,$r4
  20973c:	00139484 	masknez	$r4,$r4,$r5
  209740:	28c18066 	ld.d	$r6,$r3,96(0x60)
  209744:	001314c5 	maskeqz	$r5,$r6,$r5
  209748:	001510a4 	or	$r4,$r5,$r4
  20974c:	58000c86 	beq	$r4,$r6,12(0xc) # 209758 <loongarch64_trap_handler+0x28f8>
  209750:	0343fc84 	andi	$r4,$r4,0xff
  209754:	4400d480 	bnez	$r4,212(0xd4) # 209828 <loongarch64_trap_handler+0x29c8>
  209758:	1a0000c4 	pcalau12i	$r4,6(0x6)
  20975c:	02c32084 	addi.d	$r4,$r4,200(0xc8)
  209760:	29c20064 	st.d	$r4,$r3,128(0x80)
  209764:	02c64064 	addi.d	$r4,$r3,400(0x190)
  209768:	29c1e064 	st.d	$r4,$r3,120(0x78)
  20976c:	03808004 	ori	$r4,$r0,0x20
  209770:	16000084 	lu32i.d	$r4,4(0x4)
  209774:	29c86064 	st.d	$r4,$r3,536(0x218)
  209778:	28c14064 	ld.d	$r4,$r3,80(0x50)
  20977c:	29c80064 	st.d	$r4,$r3,512(0x200)
  209780:	29c7c064 	st.d	$r4,$r3,496(0x1f0)
  209784:	29088077 	st.b	$r23,$r3,544(0x220)
  209788:	29c84060 	st.d	$r0,$r3,528(0x210)
  20978c:	28c00324 	ld.d	$r4,$r25,0
  209790:	38720000 	dbar	0x0
  209794:	28c16065 	ld.d	$r5,$r3,88(0x58)
  209798:	28c000a5 	ld.d	$r5,$r5,0
  20979c:	02c7c066 	addi.d	$r6,$r3,496(0x1f0)
  2097a0:	29c46066 	st.d	$r6,$r3,280(0x118)
  2097a4:	02c1e066 	addi.d	$r6,$r3,120(0x78)
  2097a8:	29c42066 	st.d	$r6,$r3,264(0x108)
  2097ac:	1a0001e6 	pcalau12i	$r6,15(0xf)
  2097b0:	02e3e0c6 	addi.d	$r6,$r6,-1800(0x8f8)
  2097b4:	29c3e066 	st.d	$r6,$r3,248(0xf8)
  2097b8:	29c36077 	st.d	$r23,$r3,216(0xd8)
  2097bc:	29c4807b 	st.d	$r27,$r3,288(0x120)
  2097c0:	29c4407b 	st.d	$r27,$r3,272(0x110)
  2097c4:	29c4007b 	st.d	$r27,$r3,256(0x100)
  2097c8:	00150366 	move	$r6,$r27
  2097cc:	16001226 	lu32i.d	$r6,145(0x91)
  2097d0:	29c3c066 	st.d	$r6,$r3,240(0xf0)
  2097d4:	0380a806 	ori	$r6,$r0,0x2a
  2097d8:	29c34066 	st.d	$r6,$r3,208(0xd0)
  2097dc:	29c3207f 	st.d	$r31,$r3,200(0xc8)
  2097e0:	03807806 	ori	$r6,$r0,0x1e
  2097e4:	29c3a066 	st.d	$r6,$r3,232(0xe8)
  2097e8:	29c2e066 	st.d	$r6,$r3,184(0xb8)
  2097ec:	29c3807e 	st.d	$r30,$r3,224(0xe0)
  2097f0:	29c2c07e 	st.d	$r30,$r3,176(0xb0)
  2097f4:	29c30060 	st.d	$r0,$r3,192(0xc0)
  2097f8:	29c2a060 	st.d	$r0,$r3,168(0xa8)
  2097fc:	02fff884 	addi.d	$r4,$r4,-2(0xffe)
  209800:	02400486 	sltui	$r6,$r4,1(0x1)
  209804:	00139b04 	masknez	$r4,$r24,$r6
  209808:	00131b87 	maskeqz	$r7,$r28,$r6
  20980c:	001510e4 	or	$r4,$r7,$r4
  209810:	00139ba7 	masknez	$r7,$r29,$r6
  209814:	001318a5 	maskeqz	$r5,$r5,$r6
  209818:	00151ca5 	or	$r5,$r5,$r7
  20981c:	28c0a0a6 	ld.d	$r6,$r5,40(0x28)
  209820:	02c2a065 	addi.d	$r5,$r3,168(0xa8)
  209824:	4c0000c1 	jirl	$r1,$r6,0
  209828:	29c0807a 	st.d	$r26,$r3,32(0x20)
  20982c:	28c1a064 	ld.d	$r4,$r3,104(0x68)
  209830:	28c00084 	ld.d	$r4,$r4,0
  209834:	001292e5 	sltu	$r5,$r23,$r4
  209838:	02fff484 	addi.d	$r4,$r4,-3(0xffd)
  20983c:	00129004 	sltu	$r4,$r0,$r4
  209840:	00139484 	masknez	$r4,$r4,$r5
  209844:	28c18066 	ld.d	$r6,$r3,96(0x60)
  209848:	001314c5 	maskeqz	$r5,$r6,$r5
  20984c:	001510a4 	or	$r4,$r5,$r4
  209850:	58000c86 	beq	$r4,$r6,12(0xc) # 20985c <loongarch64_trap_handler+0x29fc>
  209854:	0343fc84 	andi	$r4,$r4,0xff
  209858:	4400d480 	bnez	$r4,212(0xd4) # 20992c <loongarch64_trap_handler+0x2acc>
  20985c:	1a0000c4 	pcalau12i	$r4,6(0x6)
  209860:	02c32084 	addi.d	$r4,$r4,200(0xc8)
  209864:	29c20064 	st.d	$r4,$r3,128(0x80)
  209868:	02c66064 	addi.d	$r4,$r3,408(0x198)
  20986c:	29c1e064 	st.d	$r4,$r3,120(0x78)
  209870:	03808004 	ori	$r4,$r0,0x20
  209874:	16000084 	lu32i.d	$r4,4(0x4)
  209878:	29c86064 	st.d	$r4,$r3,536(0x218)
  20987c:	28c14064 	ld.d	$r4,$r3,80(0x50)
  209880:	29c80064 	st.d	$r4,$r3,512(0x200)
  209884:	29c7c064 	st.d	$r4,$r3,496(0x1f0)
  209888:	29088077 	st.b	$r23,$r3,544(0x220)
  20988c:	29c84060 	st.d	$r0,$r3,528(0x210)
  209890:	28c00324 	ld.d	$r4,$r25,0
  209894:	38720000 	dbar	0x0
  209898:	28c16065 	ld.d	$r5,$r3,88(0x58)
  20989c:	28c000a5 	ld.d	$r5,$r5,0
  2098a0:	02c7c066 	addi.d	$r6,$r3,496(0x1f0)
  2098a4:	29c46066 	st.d	$r6,$r3,280(0x118)
  2098a8:	02c1e066 	addi.d	$r6,$r3,120(0x78)
  2098ac:	29c42066 	st.d	$r6,$r3,264(0x108)
  2098b0:	1a0001e6 	pcalau12i	$r6,15(0xf)
  2098b4:	02e420c6 	addi.d	$r6,$r6,-1784(0x908)
  2098b8:	29c3e066 	st.d	$r6,$r3,248(0xf8)
  2098bc:	29c36077 	st.d	$r23,$r3,216(0xd8)
  2098c0:	29c4807b 	st.d	$r27,$r3,288(0x120)
  2098c4:	29c4407b 	st.d	$r27,$r3,272(0x110)
  2098c8:	29c4007b 	st.d	$r27,$r3,256(0x100)
  2098cc:	00150366 	move	$r6,$r27
  2098d0:	16001246 	lu32i.d	$r6,146(0x92)
  2098d4:	29c3c066 	st.d	$r6,$r3,240(0xf0)
  2098d8:	0380a806 	ori	$r6,$r0,0x2a
  2098dc:	29c34066 	st.d	$r6,$r3,208(0xd0)
  2098e0:	29c3207f 	st.d	$r31,$r3,200(0xc8)
  2098e4:	03807806 	ori	$r6,$r0,0x1e
  2098e8:	29c3a066 	st.d	$r6,$r3,232(0xe8)
  2098ec:	29c2e066 	st.d	$r6,$r3,184(0xb8)
  2098f0:	29c3807e 	st.d	$r30,$r3,224(0xe0)
  2098f4:	29c2c07e 	st.d	$r30,$r3,176(0xb0)
  2098f8:	29c30060 	st.d	$r0,$r3,192(0xc0)
  2098fc:	29c2a060 	st.d	$r0,$r3,168(0xa8)
  209900:	02fff884 	addi.d	$r4,$r4,-2(0xffe)
  209904:	02400486 	sltui	$r6,$r4,1(0x1)
  209908:	00139b04 	masknez	$r4,$r24,$r6
  20990c:	00131b87 	maskeqz	$r7,$r28,$r6
  209910:	001510e4 	or	$r4,$r7,$r4
  209914:	00139ba7 	masknez	$r7,$r29,$r6
  209918:	001318a5 	maskeqz	$r5,$r5,$r6
  20991c:	00151ca5 	or	$r5,$r5,$r7
  209920:	28c0a0a6 	ld.d	$r6,$r5,40(0x28)
  209924:	02c2a065 	addi.d	$r5,$r3,168(0xa8)
  209928:	4c0000c1 	jirl	$r1,$r6,0
  20992c:	04006c04 	csrrd	$r4,0x1b
  209930:	06401085 	lddir	$r5,$r4,0x4
  209934:	00ff30a5 	bstrpick.d	$r5,$r5,0x3f,0xc
  209938:	004130a5 	slli.d	$r5,$r5,0xc
  20993c:	29868065 	st.w	$r5,$r3,416(0x1a0)
  209940:	06400ca4 	lddir	$r4,$r5,0x3
  209944:	00ff3084 	bstrpick.d	$r4,$r4,0x3f,0xc
  209948:	00413084 	slli.d	$r4,$r4,0xc
  20994c:	29869064 	st.w	$r4,$r3,420(0x1a4)
  209950:	06400885 	lddir	$r5,$r4,0x2
  209954:	00ff30a5 	bstrpick.d	$r5,$r5,0x3f,0xc
  209958:	004130a5 	slli.d	$r5,$r5,0xc
  20995c:	2986a065 	st.w	$r5,$r3,424(0x1a8)
  209960:	064004ba 	lddir	$r26,$r5,0x1
  209964:	00ff335a 	bstrpick.d	$r26,$r26,0x3f,0xc
  209968:	0041335a 	slli.d	$r26,$r26,0xc
  20996c:	2986b07a 	st.w	$r26,$r3,428(0x1ac)
  209970:	28c1a064 	ld.d	$r4,$r3,104(0x68)
  209974:	28c00084 	ld.d	$r4,$r4,0
  209978:	001292e5 	sltu	$r5,$r23,$r4
  20997c:	02fff484 	addi.d	$r4,$r4,-3(0xffd)
  209980:	00129004 	sltu	$r4,$r0,$r4
  209984:	00139484 	masknez	$r4,$r4,$r5
  209988:	28c18066 	ld.d	$r6,$r3,96(0x60)
  20998c:	001314c5 	maskeqz	$r5,$r6,$r5
  209990:	001510a4 	or	$r4,$r5,$r4
  209994:	1a0000c5 	pcalau12i	$r5,6(0x6)
  209998:	02c090b9 	addi.d	$r25,$r5,36(0x24)
  20999c:	58000c86 	beq	$r4,$r6,12(0xc) # 2099a8 <loongarch64_trap_handler+0x2b48>
  2099a0:	0343fc84 	andi	$r4,$r4,0xff
  2099a4:	4400d080 	bnez	$r4,208(0xd0) # 209a74 <loongarch64_trap_handler+0x2c14>
  2099a8:	29c20079 	st.d	$r25,$r3,128(0x80)
  2099ac:	02c68064 	addi.d	$r4,$r3,416(0x1a0)
  2099b0:	29c1e064 	st.d	$r4,$r3,120(0x78)
  2099b4:	03808004 	ori	$r4,$r0,0x20
  2099b8:	16000084 	lu32i.d	$r4,4(0x4)
  2099bc:	29c86064 	st.d	$r4,$r3,536(0x218)
  2099c0:	28c14064 	ld.d	$r4,$r3,80(0x50)
  2099c4:	29c80064 	st.d	$r4,$r3,512(0x200)
  2099c8:	29c7c064 	st.d	$r4,$r3,496(0x1f0)
  2099cc:	29088077 	st.b	$r23,$r3,544(0x220)
  2099d0:	29c84060 	st.d	$r0,$r3,528(0x210)
  2099d4:	28c0e064 	ld.d	$r4,$r3,56(0x38)
  2099d8:	28c00084 	ld.d	$r4,$r4,0
  2099dc:	38720000 	dbar	0x0
  2099e0:	28c16065 	ld.d	$r5,$r3,88(0x58)
  2099e4:	28c000a5 	ld.d	$r5,$r5,0
  2099e8:	02c7c066 	addi.d	$r6,$r3,496(0x1f0)
  2099ec:	29c46066 	st.d	$r6,$r3,280(0x118)
  2099f0:	02c1e066 	addi.d	$r6,$r3,120(0x78)
  2099f4:	29c42066 	st.d	$r6,$r3,264(0x108)
  2099f8:	1a0001e6 	pcalau12i	$r6,15(0xf)
  2099fc:	02e460c6 	addi.d	$r6,$r6,-1768(0x918)
  209a00:	29c3e066 	st.d	$r6,$r3,248(0xf8)
  209a04:	29c36077 	st.d	$r23,$r3,216(0xd8)
  209a08:	29c4807b 	st.d	$r27,$r3,288(0x120)
  209a0c:	29c4407b 	st.d	$r27,$r3,272(0x110)
  209a10:	29c4007b 	st.d	$r27,$r3,256(0x100)
  209a14:	00150366 	move	$r6,$r27
  209a18:	16001666 	lu32i.d	$r6,179(0xb3)
  209a1c:	29c3c066 	st.d	$r6,$r3,240(0xf0)
  209a20:	0380a806 	ori	$r6,$r0,0x2a
  209a24:	29c34066 	st.d	$r6,$r3,208(0xd0)
  209a28:	29c3207f 	st.d	$r31,$r3,200(0xc8)
  209a2c:	03807806 	ori	$r6,$r0,0x1e
  209a30:	29c3a066 	st.d	$r6,$r3,232(0xe8)
  209a34:	29c2e066 	st.d	$r6,$r3,184(0xb8)
  209a38:	29c3807e 	st.d	$r30,$r3,224(0xe0)
  209a3c:	29c2c07e 	st.d	$r30,$r3,176(0xb0)
  209a40:	29c30060 	st.d	$r0,$r3,192(0xc0)
  209a44:	29c2a060 	st.d	$r0,$r3,168(0xa8)
  209a48:	02fff884 	addi.d	$r4,$r4,-2(0xffe)
  209a4c:	02400486 	sltui	$r6,$r4,1(0x1)
  209a50:	00139b04 	masknez	$r4,$r24,$r6
  209a54:	00131b87 	maskeqz	$r7,$r28,$r6
  209a58:	001510e4 	or	$r4,$r7,$r4
  209a5c:	00139ba7 	masknez	$r7,$r29,$r6
  209a60:	001318a5 	maskeqz	$r5,$r5,$r6
  209a64:	00151ca5 	or	$r5,$r5,$r7
  209a68:	28c0a0a6 	ld.d	$r6,$r5,40(0x28)
  209a6c:	02c2a065 	addi.d	$r5,$r3,168(0xa8)
  209a70:	4c0000c1 	jirl	$r1,$r6,0
  209a74:	28c1a064 	ld.d	$r4,$r3,104(0x68)
  209a78:	28c00084 	ld.d	$r4,$r4,0
  209a7c:	001292e5 	sltu	$r5,$r23,$r4
  209a80:	02fff484 	addi.d	$r4,$r4,-3(0xffd)
  209a84:	00129004 	sltu	$r4,$r0,$r4
  209a88:	00139484 	masknez	$r4,$r4,$r5
  209a8c:	28c18066 	ld.d	$r6,$r3,96(0x60)
  209a90:	001314c5 	maskeqz	$r5,$r6,$r5
  209a94:	001510a4 	or	$r4,$r5,$r4
  209a98:	58000c86 	beq	$r4,$r6,12(0xc) # 209aa4 <loongarch64_trap_handler+0x2c44>
  209a9c:	0343fc84 	andi	$r4,$r4,0xff
  209aa0:	4400d080 	bnez	$r4,208(0xd0) # 209b70 <loongarch64_trap_handler+0x2d10>
  209aa4:	29c20079 	st.d	$r25,$r3,128(0x80)
  209aa8:	02c69064 	addi.d	$r4,$r3,420(0x1a4)
  209aac:	29c1e064 	st.d	$r4,$r3,120(0x78)
  209ab0:	03808004 	ori	$r4,$r0,0x20
  209ab4:	16000084 	lu32i.d	$r4,4(0x4)
  209ab8:	29c86064 	st.d	$r4,$r3,536(0x218)
  209abc:	28c14064 	ld.d	$r4,$r3,80(0x50)
  209ac0:	29c80064 	st.d	$r4,$r3,512(0x200)
  209ac4:	29c7c064 	st.d	$r4,$r3,496(0x1f0)
  209ac8:	29088077 	st.b	$r23,$r3,544(0x220)
  209acc:	29c84060 	st.d	$r0,$r3,528(0x210)
  209ad0:	28c0e064 	ld.d	$r4,$r3,56(0x38)
  209ad4:	28c00084 	ld.d	$r4,$r4,0
  209ad8:	38720000 	dbar	0x0
  209adc:	28c16065 	ld.d	$r5,$r3,88(0x58)
  209ae0:	28c000a5 	ld.d	$r5,$r5,0
  209ae4:	02c7c066 	addi.d	$r6,$r3,496(0x1f0)
  209ae8:	29c46066 	st.d	$r6,$r3,280(0x118)
  209aec:	02c1e066 	addi.d	$r6,$r3,120(0x78)
  209af0:	29c42066 	st.d	$r6,$r3,264(0x108)
  209af4:	1a0001e6 	pcalau12i	$r6,15(0xf)
  209af8:	02e4a0c6 	addi.d	$r6,$r6,-1752(0x928)
  209afc:	29c3e066 	st.d	$r6,$r3,248(0xf8)
  209b00:	29c36077 	st.d	$r23,$r3,216(0xd8)
  209b04:	29c4807b 	st.d	$r27,$r3,288(0x120)
  209b08:	29c4407b 	st.d	$r27,$r3,272(0x110)
  209b0c:	29c4007b 	st.d	$r27,$r3,256(0x100)
  209b10:	00150366 	move	$r6,$r27
  209b14:	16001686 	lu32i.d	$r6,180(0xb4)
  209b18:	29c3c066 	st.d	$r6,$r3,240(0xf0)
  209b1c:	0380a806 	ori	$r6,$r0,0x2a
  209b20:	29c34066 	st.d	$r6,$r3,208(0xd0)
  209b24:	29c3207f 	st.d	$r31,$r3,200(0xc8)
  209b28:	03807806 	ori	$r6,$r0,0x1e
  209b2c:	29c3a066 	st.d	$r6,$r3,232(0xe8)
  209b30:	29c2e066 	st.d	$r6,$r3,184(0xb8)
  209b34:	29c3807e 	st.d	$r30,$r3,224(0xe0)
  209b38:	29c2c07e 	st.d	$r30,$r3,176(0xb0)
  209b3c:	29c30060 	st.d	$r0,$r3,192(0xc0)
  209b40:	29c2a060 	st.d	$r0,$r3,168(0xa8)
  209b44:	02fff884 	addi.d	$r4,$r4,-2(0xffe)
  209b48:	02400486 	sltui	$r6,$r4,1(0x1)
  209b4c:	00139b04 	masknez	$r4,$r24,$r6
  209b50:	00131b87 	maskeqz	$r7,$r28,$r6
  209b54:	001510e4 	or	$r4,$r7,$r4
  209b58:	00139ba7 	masknez	$r7,$r29,$r6
  209b5c:	001318a5 	maskeqz	$r5,$r5,$r6
  209b60:	00151ca5 	or	$r5,$r5,$r7
  209b64:	28c0a0a6 	ld.d	$r6,$r5,40(0x28)
  209b68:	02c2a065 	addi.d	$r5,$r3,168(0xa8)
  209b6c:	4c0000c1 	jirl	$r1,$r6,0
  209b70:	28c1a064 	ld.d	$r4,$r3,104(0x68)
  209b74:	28c00084 	ld.d	$r4,$r4,0
  209b78:	001292e5 	sltu	$r5,$r23,$r4
  209b7c:	02fff484 	addi.d	$r4,$r4,-3(0xffd)
  209b80:	00129004 	sltu	$r4,$r0,$r4
  209b84:	00139484 	masknez	$r4,$r4,$r5
  209b88:	28c18066 	ld.d	$r6,$r3,96(0x60)
  209b8c:	001314c5 	maskeqz	$r5,$r6,$r5
  209b90:	001510a4 	or	$r4,$r5,$r4
  209b94:	58000c86 	beq	$r4,$r6,12(0xc) # 209ba0 <loongarch64_trap_handler+0x2d40>
  209b98:	0343fc84 	andi	$r4,$r4,0xff
  209b9c:	4400d080 	bnez	$r4,208(0xd0) # 209c6c <loongarch64_trap_handler+0x2e0c>
  209ba0:	29c20079 	st.d	$r25,$r3,128(0x80)
  209ba4:	02c6a064 	addi.d	$r4,$r3,424(0x1a8)
  209ba8:	29c1e064 	st.d	$r4,$r3,120(0x78)
  209bac:	03808004 	ori	$r4,$r0,0x20
  209bb0:	16000084 	lu32i.d	$r4,4(0x4)
  209bb4:	29c86064 	st.d	$r4,$r3,536(0x218)
  209bb8:	28c14064 	ld.d	$r4,$r3,80(0x50)
  209bbc:	29c80064 	st.d	$r4,$r3,512(0x200)
  209bc0:	29c7c064 	st.d	$r4,$r3,496(0x1f0)
  209bc4:	29088077 	st.b	$r23,$r3,544(0x220)
  209bc8:	29c84060 	st.d	$r0,$r3,528(0x210)
  209bcc:	28c0e064 	ld.d	$r4,$r3,56(0x38)
  209bd0:	28c00084 	ld.d	$r4,$r4,0
  209bd4:	38720000 	dbar	0x0
  209bd8:	28c16065 	ld.d	$r5,$r3,88(0x58)
  209bdc:	28c000a5 	ld.d	$r5,$r5,0
  209be0:	02c7c066 	addi.d	$r6,$r3,496(0x1f0)
  209be4:	29c46066 	st.d	$r6,$r3,280(0x118)
  209be8:	02c1e066 	addi.d	$r6,$r3,120(0x78)
  209bec:	29c42066 	st.d	$r6,$r3,264(0x108)
  209bf0:	1a0001e6 	pcalau12i	$r6,15(0xf)
  209bf4:	02e4e0c6 	addi.d	$r6,$r6,-1736(0x938)
  209bf8:	29c3e066 	st.d	$r6,$r3,248(0xf8)
  209bfc:	29c36077 	st.d	$r23,$r3,216(0xd8)
  209c00:	29c4807b 	st.d	$r27,$r3,288(0x120)
  209c04:	29c4407b 	st.d	$r27,$r3,272(0x110)
  209c08:	29c4007b 	st.d	$r27,$r3,256(0x100)
  209c0c:	00150366 	move	$r6,$r27
  209c10:	160016a6 	lu32i.d	$r6,181(0xb5)
  209c14:	29c3c066 	st.d	$r6,$r3,240(0xf0)
  209c18:	0380a806 	ori	$r6,$r0,0x2a
  209c1c:	29c34066 	st.d	$r6,$r3,208(0xd0)
  209c20:	29c3207f 	st.d	$r31,$r3,200(0xc8)
  209c24:	03807806 	ori	$r6,$r0,0x1e
  209c28:	29c3a066 	st.d	$r6,$r3,232(0xe8)
  209c2c:	29c2e066 	st.d	$r6,$r3,184(0xb8)
  209c30:	29c3807e 	st.d	$r30,$r3,224(0xe0)
  209c34:	29c2c07e 	st.d	$r30,$r3,176(0xb0)
  209c38:	29c30060 	st.d	$r0,$r3,192(0xc0)
  209c3c:	29c2a060 	st.d	$r0,$r3,168(0xa8)
  209c40:	02fff884 	addi.d	$r4,$r4,-2(0xffe)
  209c44:	02400486 	sltui	$r6,$r4,1(0x1)
  209c48:	00139b04 	masknez	$r4,$r24,$r6
  209c4c:	00131b87 	maskeqz	$r7,$r28,$r6
  209c50:	001510e4 	or	$r4,$r7,$r4
  209c54:	00139ba7 	masknez	$r7,$r29,$r6
  209c58:	001318a5 	maskeqz	$r5,$r5,$r6
  209c5c:	00151ca5 	or	$r5,$r5,$r7
  209c60:	28c0a0a6 	ld.d	$r6,$r5,40(0x28)
  209c64:	02c2a065 	addi.d	$r5,$r3,168(0xa8)
  209c68:	4c0000c1 	jirl	$r1,$r6,0
  209c6c:	28c1a064 	ld.d	$r4,$r3,104(0x68)
  209c70:	28c00084 	ld.d	$r4,$r4,0
  209c74:	001292e5 	sltu	$r5,$r23,$r4
  209c78:	02fff484 	addi.d	$r4,$r4,-3(0xffd)
  209c7c:	00129004 	sltu	$r4,$r0,$r4
  209c80:	00139484 	masknez	$r4,$r4,$r5
  209c84:	28c18066 	ld.d	$r6,$r3,96(0x60)
  209c88:	001314c5 	maskeqz	$r5,$r6,$r5
  209c8c:	001510a4 	or	$r4,$r5,$r4
  209c90:	58000c86 	beq	$r4,$r6,12(0xc) # 209c9c <loongarch64_trap_handler+0x2e3c>
  209c94:	0343fc84 	andi	$r4,$r4,0xff
  209c98:	4400d480 	bnez	$r4,212(0xd4) # 209d6c <loongarch64_trap_handler+0x2f0c>
  209c9c:	29c20079 	st.d	$r25,$r3,128(0x80)
  209ca0:	02c6b064 	addi.d	$r4,$r3,428(0x1ac)
  209ca4:	29c1e064 	st.d	$r4,$r3,120(0x78)
  209ca8:	03808004 	ori	$r4,$r0,0x20
  209cac:	16000084 	lu32i.d	$r4,4(0x4)
  209cb0:	29c86064 	st.d	$r4,$r3,536(0x218)
  209cb4:	28c14064 	ld.d	$r4,$r3,80(0x50)
  209cb8:	29c80064 	st.d	$r4,$r3,512(0x200)
  209cbc:	29c7c064 	st.d	$r4,$r3,496(0x1f0)
  209cc0:	29088077 	st.b	$r23,$r3,544(0x220)
  209cc4:	29c84060 	st.d	$r0,$r3,528(0x210)
  209cc8:	28c0e064 	ld.d	$r4,$r3,56(0x38)
  209ccc:	28c00084 	ld.d	$r4,$r4,0
  209cd0:	38720000 	dbar	0x0
  209cd4:	28c16065 	ld.d	$r5,$r3,88(0x58)
  209cd8:	28c000a5 	ld.d	$r5,$r5,0
  209cdc:	02c7c066 	addi.d	$r6,$r3,496(0x1f0)
  209ce0:	29c46066 	st.d	$r6,$r3,280(0x118)
  209ce4:	02c1e066 	addi.d	$r6,$r3,120(0x78)
  209ce8:	29c42066 	st.d	$r6,$r3,264(0x108)
  209cec:	1a0001e6 	pcalau12i	$r6,15(0xf)
  209cf0:	02e520c6 	addi.d	$r6,$r6,-1720(0x948)
  209cf4:	29c3e066 	st.d	$r6,$r3,248(0xf8)
  209cf8:	29c36077 	st.d	$r23,$r3,216(0xd8)
  209cfc:	29c4807b 	st.d	$r27,$r3,288(0x120)
  209d00:	29c4407b 	st.d	$r27,$r3,272(0x110)
  209d04:	29c4007b 	st.d	$r27,$r3,256(0x100)
  209d08:	00150366 	move	$r6,$r27
  209d0c:	160016c6 	lu32i.d	$r6,182(0xb6)
  209d10:	29c3c066 	st.d	$r6,$r3,240(0xf0)
  209d14:	0380a806 	ori	$r6,$r0,0x2a
  209d18:	29c34066 	st.d	$r6,$r3,208(0xd0)
  209d1c:	29c3207f 	st.d	$r31,$r3,200(0xc8)
  209d20:	03807806 	ori	$r6,$r0,0x1e
  209d24:	29c3a066 	st.d	$r6,$r3,232(0xe8)
  209d28:	29c2e066 	st.d	$r6,$r3,184(0xb8)
  209d2c:	29c3807e 	st.d	$r30,$r3,224(0xe0)
  209d30:	29c2c07e 	st.d	$r30,$r3,176(0xb0)
  209d34:	29c30060 	st.d	$r0,$r3,192(0xc0)
  209d38:	29c2a060 	st.d	$r0,$r3,168(0xa8)
  209d3c:	02fff884 	addi.d	$r4,$r4,-2(0xffe)
  209d40:	02400486 	sltui	$r6,$r4,1(0x1)
  209d44:	00139b04 	masknez	$r4,$r24,$r6
  209d48:	00131b87 	maskeqz	$r7,$r28,$r6
  209d4c:	001510e4 	or	$r4,$r7,$r4
  209d50:	00139ba7 	masknez	$r7,$r29,$r6
  209d54:	001318a5 	maskeqz	$r5,$r5,$r6
  209d58:	00151ca5 	or	$r5,$r5,$r7
  209d5c:	28c0a0a6 	ld.d	$r6,$r5,40(0x28)
  209d60:	02c2a065 	addi.d	$r5,$r3,168(0xa8)
  209d64:	4c0000c1 	jirl	$r1,$r6,0
  209d68:	2886b07a 	ld.w	$r26,$r3,428(0x1ac)
  209d6c:	06440340 	ldpte	$r26,0x0
  209d70:	2886b064 	ld.w	$r4,$r3,428(0x1ac)
  209d74:	06440480 	ldpte	$r4,0x1
  209d78:	04023004 	csrrd	$r4,0x8c
  209d7c:	29c6e060 	st.d	$r0,$r3,440(0x1b8)
  209d80:	29c6c064 	st.d	$r4,$r3,432(0x1b0)
  209d84:	04023404 	csrrd	$r4,0x8d
  209d88:	29c7207b 	st.d	$r27,$r3,456(0x1c8)
  209d8c:	29c70064 	st.d	$r4,$r3,448(0x1c0)
  209d90:	28c1a064 	ld.d	$r4,$r3,104(0x68)
  209d94:	28c00084 	ld.d	$r4,$r4,0
  209d98:	001292e5 	sltu	$r5,$r23,$r4
  209d9c:	02fff484 	addi.d	$r4,$r4,-3(0xffd)
  209da0:	00129004 	sltu	$r4,$r0,$r4
  209da4:	00139484 	masknez	$r4,$r4,$r5
  209da8:	28c18066 	ld.d	$r6,$r3,96(0x60)
  209dac:	001314c5 	maskeqz	$r5,$r6,$r5
  209db0:	001510a4 	or	$r4,$r5,$r4
  209db4:	1a000125 	pcalau12i	$r5,9(0x9)
  209db8:	02d920b9 	addi.d	$r25,$r5,1608(0x648)
  209dbc:	28c0e07a 	ld.d	$r26,$r3,56(0x38)
  209dc0:	58000c86 	beq	$r4,$r6,12(0xc) # 209dcc <loongarch64_trap_handler+0x2f6c>
  209dc4:	0343fc84 	andi	$r4,$r4,0xff
  209dc8:	4400c480 	bnez	$r4,196(0xc4) # 209e8c <loongarch64_trap_handler+0x302c>
  209dcc:	29c20079 	st.d	$r25,$r3,128(0x80)
  209dd0:	28c08064 	ld.d	$r4,$r3,32(0x20)
  209dd4:	29c1e064 	st.d	$r4,$r3,120(0x78)
  209dd8:	03808004 	ori	$r4,$r0,0x20
  209ddc:	16000284 	lu32i.d	$r4,20(0x14)
  209de0:	29c86064 	st.d	$r4,$r3,536(0x218)
  209de4:	28c14064 	ld.d	$r4,$r3,80(0x50)
  209de8:	29c80064 	st.d	$r4,$r3,512(0x200)
  209dec:	29c7c064 	st.d	$r4,$r3,496(0x1f0)
  209df0:	29088077 	st.b	$r23,$r3,544(0x220)
  209df4:	29c84060 	st.d	$r0,$r3,528(0x210)
  209df8:	28c00344 	ld.d	$r4,$r26,0
  209dfc:	38720000 	dbar	0x0
  209e00:	28c16065 	ld.d	$r5,$r3,88(0x58)
  209e04:	28c000a5 	ld.d	$r5,$r5,0
  209e08:	02c7c066 	addi.d	$r6,$r3,496(0x1f0)
  209e0c:	29c46066 	st.d	$r6,$r3,280(0x118)
  209e10:	02c1e066 	addi.d	$r6,$r3,120(0x78)
  209e14:	29c42066 	st.d	$r6,$r3,264(0x108)
  209e18:	29c3e076 	st.d	$r22,$r3,248(0xf8)
  209e1c:	29c36077 	st.d	$r23,$r3,216(0xd8)
  209e20:	29c4807b 	st.d	$r27,$r3,288(0x120)
  209e24:	29c4407b 	st.d	$r27,$r3,272(0x110)
  209e28:	29c4007b 	st.d	$r27,$r3,256(0x100)
  209e2c:	00150366 	move	$r6,$r27
  209e30:	16001766 	lu32i.d	$r6,187(0xbb)
  209e34:	29c3c066 	st.d	$r6,$r3,240(0xf0)
  209e38:	0380a806 	ori	$r6,$r0,0x2a
  209e3c:	29c34066 	st.d	$r6,$r3,208(0xd0)
  209e40:	29c3207f 	st.d	$r31,$r3,200(0xc8)
  209e44:	03807806 	ori	$r6,$r0,0x1e
  209e48:	29c3a066 	st.d	$r6,$r3,232(0xe8)
  209e4c:	29c2e066 	st.d	$r6,$r3,184(0xb8)
  209e50:	29c3807e 	st.d	$r30,$r3,224(0xe0)
  209e54:	29c2c07e 	st.d	$r30,$r3,176(0xb0)
  209e58:	29c30060 	st.d	$r0,$r3,192(0xc0)
  209e5c:	29c2a060 	st.d	$r0,$r3,168(0xa8)
  209e60:	02fff884 	addi.d	$r4,$r4,-2(0xffe)
  209e64:	02400486 	sltui	$r6,$r4,1(0x1)
  209e68:	00139b04 	masknez	$r4,$r24,$r6
  209e6c:	00131b87 	maskeqz	$r7,$r28,$r6
  209e70:	001510e4 	or	$r4,$r7,$r4
  209e74:	00139ba7 	masknez	$r7,$r29,$r6
  209e78:	001318a5 	maskeqz	$r5,$r5,$r6
  209e7c:	00151ca5 	or	$r5,$r5,$r7
  209e80:	28c0a0a6 	ld.d	$r6,$r5,40(0x28)
  209e84:	02c2a065 	addi.d	$r5,$r3,168(0xa8)
  209e88:	4c0000c1 	jirl	$r1,$r6,0
  209e8c:	28c1a064 	ld.d	$r4,$r3,104(0x68)
  209e90:	28c00084 	ld.d	$r4,$r4,0
  209e94:	001292e5 	sltu	$r5,$r23,$r4
  209e98:	02fff484 	addi.d	$r4,$r4,-3(0xffd)
  209e9c:	00129004 	sltu	$r4,$r0,$r4
  209ea0:	00139484 	masknez	$r4,$r4,$r5
  209ea4:	28c18066 	ld.d	$r6,$r3,96(0x60)
  209ea8:	001314c5 	maskeqz	$r5,$r6,$r5
  209eac:	001510a4 	or	$r4,$r5,$r4
  209eb0:	58000c86 	beq	$r4,$r6,12(0xc) # 209ebc <loongarch64_trap_handler+0x305c>
  209eb4:	0343fc84 	andi	$r4,$r4,0xff
  209eb8:	4400c480 	bnez	$r4,196(0xc4) # 209f7c <loongarch64_trap_handler+0x311c>
  209ebc:	29c20079 	st.d	$r25,$r3,128(0x80)
  209ec0:	02c70064 	addi.d	$r4,$r3,448(0x1c0)
  209ec4:	29c1e064 	st.d	$r4,$r3,120(0x78)
  209ec8:	03808004 	ori	$r4,$r0,0x20
  209ecc:	16000284 	lu32i.d	$r4,20(0x14)
  209ed0:	29c86064 	st.d	$r4,$r3,536(0x218)
  209ed4:	28c14064 	ld.d	$r4,$r3,80(0x50)
  209ed8:	29c80064 	st.d	$r4,$r3,512(0x200)
  209edc:	29c7c064 	st.d	$r4,$r3,496(0x1f0)
  209ee0:	29088077 	st.b	$r23,$r3,544(0x220)
  209ee4:	29c84060 	st.d	$r0,$r3,528(0x210)
  209ee8:	28c00344 	ld.d	$r4,$r26,0
  209eec:	38720000 	dbar	0x0
  209ef0:	28c16065 	ld.d	$r5,$r3,88(0x58)
  209ef4:	28c000a5 	ld.d	$r5,$r5,0
  209ef8:	02c7c066 	addi.d	$r6,$r3,496(0x1f0)
  209efc:	29c46066 	st.d	$r6,$r3,280(0x118)
  209f00:	02c1e066 	addi.d	$r6,$r3,120(0x78)
  209f04:	29c42066 	st.d	$r6,$r3,264(0x108)
  209f08:	29c3e076 	st.d	$r22,$r3,248(0xf8)
  209f0c:	29c36077 	st.d	$r23,$r3,216(0xd8)
  209f10:	29c4807b 	st.d	$r27,$r3,288(0x120)
  209f14:	29c4407b 	st.d	$r27,$r3,272(0x110)
  209f18:	29c4007b 	st.d	$r27,$r3,256(0x100)
  209f1c:	00150366 	move	$r6,$r27
  209f20:	16001786 	lu32i.d	$r6,188(0xbc)
  209f24:	29c3c066 	st.d	$r6,$r3,240(0xf0)
  209f28:	0380a806 	ori	$r6,$r0,0x2a
  209f2c:	29c34066 	st.d	$r6,$r3,208(0xd0)
  209f30:	29c3207f 	st.d	$r31,$r3,200(0xc8)
  209f34:	03807806 	ori	$r6,$r0,0x1e
  209f38:	29c3a066 	st.d	$r6,$r3,232(0xe8)
  209f3c:	29c2e066 	st.d	$r6,$r3,184(0xb8)
  209f40:	29c3807e 	st.d	$r30,$r3,224(0xe0)
  209f44:	29c2c07e 	st.d	$r30,$r3,176(0xb0)
  209f48:	29c30060 	st.d	$r0,$r3,192(0xc0)
  209f4c:	29c2a060 	st.d	$r0,$r3,168(0xa8)
  209f50:	02fff884 	addi.d	$r4,$r4,-2(0xffe)
  209f54:	02400486 	sltui	$r6,$r4,1(0x1)
  209f58:	00139b04 	masknez	$r4,$r24,$r6
  209f5c:	00131b87 	maskeqz	$r7,$r28,$r6
  209f60:	001510e4 	or	$r4,$r7,$r4
  209f64:	00139ba7 	masknez	$r7,$r29,$r6
  209f68:	001318a5 	maskeqz	$r5,$r5,$r6
  209f6c:	00151ca5 	or	$r5,$r5,$r7
  209f70:	28c0a0a6 	ld.d	$r6,$r5,40(0x28)
  209f74:	02c2a065 	addi.d	$r5,$r3,168(0xa8)
  209f78:	4c0000c1 	jirl	$r1,$r6,0
  209f7c:	04010404 	csrrd	$r4,0x41
  209f80:	03400485 	andi	$r5,$r4,0x1
  209f84:	024004a5 	sltui	$r5,$r5,1(0x1)
  209f88:	29075865 	st.b	$r5,$r3,470(0x1d6)
  209f8c:	00c10485 	bstrpick.d	$r5,$r4,0x1,0x1
  209f90:	29075c65 	st.b	$r5,$r3,471(0x1d7)
  209f94:	29c76064 	st.d	$r4,$r3,472(0x1d8)
  209f98:	28c1a064 	ld.d	$r4,$r3,104(0x68)
  209f9c:	28c00084 	ld.d	$r4,$r4,0
  209fa0:	001292e5 	sltu	$r5,$r23,$r4
  209fa4:	02fff484 	addi.d	$r4,$r4,-3(0xffd)
  209fa8:	00129004 	sltu	$r4,$r0,$r4
  209fac:	00139484 	masknez	$r4,$r4,$r5
  209fb0:	28c18066 	ld.d	$r6,$r3,96(0x60)
  209fb4:	001314c5 	maskeqz	$r5,$r6,$r5
  209fb8:	001510a4 	or	$r4,$r5,$r4
  209fbc:	58000c86 	beq	$r4,$r6,12(0xc) # 209fc8 <loongarch64_trap_handler+0x3168>
  209fc0:	0343fc84 	andi	$r4,$r4,0xff
  209fc4:	4400a880 	bnez	$r4,168(0xa8) # 20a06c <loongarch64_trap_handler+0x320c>
  209fc8:	28c12064 	ld.d	$r4,$r3,72(0x48)
  209fcc:	29c7e064 	st.d	$r4,$r3,504(0x1f8)
  209fd0:	02c75864 	addi.d	$r4,$r3,470(0x1d6)
  209fd4:	29c7c064 	st.d	$r4,$r3,496(0x1f0)
  209fd8:	28c00344 	ld.d	$r4,$r26,0
  209fdc:	38720000 	dbar	0x0
  209fe0:	28c16065 	ld.d	$r5,$r3,88(0x58)
  209fe4:	28c000a5 	ld.d	$r5,$r5,0
  209fe8:	02c7c066 	addi.d	$r6,$r3,496(0x1f0)
  209fec:	29c42066 	st.d	$r6,$r3,264(0x108)
  209ff0:	1a0001e6 	pcalau12i	$r6,15(0xf)
  209ff4:	02e560c6 	addi.d	$r6,$r6,-1704(0x958)
  209ff8:	29c3e066 	st.d	$r6,$r3,248(0xf8)
  209ffc:	29c36077 	st.d	$r23,$r3,216(0xd8)
  20a000:	29c4407b 	st.d	$r27,$r3,272(0x110)
  20a004:	29c4007b 	st.d	$r27,$r3,256(0x100)
  20a008:	00150366 	move	$r6,$r27
  20a00c:	16001886 	lu32i.d	$r6,196(0xc4)
  20a010:	29c3c066 	st.d	$r6,$r3,240(0xf0)
  20a014:	0380a806 	ori	$r6,$r0,0x2a
  20a018:	29c34066 	st.d	$r6,$r3,208(0xd0)
  20a01c:	29c3207f 	st.d	$r31,$r3,200(0xc8)
  20a020:	03807806 	ori	$r6,$r0,0x1e
  20a024:	29c3a066 	st.d	$r6,$r3,232(0xe8)
  20a028:	29c2e066 	st.d	$r6,$r3,184(0xb8)
  20a02c:	29c3807e 	st.d	$r30,$r3,224(0xe0)
  20a030:	29c2c07e 	st.d	$r30,$r3,176(0xb0)
  20a034:	29c46060 	st.d	$r0,$r3,280(0x118)
  20a038:	29c30060 	st.d	$r0,$r3,192(0xc0)
  20a03c:	29c2a060 	st.d	$r0,$r3,168(0xa8)
  20a040:	02fff884 	addi.d	$r4,$r4,-2(0xffe)
  20a044:	02400486 	sltui	$r6,$r4,1(0x1)
  20a048:	00139b04 	masknez	$r4,$r24,$r6
  20a04c:	00131b87 	maskeqz	$r7,$r28,$r6
  20a050:	001510e4 	or	$r4,$r7,$r4
  20a054:	00139ba7 	masknez	$r7,$r29,$r6
  20a058:	001318a5 	maskeqz	$r5,$r5,$r6
  20a05c:	00151ca5 	or	$r5,$r5,$r7
  20a060:	28c0a0a6 	ld.d	$r6,$r5,40(0x28)
  20a064:	02c2a065 	addi.d	$r5,$r3,168(0xa8)
  20a068:	4c0000c1 	jirl	$r1,$r6,0
  20a06c:	28c1a064 	ld.d	$r4,$r3,104(0x68)
  20a070:	28c00084 	ld.d	$r4,$r4,0
  20a074:	001292e5 	sltu	$r5,$r23,$r4
  20a078:	02fff484 	addi.d	$r4,$r4,-3(0xffd)
  20a07c:	00129004 	sltu	$r4,$r0,$r4
  20a080:	00139484 	masknez	$r4,$r4,$r5
  20a084:	28c18066 	ld.d	$r6,$r3,96(0x60)
  20a088:	001314c5 	maskeqz	$r5,$r6,$r5
  20a08c:	001510a4 	or	$r4,$r5,$r4
  20a090:	28c0a076 	ld.d	$r22,$r3,40(0x28)
  20a094:	58000c86 	beq	$r4,$r6,12(0xc) # 20a0a0 <loongarch64_trap_handler+0x3240>
  20a098:	0343fc84 	andi	$r4,$r4,0xff
  20a09c:	4400a880 	bnez	$r4,168(0xa8) # 20a144 <loongarch64_trap_handler+0x32e4>
  20a0a0:	28c12064 	ld.d	$r4,$r3,72(0x48)
  20a0a4:	29c7e064 	st.d	$r4,$r3,504(0x1f8)
  20a0a8:	02c75c64 	addi.d	$r4,$r3,471(0x1d7)
  20a0ac:	29c7c064 	st.d	$r4,$r3,496(0x1f0)
  20a0b0:	28c00344 	ld.d	$r4,$r26,0
  20a0b4:	38720000 	dbar	0x0
  20a0b8:	28c16065 	ld.d	$r5,$r3,88(0x58)
  20a0bc:	28c000a5 	ld.d	$r5,$r5,0
  20a0c0:	02c7c066 	addi.d	$r6,$r3,496(0x1f0)
  20a0c4:	29c42066 	st.d	$r6,$r3,264(0x108)
  20a0c8:	1a0001c6 	pcalau12i	$r6,14(0xe)
  20a0cc:	02e5a0c6 	addi.d	$r6,$r6,-1688(0x968)
  20a0d0:	29c3e066 	st.d	$r6,$r3,248(0xf8)
  20a0d4:	29c36077 	st.d	$r23,$r3,216(0xd8)
  20a0d8:	29c4407b 	st.d	$r27,$r3,272(0x110)
  20a0dc:	29c4007b 	st.d	$r27,$r3,256(0x100)
  20a0e0:	00150366 	move	$r6,$r27
  20a0e4:	160018a6 	lu32i.d	$r6,197(0xc5)
  20a0e8:	29c3c066 	st.d	$r6,$r3,240(0xf0)
  20a0ec:	0380a806 	ori	$r6,$r0,0x2a
  20a0f0:	29c34066 	st.d	$r6,$r3,208(0xd0)
  20a0f4:	29c3207f 	st.d	$r31,$r3,200(0xc8)
  20a0f8:	03807806 	ori	$r6,$r0,0x1e
  20a0fc:	29c3a066 	st.d	$r6,$r3,232(0xe8)
  20a100:	29c2e066 	st.d	$r6,$r3,184(0xb8)
  20a104:	29c3807e 	st.d	$r30,$r3,224(0xe0)
  20a108:	29c2c07e 	st.d	$r30,$r3,176(0xb0)
  20a10c:	29c46060 	st.d	$r0,$r3,280(0x118)
  20a110:	29c30060 	st.d	$r0,$r3,192(0xc0)
  20a114:	29c2a060 	st.d	$r0,$r3,168(0xa8)
  20a118:	02fff884 	addi.d	$r4,$r4,-2(0xffe)
  20a11c:	02400486 	sltui	$r6,$r4,1(0x1)
  20a120:	00139b04 	masknez	$r4,$r24,$r6
  20a124:	00131b87 	maskeqz	$r7,$r28,$r6
  20a128:	001510e4 	or	$r4,$r7,$r4
  20a12c:	00139ba7 	masknez	$r7,$r29,$r6
  20a130:	001318a5 	maskeqz	$r5,$r5,$r6
  20a134:	00151ca5 	or	$r5,$r5,$r7
  20a138:	28c0a0a6 	ld.d	$r6,$r5,40(0x28)
  20a13c:	02c2a065 	addi.d	$r5,$r3,168(0xa8)
  20a140:	4c0000c1 	jirl	$r1,$r6,0
  20a144:	28c1a064 	ld.d	$r4,$r3,104(0x68)
  20a148:	28c00084 	ld.d	$r4,$r4,0
  20a14c:	001292e5 	sltu	$r5,$r23,$r4
  20a150:	02fff484 	addi.d	$r4,$r4,-3(0xffd)
  20a154:	00129004 	sltu	$r4,$r0,$r4
  20a158:	00139484 	masknez	$r4,$r4,$r5
  20a15c:	28c18066 	ld.d	$r6,$r3,96(0x60)
  20a160:	001314c5 	maskeqz	$r5,$r6,$r5
  20a164:	001510a4 	or	$r4,$r5,$r4
  20a168:	58000c86 	beq	$r4,$r6,12(0xc) # 20a174 <loongarch64_trap_handler+0x3314>
  20a16c:	0343fc84 	andi	$r4,$r4,0xff
  20a170:	4400a880 	bnez	$r4,168(0xa8) # 20a218 <loongarch64_trap_handler+0x33b8>
  20a174:	28c0c064 	ld.d	$r4,$r3,48(0x30)
  20a178:	29c7e064 	st.d	$r4,$r3,504(0x1f8)
  20a17c:	02c76064 	addi.d	$r4,$r3,472(0x1d8)
  20a180:	29c7c064 	st.d	$r4,$r3,496(0x1f0)
  20a184:	28c00344 	ld.d	$r4,$r26,0
  20a188:	38720000 	dbar	0x0
  20a18c:	28c16065 	ld.d	$r5,$r3,88(0x58)
  20a190:	28c000a5 	ld.d	$r5,$r5,0
  20a194:	02c7c066 	addi.d	$r6,$r3,496(0x1f0)
  20a198:	29c42066 	st.d	$r6,$r3,264(0x108)
  20a19c:	1a0001c6 	pcalau12i	$r6,14(0xe)
  20a1a0:	02e5e0c6 	addi.d	$r6,$r6,-1672(0x978)
  20a1a4:	29c3e066 	st.d	$r6,$r3,248(0xf8)
  20a1a8:	29c36077 	st.d	$r23,$r3,216(0xd8)
  20a1ac:	29c4407b 	st.d	$r27,$r3,272(0x110)
  20a1b0:	29c4007b 	st.d	$r27,$r3,256(0x100)
  20a1b4:	00150366 	move	$r6,$r27
  20a1b8:	160018c6 	lu32i.d	$r6,198(0xc6)
  20a1bc:	29c3c066 	st.d	$r6,$r3,240(0xf0)
  20a1c0:	0380a806 	ori	$r6,$r0,0x2a
  20a1c4:	29c34066 	st.d	$r6,$r3,208(0xd0)
  20a1c8:	29c3207f 	st.d	$r31,$r3,200(0xc8)
  20a1cc:	03807806 	ori	$r6,$r0,0x1e
  20a1d0:	29c3a066 	st.d	$r6,$r3,232(0xe8)
  20a1d4:	29c2e066 	st.d	$r6,$r3,184(0xb8)
  20a1d8:	29c3807e 	st.d	$r30,$r3,224(0xe0)
  20a1dc:	29c2c07e 	st.d	$r30,$r3,176(0xb0)
  20a1e0:	29c46060 	st.d	$r0,$r3,280(0x118)
  20a1e4:	29c30060 	st.d	$r0,$r3,192(0xc0)
  20a1e8:	29c2a060 	st.d	$r0,$r3,168(0xa8)
  20a1ec:	02fff884 	addi.d	$r4,$r4,-2(0xffe)
  20a1f0:	02400486 	sltui	$r6,$r4,1(0x1)
  20a1f4:	00139b04 	masknez	$r4,$r24,$r6
  20a1f8:	00131b87 	maskeqz	$r7,$r28,$r6
  20a1fc:	001510e4 	or	$r4,$r7,$r4
  20a200:	00139ba7 	masknez	$r7,$r29,$r6
  20a204:	001318a5 	maskeqz	$r5,$r5,$r6
  20a208:	00151ca5 	or	$r5,$r5,$r7
  20a20c:	28c0a0a6 	ld.d	$r6,$r5,40(0x28)
  20a210:	02c2a065 	addi.d	$r5,$r3,168(0xa8)
  20a214:	4c0000c1 	jirl	$r1,$r6,0
  20a218:	00c30ec4 	bstrpick.d	$r4,$r22,0x3,0x3
  20a21c:	29079864 	st.b	$r4,$r3,486(0x1e6)
  20a220:	28c1a064 	ld.d	$r4,$r3,104(0x68)
  20a224:	28c00084 	ld.d	$r4,$r4,0
  20a228:	001292e5 	sltu	$r5,$r23,$r4
  20a22c:	02fff484 	addi.d	$r4,$r4,-3(0xffd)
  20a230:	00129004 	sltu	$r4,$r0,$r4
  20a234:	00139484 	masknez	$r4,$r4,$r5
  20a238:	28c18066 	ld.d	$r6,$r3,96(0x60)
  20a23c:	001314c5 	maskeqz	$r5,$r6,$r5
  20a240:	001510a4 	or	$r4,$r5,$r4
  20a244:	58000c86 	beq	$r4,$r6,12(0xc) # 20a250 <loongarch64_trap_handler+0x33f0>
  20a248:	0343fc84 	andi	$r4,$r4,0xff
  20a24c:	4400a880 	bnez	$r4,168(0xa8) # 20a2f4 <loongarch64_trap_handler+0x3494>
  20a250:	28c12064 	ld.d	$r4,$r3,72(0x48)
  20a254:	29c7e064 	st.d	$r4,$r3,504(0x1f8)
  20a258:	02c79864 	addi.d	$r4,$r3,486(0x1e6)
  20a25c:	29c7c064 	st.d	$r4,$r3,496(0x1f0)
  20a260:	28c00344 	ld.d	$r4,$r26,0
  20a264:	38720000 	dbar	0x0
  20a268:	28c16065 	ld.d	$r5,$r3,88(0x58)
  20a26c:	28c000a5 	ld.d	$r5,$r5,0
  20a270:	02c7c066 	addi.d	$r6,$r3,496(0x1f0)
  20a274:	29c42066 	st.d	$r6,$r3,264(0x108)
  20a278:	1a0001c6 	pcalau12i	$r6,14(0xe)
  20a27c:	02e620c6 	addi.d	$r6,$r6,-1656(0x988)
  20a280:	29c3e066 	st.d	$r6,$r3,248(0xf8)
  20a284:	29c36077 	st.d	$r23,$r3,216(0xd8)
  20a288:	29c4407b 	st.d	$r27,$r3,272(0x110)
  20a28c:	29c4007b 	st.d	$r27,$r3,256(0x100)
  20a290:	00150366 	move	$r6,$r27
  20a294:	16001926 	lu32i.d	$r6,201(0xc9)
  20a298:	29c3c066 	st.d	$r6,$r3,240(0xf0)
  20a29c:	0380a806 	ori	$r6,$r0,0x2a
  20a2a0:	29c34066 	st.d	$r6,$r3,208(0xd0)
  20a2a4:	29c3207f 	st.d	$r31,$r3,200(0xc8)
  20a2a8:	03807806 	ori	$r6,$r0,0x1e
  20a2ac:	29c3a066 	st.d	$r6,$r3,232(0xe8)
  20a2b0:	29c2e066 	st.d	$r6,$r3,184(0xb8)
  20a2b4:	29c3807e 	st.d	$r30,$r3,224(0xe0)
  20a2b8:	29c2c07e 	st.d	$r30,$r3,176(0xb0)
  20a2bc:	29c46060 	st.d	$r0,$r3,280(0x118)
  20a2c0:	29c30060 	st.d	$r0,$r3,192(0xc0)
  20a2c4:	29c2a060 	st.d	$r0,$r3,168(0xa8)
  20a2c8:	02fff884 	addi.d	$r4,$r4,-2(0xffe)
  20a2cc:	02400486 	sltui	$r6,$r4,1(0x1)
  20a2d0:	00139b04 	masknez	$r4,$r24,$r6
  20a2d4:	00131b87 	maskeqz	$r7,$r28,$r6
  20a2d8:	001510e4 	or	$r4,$r7,$r4
  20a2dc:	00139ba7 	masknez	$r7,$r29,$r6
  20a2e0:	001318a5 	maskeqz	$r5,$r5,$r6
  20a2e4:	00151ca5 	or	$r5,$r5,$r7
  20a2e8:	28c0a0a6 	ld.d	$r6,$r5,40(0x28)
  20a2ec:	02c2a065 	addi.d	$r5,$r3,168(0xa8)
  20a2f0:	4c0000c1 	jirl	$r1,$r6,0
  20a2f4:	00c412c4 	bstrpick.d	$r4,$r22,0x4,0x4
  20a2f8:	29079c64 	st.b	$r4,$r3,487(0x1e7)
  20a2fc:	28c1a064 	ld.d	$r4,$r3,104(0x68)
  20a300:	28c00084 	ld.d	$r4,$r4,0
  20a304:	001292e5 	sltu	$r5,$r23,$r4
  20a308:	02fff484 	addi.d	$r4,$r4,-3(0xffd)
  20a30c:	00129004 	sltu	$r4,$r0,$r4
  20a310:	00139484 	masknez	$r4,$r4,$r5
  20a314:	28c18066 	ld.d	$r6,$r3,96(0x60)
  20a318:	001314c5 	maskeqz	$r5,$r6,$r5
  20a31c:	001510a4 	or	$r4,$r5,$r4
  20a320:	58000c86 	beq	$r4,$r6,12(0xc) # 20a32c <loongarch64_trap_handler+0x34cc>
  20a324:	0343fc84 	andi	$r4,$r4,0xff
  20a328:	4400a880 	bnez	$r4,168(0xa8) # 20a3d0 <loongarch64_trap_handler+0x3570>
  20a32c:	28c12064 	ld.d	$r4,$r3,72(0x48)
  20a330:	29c7e064 	st.d	$r4,$r3,504(0x1f8)
  20a334:	02c79c64 	addi.d	$r4,$r3,487(0x1e7)
  20a338:	29c7c064 	st.d	$r4,$r3,496(0x1f0)
  20a33c:	28c00344 	ld.d	$r4,$r26,0
  20a340:	38720000 	dbar	0x0
  20a344:	28c16065 	ld.d	$r5,$r3,88(0x58)
  20a348:	28c000a5 	ld.d	$r5,$r5,0
  20a34c:	02c7c066 	addi.d	$r6,$r3,496(0x1f0)
  20a350:	29c42066 	st.d	$r6,$r3,264(0x108)
  20a354:	1a0001c6 	pcalau12i	$r6,14(0xe)
  20a358:	02e660c6 	addi.d	$r6,$r6,-1640(0x998)
  20a35c:	29c3e066 	st.d	$r6,$r3,248(0xf8)
  20a360:	29c36077 	st.d	$r23,$r3,216(0xd8)
  20a364:	29c4407b 	st.d	$r27,$r3,272(0x110)
  20a368:	29c4007b 	st.d	$r27,$r3,256(0x100)
  20a36c:	00150366 	move	$r6,$r27
  20a370:	16001966 	lu32i.d	$r6,203(0xcb)
  20a374:	29c3c066 	st.d	$r6,$r3,240(0xf0)
  20a378:	0380a806 	ori	$r6,$r0,0x2a
  20a37c:	29c34066 	st.d	$r6,$r3,208(0xd0)
  20a380:	29c3207f 	st.d	$r31,$r3,200(0xc8)
  20a384:	03807806 	ori	$r6,$r0,0x1e
  20a388:	29c3a066 	st.d	$r6,$r3,232(0xe8)
  20a38c:	29c2e066 	st.d	$r6,$r3,184(0xb8)
  20a390:	29c3807e 	st.d	$r30,$r3,224(0xe0)
  20a394:	29c2c07e 	st.d	$r30,$r3,176(0xb0)
  20a398:	29c46060 	st.d	$r0,$r3,280(0x118)
  20a39c:	29c30060 	st.d	$r0,$r3,192(0xc0)
  20a3a0:	29c2a060 	st.d	$r0,$r3,168(0xa8)
  20a3a4:	02fff884 	addi.d	$r4,$r4,-2(0xffe)
  20a3a8:	02400486 	sltui	$r6,$r4,1(0x1)
  20a3ac:	00139b04 	masknez	$r4,$r24,$r6
  20a3b0:	00131b87 	maskeqz	$r7,$r28,$r6
  20a3b4:	001510e4 	or	$r4,$r7,$r4
  20a3b8:	00139ba7 	masknez	$r7,$r29,$r6
  20a3bc:	001318a5 	maskeqz	$r5,$r5,$r6
  20a3c0:	00151ca5 	or	$r5,$r5,$r7
  20a3c4:	28c0a0a6 	ld.d	$r6,$r5,40(0x28)
  20a3c8:	02c2a065 	addi.d	$r5,$r3,168(0xa8)
  20a3cc:	4c0000c1 	jirl	$r1,$r6,0
  20a3d0:	28c1a064 	ld.d	$r4,$r3,104(0x68)
  20a3d4:	28c00084 	ld.d	$r4,$r4,0
  20a3d8:	001292e5 	sltu	$r5,$r23,$r4
  20a3dc:	02fff484 	addi.d	$r4,$r4,-3(0xffd)
  20a3e0:	00129004 	sltu	$r4,$r0,$r4
  20a3e4:	00139484 	masknez	$r4,$r4,$r5
  20a3e8:	28c18066 	ld.d	$r6,$r3,96(0x60)
  20a3ec:	001314c5 	maskeqz	$r5,$r6,$r5
  20a3f0:	001510a4 	or	$r4,$r5,$r4
  20a3f4:	02c7a065 	addi.d	$r5,$r3,488(0x1e8)
  20a3f8:	29c0a065 	st.d	$r5,$r3,40(0x28)
  20a3fc:	58000c86 	beq	$r4,$r6,12(0xc) # 20a408 <loongarch64_trap_handler+0x35a8>
  20a400:	0343fc84 	andi	$r4,$r4,0xff
  20a404:	4400dc80 	bnez	$r4,220(0xdc) # 20a4e0 <loongarch64_trap_handler+0x3680>
  20a408:	04060004 	csrrd	$r4,0x180
  20a40c:	29c7a064 	st.d	$r4,$r3,488(0x1e8)
  20a410:	1a0000a4 	pcalau12i	$r4,5(0x5)
  20a414:	02c32084 	addi.d	$r4,$r4,200(0xc8)
  20a418:	29c20064 	st.d	$r4,$r3,128(0x80)
  20a41c:	28c0a064 	ld.d	$r4,$r3,40(0x28)
  20a420:	29c1e064 	st.d	$r4,$r3,120(0x78)
  20a424:	03808004 	ori	$r4,$r0,0x20
  20a428:	16000084 	lu32i.d	$r4,4(0x4)
  20a42c:	29c86064 	st.d	$r4,$r3,536(0x218)
  20a430:	28c14064 	ld.d	$r4,$r3,80(0x50)
  20a434:	29c80064 	st.d	$r4,$r3,512(0x200)
  20a438:	29c7c064 	st.d	$r4,$r3,496(0x1f0)
  20a43c:	29088077 	st.b	$r23,$r3,544(0x220)
  20a440:	29c84060 	st.d	$r0,$r3,528(0x210)
  20a444:	28c00344 	ld.d	$r4,$r26,0
  20a448:	38720000 	dbar	0x0
  20a44c:	28c16065 	ld.d	$r5,$r3,88(0x58)
  20a450:	28c000a5 	ld.d	$r5,$r5,0
  20a454:	02c7c066 	addi.d	$r6,$r3,496(0x1f0)
  20a458:	29c46066 	st.d	$r6,$r3,280(0x118)
  20a45c:	02c1e066 	addi.d	$r6,$r3,120(0x78)
  20a460:	29c42066 	st.d	$r6,$r3,264(0x108)
  20a464:	1a0001c6 	pcalau12i	$r6,14(0xe)
  20a468:	02e6a0c6 	addi.d	$r6,$r6,-1624(0x9a8)
  20a46c:	29c3e066 	st.d	$r6,$r3,248(0xf8)
  20a470:	29c36077 	st.d	$r23,$r3,216(0xd8)
  20a474:	29c4807b 	st.d	$r27,$r3,288(0x120)
  20a478:	29c4407b 	st.d	$r27,$r3,272(0x110)
  20a47c:	29c4007b 	st.d	$r27,$r3,256(0x100)
  20a480:	00150366 	move	$r6,$r27
  20a484:	16001986 	lu32i.d	$r6,204(0xcc)
  20a488:	29c3c066 	st.d	$r6,$r3,240(0xf0)
  20a48c:	0380a806 	ori	$r6,$r0,0x2a
  20a490:	29c34066 	st.d	$r6,$r3,208(0xd0)
  20a494:	29c3207f 	st.d	$r31,$r3,200(0xc8)
  20a498:	03807806 	ori	$r6,$r0,0x1e
  20a49c:	29c3a066 	st.d	$r6,$r3,232(0xe8)
  20a4a0:	29c2e066 	st.d	$r6,$r3,184(0xb8)
  20a4a4:	29c3807e 	st.d	$r30,$r3,224(0xe0)
  20a4a8:	29c2c07e 	st.d	$r30,$r3,176(0xb0)
  20a4ac:	29c30060 	st.d	$r0,$r3,192(0xc0)
  20a4b0:	29c2a060 	st.d	$r0,$r3,168(0xa8)
  20a4b4:	02fff884 	addi.d	$r4,$r4,-2(0xffe)
  20a4b8:	02400486 	sltui	$r6,$r4,1(0x1)
  20a4bc:	00139b04 	masknez	$r4,$r24,$r6
  20a4c0:	00131b87 	maskeqz	$r7,$r28,$r6
  20a4c4:	001510e4 	or	$r4,$r7,$r4
  20a4c8:	00139ba7 	masknez	$r7,$r29,$r6
  20a4cc:	001318a5 	maskeqz	$r5,$r5,$r6
  20a4d0:	00151ca5 	or	$r5,$r5,$r7
  20a4d4:	28c0a0a6 	ld.d	$r6,$r5,40(0x28)
  20a4d8:	02c2a065 	addi.d	$r5,$r3,168(0xa8)
  20a4dc:	4c0000c1 	jirl	$r1,$r6,0
  20a4e0:	28c1a064 	ld.d	$r4,$r3,104(0x68)
  20a4e4:	28c00084 	ld.d	$r4,$r4,0
  20a4e8:	001292e5 	sltu	$r5,$r23,$r4
  20a4ec:	02fff484 	addi.d	$r4,$r4,-3(0xffd)
  20a4f0:	00129004 	sltu	$r4,$r0,$r4
  20a4f4:	00139484 	masknez	$r4,$r4,$r5
  20a4f8:	28c18066 	ld.d	$r6,$r3,96(0x60)
  20a4fc:	001314c5 	maskeqz	$r5,$r6,$r5
  20a500:	001510a4 	or	$r4,$r5,$r4
  20a504:	58000c86 	beq	$r4,$r6,12(0xc) # 20a510 <loongarch64_trap_handler+0x36b0>
  20a508:	0343fc84 	andi	$r4,$r4,0xff
  20a50c:	4400dc80 	bnez	$r4,220(0xdc) # 20a5e8 <loongarch64_trap_handler+0x3788>
  20a510:	04060404 	csrrd	$r4,0x181
  20a514:	29c7a064 	st.d	$r4,$r3,488(0x1e8)
  20a518:	1a0000a4 	pcalau12i	$r4,5(0x5)
  20a51c:	02c32084 	addi.d	$r4,$r4,200(0xc8)
  20a520:	29c20064 	st.d	$r4,$r3,128(0x80)
  20a524:	28c0a064 	ld.d	$r4,$r3,40(0x28)
  20a528:	29c1e064 	st.d	$r4,$r3,120(0x78)
  20a52c:	03808004 	ori	$r4,$r0,0x20
  20a530:	16000084 	lu32i.d	$r4,4(0x4)
  20a534:	29c86064 	st.d	$r4,$r3,536(0x218)
  20a538:	28c14064 	ld.d	$r4,$r3,80(0x50)
  20a53c:	29c80064 	st.d	$r4,$r3,512(0x200)
  20a540:	29c7c064 	st.d	$r4,$r3,496(0x1f0)
  20a544:	29088077 	st.b	$r23,$r3,544(0x220)
  20a548:	29c84060 	st.d	$r0,$r3,528(0x210)
  20a54c:	28c00344 	ld.d	$r4,$r26,0
  20a550:	38720000 	dbar	0x0
  20a554:	28c16065 	ld.d	$r5,$r3,88(0x58)
  20a558:	28c000a5 	ld.d	$r5,$r5,0
  20a55c:	02c7c066 	addi.d	$r6,$r3,496(0x1f0)
  20a560:	29c46066 	st.d	$r6,$r3,280(0x118)
  20a564:	02c1e066 	addi.d	$r6,$r3,120(0x78)
  20a568:	29c42066 	st.d	$r6,$r3,264(0x108)
  20a56c:	1a0001c6 	pcalau12i	$r6,14(0xe)
  20a570:	02e6e0c6 	addi.d	$r6,$r6,-1608(0x9b8)
  20a574:	29c3e066 	st.d	$r6,$r3,248(0xf8)
  20a578:	29c36077 	st.d	$r23,$r3,216(0xd8)
  20a57c:	29c4807b 	st.d	$r27,$r3,288(0x120)
  20a580:	29c4407b 	st.d	$r27,$r3,272(0x110)
  20a584:	29c4007b 	st.d	$r27,$r3,256(0x100)
  20a588:	00150366 	move	$r6,$r27
  20a58c:	160019a6 	lu32i.d	$r6,205(0xcd)
  20a590:	29c3c066 	st.d	$r6,$r3,240(0xf0)
  20a594:	0380a806 	ori	$r6,$r0,0x2a
  20a598:	29c34066 	st.d	$r6,$r3,208(0xd0)
  20a59c:	29c3207f 	st.d	$r31,$r3,200(0xc8)
  20a5a0:	03807806 	ori	$r6,$r0,0x1e
  20a5a4:	29c3a066 	st.d	$r6,$r3,232(0xe8)
  20a5a8:	29c2e066 	st.d	$r6,$r3,184(0xb8)
  20a5ac:	29c3807e 	st.d	$r30,$r3,224(0xe0)
  20a5b0:	29c2c07e 	st.d	$r30,$r3,176(0xb0)
  20a5b4:	29c30060 	st.d	$r0,$r3,192(0xc0)
  20a5b8:	29c2a060 	st.d	$r0,$r3,168(0xa8)
  20a5bc:	02fff884 	addi.d	$r4,$r4,-2(0xffe)
  20a5c0:	02400486 	sltui	$r6,$r4,1(0x1)
  20a5c4:	00139b04 	masknez	$r4,$r24,$r6
  20a5c8:	00131b87 	maskeqz	$r7,$r28,$r6
  20a5cc:	001510e4 	or	$r4,$r7,$r4
  20a5d0:	00139ba7 	masknez	$r7,$r29,$r6
  20a5d4:	001318a5 	maskeqz	$r5,$r5,$r6
  20a5d8:	00151ca5 	or	$r5,$r5,$r7
  20a5dc:	28c0a0a6 	ld.d	$r6,$r5,40(0x28)
  20a5e0:	02c2a065 	addi.d	$r5,$r3,168(0xa8)
  20a5e4:	4c0000c1 	jirl	$r1,$r6,0
  20a5e8:	28c1a064 	ld.d	$r4,$r3,104(0x68)
  20a5ec:	28c00084 	ld.d	$r4,$r4,0
  20a5f0:	001292e5 	sltu	$r5,$r23,$r4
  20a5f4:	02fff484 	addi.d	$r4,$r4,-3(0xffd)
  20a5f8:	00129004 	sltu	$r4,$r0,$r4
  20a5fc:	00139484 	masknez	$r4,$r4,$r5
  20a600:	28c18066 	ld.d	$r6,$r3,96(0x60)
  20a604:	001314c5 	maskeqz	$r5,$r6,$r5
  20a608:	001510a4 	or	$r4,$r5,$r4
  20a60c:	58000c86 	beq	$r4,$r6,12(0xc) # 20a618 <loongarch64_trap_handler+0x37b8>
  20a610:	0343fc84 	andi	$r4,$r4,0xff
  20a614:	4400dc80 	bnez	$r4,220(0xdc) # 20a6f0 <loongarch64_trap_handler+0x3890>
  20a618:	04022004 	csrrd	$r4,0x88
  20a61c:	29c7a064 	st.d	$r4,$r3,488(0x1e8)
  20a620:	1a0000a4 	pcalau12i	$r4,5(0x5)
  20a624:	02c32084 	addi.d	$r4,$r4,200(0xc8)
  20a628:	29c20064 	st.d	$r4,$r3,128(0x80)
  20a62c:	28c0a064 	ld.d	$r4,$r3,40(0x28)
  20a630:	29c1e064 	st.d	$r4,$r3,120(0x78)
  20a634:	03808004 	ori	$r4,$r0,0x20
  20a638:	16000084 	lu32i.d	$r4,4(0x4)
  20a63c:	29c86064 	st.d	$r4,$r3,536(0x218)
  20a640:	28c14064 	ld.d	$r4,$r3,80(0x50)
  20a644:	29c80064 	st.d	$r4,$r3,512(0x200)
  20a648:	29c7c064 	st.d	$r4,$r3,496(0x1f0)
  20a64c:	29088077 	st.b	$r23,$r3,544(0x220)
  20a650:	29c84060 	st.d	$r0,$r3,528(0x210)
  20a654:	28c00344 	ld.d	$r4,$r26,0
  20a658:	38720000 	dbar	0x0
  20a65c:	28c16065 	ld.d	$r5,$r3,88(0x58)
  20a660:	28c000a5 	ld.d	$r5,$r5,0
  20a664:	02c7c066 	addi.d	$r6,$r3,496(0x1f0)
  20a668:	29c46066 	st.d	$r6,$r3,280(0x118)
  20a66c:	02c1e066 	addi.d	$r6,$r3,120(0x78)
  20a670:	29c42066 	st.d	$r6,$r3,264(0x108)
  20a674:	1a0001c6 	pcalau12i	$r6,14(0xe)
  20a678:	02e720c6 	addi.d	$r6,$r6,-1592(0x9c8)
  20a67c:	29c3e066 	st.d	$r6,$r3,248(0xf8)
  20a680:	29c36077 	st.d	$r23,$r3,216(0xd8)
  20a684:	29c4807b 	st.d	$r27,$r3,288(0x120)
  20a688:	29c4407b 	st.d	$r27,$r3,272(0x110)
  20a68c:	29c4007b 	st.d	$r27,$r3,256(0x100)
  20a690:	00150366 	move	$r6,$r27
  20a694:	160019c6 	lu32i.d	$r6,206(0xce)
  20a698:	29c3c066 	st.d	$r6,$r3,240(0xf0)
  20a69c:	0380a806 	ori	$r6,$r0,0x2a
  20a6a0:	29c34066 	st.d	$r6,$r3,208(0xd0)
  20a6a4:	29c3207f 	st.d	$r31,$r3,200(0xc8)
  20a6a8:	03807806 	ori	$r6,$r0,0x1e
  20a6ac:	29c3a066 	st.d	$r6,$r3,232(0xe8)
  20a6b0:	29c2e066 	st.d	$r6,$r3,184(0xb8)
  20a6b4:	29c3807e 	st.d	$r30,$r3,224(0xe0)
  20a6b8:	29c2c07e 	st.d	$r30,$r3,176(0xb0)
  20a6bc:	29c30060 	st.d	$r0,$r3,192(0xc0)
  20a6c0:	29c2a060 	st.d	$r0,$r3,168(0xa8)
  20a6c4:	02fff884 	addi.d	$r4,$r4,-2(0xffe)
  20a6c8:	02400486 	sltui	$r6,$r4,1(0x1)
  20a6cc:	00139b04 	masknez	$r4,$r24,$r6
  20a6d0:	00131b87 	maskeqz	$r7,$r28,$r6
  20a6d4:	001510e4 	or	$r4,$r7,$r4
  20a6d8:	00139ba7 	masknez	$r7,$r29,$r6
  20a6dc:	001318a5 	maskeqz	$r5,$r5,$r6
  20a6e0:	00151ca5 	or	$r5,$r5,$r7
  20a6e4:	28c0a0a6 	ld.d	$r6,$r5,40(0x28)
  20a6e8:	02c2a065 	addi.d	$r5,$r3,168(0xa8)
  20a6ec:	4c0000c1 	jirl	$r1,$r6,0
  20a6f0:	29c0007f 	st.d	$r31,$r3,0
  20a6f4:	001503da 	move	$r26,$r30
  20a6f8:	001503b9 	move	$r25,$r29
  20a6fc:	0015039d 	move	$r29,$r28
  20a700:	0015031e 	move	$r30,$r24
  20a704:	001502f6 	move	$r22,$r23
  20a708:	02c1e064 	addi.d	$r4,$r3,120(0x78)
  20a70c:	29c04064 	st.d	$r4,$r3,16(0x10)
  20a710:	02c7c064 	addi.d	$r4,$r3,496(0x1f0)
  20a714:	29c02064 	st.d	$r4,$r3,8(0x8)
  20a718:	1a0001c4 	pcalau12i	$r4,14(0xe)
  20a71c:	02e7609c 	addi.d	$r28,$r4,-1576(0x9d8)
  20a720:	0380a804 	ori	$r4,$r0,0x2a
  20a724:	29c06064 	st.d	$r4,$r3,24(0x18)
  20a728:	03807804 	ori	$r4,$r0,0x1e
  20a72c:	29c08064 	st.d	$r4,$r3,32(0x20)
  20a730:	02c2a07f 	addi.d	$r31,$r3,168(0xa8)
  20a734:	03803418 	ori	$r24,$r0,0xd
  20a738:	00150017 	move	$r23,$r0
  20a73c:	5000c400 	b	196(0xc4) # 20a800 <loongarch64_trap_handler+0x39a0>
  20a740:	28c12064 	ld.d	$r4,$r3,72(0x48)
  20a744:	29c82064 	st.d	$r4,$r3,520(0x208)
  20a748:	28c0a064 	ld.d	$r4,$r3,40(0x28)
  20a74c:	29c80064 	st.d	$r4,$r3,512(0x200)
  20a750:	28c0c064 	ld.d	$r4,$r3,48(0x30)
  20a754:	29c7e064 	st.d	$r4,$r3,504(0x1f8)
  20a758:	28c04064 	ld.d	$r4,$r3,16(0x10)
  20a75c:	29c7c064 	st.d	$r4,$r3,496(0x1f0)
  20a760:	28c0e064 	ld.d	$r4,$r3,56(0x38)
  20a764:	28c00084 	ld.d	$r4,$r4,0
  20a768:	38720000 	dbar	0x0
  20a76c:	28c16065 	ld.d	$r5,$r3,88(0x58)
  20a770:	28c000a5 	ld.d	$r5,$r5,0
  20a774:	28c02066 	ld.d	$r6,$r3,8(0x8)
  20a778:	29c42066 	st.d	$r6,$r3,264(0x108)
  20a77c:	28c14066 	ld.d	$r6,$r3,80(0x50)
  20a780:	29c44066 	st.d	$r6,$r3,272(0x110)
  20a784:	29c40066 	st.d	$r6,$r3,256(0x100)
  20a788:	29c3e07c 	st.d	$r28,$r3,248(0xf8)
  20a78c:	29c36076 	st.d	$r22,$r3,216(0xd8)
  20a790:	00150366 	move	$r6,$r27
  20a794:	16001a46 	lu32i.d	$r6,210(0xd2)
  20a798:	29c3c066 	st.d	$r6,$r3,240(0xf0)
  20a79c:	28c06066 	ld.d	$r6,$r3,24(0x18)
  20a7a0:	29c34066 	st.d	$r6,$r3,208(0xd0)
  20a7a4:	28c00066 	ld.d	$r6,$r3,0
  20a7a8:	29c32066 	st.d	$r6,$r3,200(0xc8)
  20a7ac:	28c08066 	ld.d	$r6,$r3,32(0x20)
  20a7b0:	29c3a066 	st.d	$r6,$r3,232(0xe8)
  20a7b4:	29c2e066 	st.d	$r6,$r3,184(0xb8)
  20a7b8:	29c3807a 	st.d	$r26,$r3,224(0xe0)
  20a7bc:	29c2c07a 	st.d	$r26,$r3,176(0xb0)
  20a7c0:	29c46060 	st.d	$r0,$r3,280(0x118)
  20a7c4:	29c30060 	st.d	$r0,$r3,192(0xc0)
  20a7c8:	29c2a060 	st.d	$r0,$r3,168(0xa8)
  20a7cc:	02fff884 	addi.d	$r4,$r4,-2(0xffe)
  20a7d0:	02400486 	sltui	$r6,$r4,1(0x1)
  20a7d4:	00139bc4 	masknez	$r4,$r30,$r6
  20a7d8:	00131ba7 	maskeqz	$r7,$r29,$r6
  20a7dc:	001510e4 	or	$r4,$r7,$r4
  20a7e0:	00139b27 	masknez	$r7,$r25,$r6
  20a7e4:	001318a5 	maskeqz	$r5,$r5,$r6
  20a7e8:	00151ca5 	or	$r5,$r5,$r7
  20a7ec:	28c0a0a6 	ld.d	$r6,$r5,40(0x28)
  20a7f0:	001503e5 	move	$r5,$r31
  20a7f4:	4c0000c1 	jirl	$r1,$r6,0
  20a7f8:	02c006f7 	addi.d	$r23,$r23,1(0x1)
  20a7fc:	58004ef8 	beq	$r23,$r24,76(0x4c) # 20a848 <loongarch64_trap_handler+0x39e8>
  20a800:	29c1e077 	st.d	$r23,$r3,120(0x78)
  20a804:	28c10064 	ld.d	$r4,$r3,64(0x40)
  20a808:	00195c84 	srl.d	$r4,$r4,$r23
  20a80c:	03400484 	andi	$r4,$r4,0x1
  20a810:	2907a064 	st.b	$r4,$r3,488(0x1e8)
  20a814:	28c1a064 	ld.d	$r4,$r3,104(0x68)
  20a818:	28c00084 	ld.d	$r4,$r4,0
  20a81c:	001292c5 	sltu	$r5,$r22,$r4
  20a820:	02fff484 	addi.d	$r4,$r4,-3(0xffd)
  20a824:	00129004 	sltu	$r4,$r0,$r4
  20a828:	00139484 	masknez	$r4,$r4,$r5
  20a82c:	28c18066 	ld.d	$r6,$r3,96(0x60)
  20a830:	001314c5 	maskeqz	$r5,$r6,$r5
  20a834:	001510a4 	or	$r4,$r5,$r4
  20a838:	5bff0886 	beq	$r4,$r6,-248(0x3ff08) # 20a740 <loongarch64_trap_handler+0x38e0>
  20a83c:	0343fc84 	andi	$r4,$r4,0xff
  20a840:	43ff009f 	beqz	$r4,-256(0x7fff00) # 20a740 <loongarch64_trap_handler+0x38e0>
  20a844:	53ffb7ff 	b	-76(0xfffffb4) # 20a7f8 <loongarch64_trap_handler+0x3998>
  20a848:	28c1a064 	ld.d	$r4,$r3,104(0x68)
  20a84c:	28c00084 	ld.d	$r4,$r4,0
  20a850:	001292c5 	sltu	$r5,$r22,$r4
  20a854:	02fff484 	addi.d	$r4,$r4,-3(0xffd)
  20a858:	00129004 	sltu	$r4,$r0,$r4
  20a85c:	00139484 	masknez	$r4,$r4,$r5
  20a860:	28c18066 	ld.d	$r6,$r3,96(0x60)
  20a864:	001314c5 	maskeqz	$r5,$r6,$r5
  20a868:	001510a4 	or	$r4,$r5,$r4
  20a86c:	0015033c 	move	$r28,$r25
  20a870:	00150359 	move	$r25,$r26
  20a874:	28c0007a 	ld.d	$r26,$r3,0
  20a878:	58000c86 	beq	$r4,$r6,12(0xc) # 20a884 <loongarch64_trap_handler+0x3a24>
  20a87c:	0343fc84 	andi	$r4,$r4,0xff
  20a880:	4400b880 	bnez	$r4,184(0xb8) # 20a938 <loongarch64_trap_handler+0x3ad8>
  20a884:	04000004 	csrrd	$r4,0x0
  20a888:	28c12065 	ld.d	$r5,$r3,72(0x48)
  20a88c:	29c7e065 	st.d	$r5,$r3,504(0x1f8)
  20a890:	28c04065 	ld.d	$r5,$r3,16(0x10)
  20a894:	29c7c065 	st.d	$r5,$r3,496(0x1f0)
  20a898:	00c30c84 	bstrpick.d	$r4,$r4,0x3,0x3
  20a89c:	2901e064 	st.b	$r4,$r3,120(0x78)
  20a8a0:	28c0e064 	ld.d	$r4,$r3,56(0x38)
  20a8a4:	28c00084 	ld.d	$r4,$r4,0
  20a8a8:	38720000 	dbar	0x0
  20a8ac:	28c16065 	ld.d	$r5,$r3,88(0x58)
  20a8b0:	28c000a5 	ld.d	$r5,$r5,0
  20a8b4:	28c02066 	ld.d	$r6,$r3,8(0x8)
  20a8b8:	29c42066 	st.d	$r6,$r3,264(0x108)
  20a8bc:	1a0001c6 	pcalau12i	$r6,14(0xe)
  20a8c0:	02e120c6 	addi.d	$r6,$r6,-1976(0x848)
  20a8c4:	29c3e066 	st.d	$r6,$r3,248(0xf8)
  20a8c8:	29c36076 	st.d	$r22,$r3,216(0xd8)
  20a8cc:	29c4407b 	st.d	$r27,$r3,272(0x110)
  20a8d0:	29c4007b 	st.d	$r27,$r3,256(0x100)
  20a8d4:	00150366 	move	$r6,$r27
  20a8d8:	16000d06 	lu32i.d	$r6,104(0x68)
  20a8dc:	29c3c066 	st.d	$r6,$r3,240(0xf0)
  20a8e0:	28c06066 	ld.d	$r6,$r3,24(0x18)
  20a8e4:	29c34066 	st.d	$r6,$r3,208(0xd0)
  20a8e8:	29c3207a 	st.d	$r26,$r3,200(0xc8)
  20a8ec:	28c08066 	ld.d	$r6,$r3,32(0x20)
  20a8f0:	29c3a066 	st.d	$r6,$r3,232(0xe8)
  20a8f4:	29c2e066 	st.d	$r6,$r3,184(0xb8)
  20a8f8:	29c38079 	st.d	$r25,$r3,224(0xe0)
  20a8fc:	29c2c079 	st.d	$r25,$r3,176(0xb0)
  20a900:	29c46060 	st.d	$r0,$r3,280(0x118)
  20a904:	29c30060 	st.d	$r0,$r3,192(0xc0)
  20a908:	29c2a060 	st.d	$r0,$r3,168(0xa8)
  20a90c:	02fff884 	addi.d	$r4,$r4,-2(0xffe)
  20a910:	02400486 	sltui	$r6,$r4,1(0x1)
  20a914:	00139bc4 	masknez	$r4,$r30,$r6
  20a918:	00131ba7 	maskeqz	$r7,$r29,$r6
  20a91c:	001510e4 	or	$r4,$r7,$r4
  20a920:	00139b87 	masknez	$r7,$r28,$r6
  20a924:	001318a5 	maskeqz	$r5,$r5,$r6
  20a928:	00151ca5 	or	$r5,$r5,$r7
  20a92c:	28c0a0a6 	ld.d	$r6,$r5,40(0x28)
  20a930:	02c2a065 	addi.d	$r5,$r3,168(0xa8)
  20a934:	4c0000c1 	jirl	$r1,$r6,0
  20a938:	28c1a064 	ld.d	$r4,$r3,104(0x68)
  20a93c:	28c00084 	ld.d	$r4,$r4,0
  20a940:	001292c5 	sltu	$r5,$r22,$r4
  20a944:	02fff484 	addi.d	$r4,$r4,-3(0xffd)
  20a948:	00129004 	sltu	$r4,$r0,$r4
  20a94c:	00139484 	masknez	$r4,$r4,$r5
  20a950:	28c18066 	ld.d	$r6,$r3,96(0x60)
  20a954:	001314c5 	maskeqz	$r5,$r6,$r5
  20a958:	001510a4 	or	$r4,$r5,$r4
  20a95c:	58000c86 	beq	$r4,$r6,12(0xc) # 20a968 <loongarch64_trap_handler+0x3b08>
  20a960:	0343fc84 	andi	$r4,$r4,0xff
  20a964:	4400b880 	bnez	$r4,184(0xb8) # 20aa1c <loongarch64_trap_handler+0x3bbc>
  20a968:	04000004 	csrrd	$r4,0x0
  20a96c:	28c12065 	ld.d	$r5,$r3,72(0x48)
  20a970:	29c7e065 	st.d	$r5,$r3,504(0x1f8)
  20a974:	28c04065 	ld.d	$r5,$r3,16(0x10)
  20a978:	29c7c065 	st.d	$r5,$r3,496(0x1f0)
  20a97c:	00c41084 	bstrpick.d	$r4,$r4,0x4,0x4
  20a980:	2901e064 	st.b	$r4,$r3,120(0x78)
  20a984:	28c0e064 	ld.d	$r4,$r3,56(0x38)
  20a988:	28c00084 	ld.d	$r4,$r4,0
  20a98c:	38720000 	dbar	0x0
  20a990:	28c16065 	ld.d	$r5,$r3,88(0x58)
  20a994:	28c000a5 	ld.d	$r5,$r5,0
  20a998:	28c02066 	ld.d	$r6,$r3,8(0x8)
  20a99c:	29c42066 	st.d	$r6,$r3,264(0x108)
  20a9a0:	1a0001c6 	pcalau12i	$r6,14(0xe)
  20a9a4:	02e160c6 	addi.d	$r6,$r6,-1960(0x858)
  20a9a8:	29c3e066 	st.d	$r6,$r3,248(0xf8)
  20a9ac:	29c36076 	st.d	$r22,$r3,216(0xd8)
  20a9b0:	29c4407b 	st.d	$r27,$r3,272(0x110)
  20a9b4:	29c4007b 	st.d	$r27,$r3,256(0x100)
  20a9b8:	00150366 	move	$r6,$r27
  20a9bc:	16000d86 	lu32i.d	$r6,108(0x6c)
  20a9c0:	29c3c066 	st.d	$r6,$r3,240(0xf0)
  20a9c4:	28c06066 	ld.d	$r6,$r3,24(0x18)
  20a9c8:	29c34066 	st.d	$r6,$r3,208(0xd0)
  20a9cc:	29c3207a 	st.d	$r26,$r3,200(0xc8)
  20a9d0:	28c08066 	ld.d	$r6,$r3,32(0x20)
  20a9d4:	29c3a066 	st.d	$r6,$r3,232(0xe8)
  20a9d8:	29c2e066 	st.d	$r6,$r3,184(0xb8)
  20a9dc:	29c38079 	st.d	$r25,$r3,224(0xe0)
  20a9e0:	29c2c079 	st.d	$r25,$r3,176(0xb0)
  20a9e4:	29c46060 	st.d	$r0,$r3,280(0x118)
  20a9e8:	29c30060 	st.d	$r0,$r3,192(0xc0)
  20a9ec:	29c2a060 	st.d	$r0,$r3,168(0xa8)
  20a9f0:	02fff884 	addi.d	$r4,$r4,-2(0xffe)
  20a9f4:	02400486 	sltui	$r6,$r4,1(0x1)
  20a9f8:	00139bc4 	masknez	$r4,$r30,$r6
  20a9fc:	00131ba7 	maskeqz	$r7,$r29,$r6
  20aa00:	001510e4 	or	$r4,$r7,$r4
  20aa04:	00139b87 	masknez	$r7,$r28,$r6
  20aa08:	001318a5 	maskeqz	$r5,$r5,$r6
  20aa0c:	00151ca5 	or	$r5,$r5,$r7
  20aa10:	28c0a0a6 	ld.d	$r6,$r5,40(0x28)
  20aa14:	02c2a065 	addi.d	$r5,$r3,168(0xa8)
  20aa18:	4c0000c1 	jirl	$r1,$r6,0
  20aa1c:	28c1a064 	ld.d	$r4,$r3,104(0x68)
  20aa20:	28c00084 	ld.d	$r4,$r4,0
  20aa24:	001292c5 	sltu	$r5,$r22,$r4
  20aa28:	02fff484 	addi.d	$r4,$r4,-3(0xffd)
  20aa2c:	00129004 	sltu	$r4,$r0,$r4
  20aa30:	00139484 	masknez	$r4,$r4,$r5
  20aa34:	28c18066 	ld.d	$r6,$r3,96(0x60)
  20aa38:	001314c5 	maskeqz	$r5,$r6,$r5
  20aa3c:	001510a4 	or	$r4,$r5,$r4
  20aa40:	58000c86 	beq	$r4,$r6,12(0xc) # 20aa4c <loongarch64_trap_handler+0x3bec>
  20aa44:	0343fc84 	andi	$r4,$r4,0xff
  20aa48:	4400dc80 	bnez	$r4,220(0xdc) # 20ab24 <loongarch64_trap_handler+0x3cc4>
  20aa4c:	04022004 	csrrd	$r4,0x88
  20aa50:	29c70064 	st.d	$r4,$r3,448(0x1c0)
  20aa54:	1a0000a4 	pcalau12i	$r4,5(0x5)
  20aa58:	02c32084 	addi.d	$r4,$r4,200(0xc8)
  20aa5c:	29c20064 	st.d	$r4,$r3,128(0x80)
  20aa60:	02c70064 	addi.d	$r4,$r3,448(0x1c0)
  20aa64:	29c1e064 	st.d	$r4,$r3,120(0x78)
  20aa68:	03808004 	ori	$r4,$r0,0x20
  20aa6c:	16000084 	lu32i.d	$r4,4(0x4)
  20aa70:	29c86064 	st.d	$r4,$r3,536(0x218)
  20aa74:	28c14064 	ld.d	$r4,$r3,80(0x50)
  20aa78:	29c80064 	st.d	$r4,$r3,512(0x200)
  20aa7c:	29c7c064 	st.d	$r4,$r3,496(0x1f0)
  20aa80:	29088076 	st.b	$r22,$r3,544(0x220)
  20aa84:	29c84060 	st.d	$r0,$r3,528(0x210)
  20aa88:	28c0e064 	ld.d	$r4,$r3,56(0x38)
  20aa8c:	28c00084 	ld.d	$r4,$r4,0
  20aa90:	38720000 	dbar	0x0
  20aa94:	28c16065 	ld.d	$r5,$r3,88(0x58)
  20aa98:	28c000a5 	ld.d	$r5,$r5,0
  20aa9c:	28c02066 	ld.d	$r6,$r3,8(0x8)
  20aaa0:	29c46066 	st.d	$r6,$r3,280(0x118)
  20aaa4:	28c04066 	ld.d	$r6,$r3,16(0x10)
  20aaa8:	29c42066 	st.d	$r6,$r3,264(0x108)
  20aaac:	1a0001c6 	pcalau12i	$r6,14(0xe)
  20aab0:	02e1a0c6 	addi.d	$r6,$r6,-1944(0x868)
  20aab4:	29c3e066 	st.d	$r6,$r3,248(0xf8)
  20aab8:	29c36076 	st.d	$r22,$r3,216(0xd8)
  20aabc:	29c4807b 	st.d	$r27,$r3,288(0x120)
  20aac0:	29c4407b 	st.d	$r27,$r3,272(0x110)
  20aac4:	29c4007b 	st.d	$r27,$r3,256(0x100)
  20aac8:	16000dbb 	lu32i.d	$r27,109(0x6d)
  20aacc:	29c3c07b 	st.d	$r27,$r3,240(0xf0)
  20aad0:	28c06066 	ld.d	$r6,$r3,24(0x18)
  20aad4:	29c34066 	st.d	$r6,$r3,208(0xd0)
  20aad8:	29c3207a 	st.d	$r26,$r3,200(0xc8)
  20aadc:	28c08066 	ld.d	$r6,$r3,32(0x20)
  20aae0:	29c3a066 	st.d	$r6,$r3,232(0xe8)
  20aae4:	29c2e066 	st.d	$r6,$r3,184(0xb8)
  20aae8:	29c38079 	st.d	$r25,$r3,224(0xe0)
  20aaec:	29c2c079 	st.d	$r25,$r3,176(0xb0)
  20aaf0:	29c30060 	st.d	$r0,$r3,192(0xc0)
  20aaf4:	29c2a060 	st.d	$r0,$r3,168(0xa8)
  20aaf8:	02fff884 	addi.d	$r4,$r4,-2(0xffe)
  20aafc:	02400486 	sltui	$r6,$r4,1(0x1)
  20ab00:	00139bc4 	masknez	$r4,$r30,$r6
  20ab04:	00131ba7 	maskeqz	$r7,$r29,$r6
  20ab08:	001510e4 	or	$r4,$r7,$r4
  20ab0c:	00139b87 	masknez	$r7,$r28,$r6
  20ab10:	001318a5 	maskeqz	$r5,$r5,$r6
  20ab14:	00151ca5 	or	$r5,$r5,$r7
  20ab18:	28c0a0a6 	ld.d	$r6,$r5,40(0x28)
  20ab1c:	02c2a065 	addi.d	$r5,$r3,168(0xa8)
  20ab20:	4c0000c1 	jirl	$r1,$r6,0
  20ab24:	28c8a07f 	ld.d	$r31,$r3,552(0x228)
  20ab28:	28c8c07e 	ld.d	$r30,$r3,560(0x230)
  20ab2c:	28c8e07d 	ld.d	$r29,$r3,568(0x238)
  20ab30:	28c9007c 	ld.d	$r28,$r3,576(0x240)
  20ab34:	28c9207b 	ld.d	$r27,$r3,584(0x248)
  20ab38:	28c9407a 	ld.d	$r26,$r3,592(0x250)
  20ab3c:	28c96079 	ld.d	$r25,$r3,600(0x258)
  20ab40:	28c98078 	ld.d	$r24,$r3,608(0x260)
  20ab44:	28c9a077 	ld.d	$r23,$r3,616(0x268)
  20ab48:	28c9c076 	ld.d	$r22,$r3,624(0x270)
  20ab4c:	28c9e061 	ld.d	$r1,$r3,632(0x278)
  20ab50:	02ca0063 	addi.d	$r3,$r3,640(0x280)
  20ab54:	4c000020 	jirl	$r0,$r1,0
  20ab58:	001502e4 	move	$r4,$r23
  20ab5c:	547e5000 	bl	32336(0x7e50) # 2129ac <_ZN11loongarch648register5estat5Estat5cause17h8628d631df43b606E>
  20ab60:	29070465 	st.b	$r5,$r3,449(0x1c1)
  20ab64:	29070064 	st.b	$r4,$r3,448(0x1c0)
  20ab68:	1a000024 	pcalau12i	$r4,1(0x1)
  20ab6c:	02c25084 	addi.d	$r4,$r4,148(0x94)
  20ab70:	29c86064 	st.d	$r4,$r3,536(0x218)
  20ab74:	02c1c064 	addi.d	$r4,$r3,112(0x70)
  20ab78:	29c84064 	st.d	$r4,$r3,528(0x210)
  20ab7c:	1a0000a4 	pcalau12i	$r4,5(0x5)
  20ab80:	02c32084 	addi.d	$r4,$r4,200(0xc8)
  20ab84:	29c82064 	st.d	$r4,$r3,520(0x208)
  20ab88:	02c4a2c4 	addi.d	$r4,$r22,296(0x128)
  20ab8c:	29c80064 	st.d	$r4,$r3,512(0x200)
  20ab90:	1a000124 	pcalau12i	$r4,9(0x9)
  20ab94:	02ee7084 	addi.d	$r4,$r4,-1124(0xb9c)
  20ab98:	29c7e064 	st.d	$r4,$r3,504(0x1f8)
  20ab9c:	02c70064 	addi.d	$r4,$r3,448(0x1c0)
  20aba0:	29c7c064 	st.d	$r4,$r3,496(0x1f0)
  20aba4:	03808004 	ori	$r4,$r0,0x20
  20aba8:	00150085 	move	$r5,$r4
  20abac:	16000285 	lu32i.d	$r5,20(0x14)
  20abb0:	29c50065 	st.d	$r5,$r3,320(0x140)
  20abb4:	00150085 	move	$r5,$r4
  20abb8:	16000085 	lu32i.d	$r5,4(0x4)
  20abbc:	29c42065 	st.d	$r5,$r3,264(0x108)
  20abc0:	03800405 	ori	$r5,$r0,0x1
  20abc4:	29c40065 	st.d	$r5,$r3,256(0x100)
  20abc8:	29c34064 	st.d	$r4,$r3,208(0xd0)
  20abcc:	29c32060 	st.d	$r0,$r3,200(0xc8)
  20abd0:	03800804 	ori	$r4,$r0,0x2
  20abd4:	29c4e064 	st.d	$r4,$r3,312(0x138)
  20abd8:	29c4a064 	st.d	$r4,$r3,296(0x128)
  20abdc:	29c46064 	st.d	$r4,$r3,280(0x118)
  20abe0:	29c3c064 	st.d	$r4,$r3,240(0xf0)
  20abe4:	29c38064 	st.d	$r4,$r3,224(0xe0)
  20abe8:	29c2e064 	st.d	$r4,$r3,184(0xb8)
  20abec:	29c2a064 	st.d	$r4,$r3,168(0xa8)
  20abf0:	03800c04 	ori	$r4,$r0,0x3
  20abf4:	29052064 	st.b	$r4,$r3,328(0x148)
  20abf8:	29044064 	st.b	$r4,$r3,272(0x110)
  20abfc:	29036064 	st.b	$r4,$r3,216(0xd8)
  20ac00:	02c2a065 	addi.d	$r5,$r3,168(0xa8)
  20ac04:	29c26065 	st.d	$r5,$r3,152(0x98)
  20ac08:	1a0001c5 	pcalau12i	$r5,14(0xe)
  20ac0c:	02e860a5 	addi.d	$r5,$r5,-1512(0xa18)
  20ac10:	29c1e065 	st.d	$r5,$r3,120(0x78)
  20ac14:	29c28064 	st.d	$r4,$r3,160(0xa0)
  20ac18:	29c20064 	st.d	$r4,$r3,128(0x80)
  20ac1c:	29c24064 	st.d	$r4,$r3,144(0x90)
  20ac20:	02c7c064 	addi.d	$r4,$r3,496(0x1f0)
  20ac24:	29c22064 	st.d	$r4,$r3,136(0x88)
  20ac28:	02c1e064 	addi.d	$r4,$r3,120(0x78)
  20ac2c:	1a0001c5 	pcalau12i	$r5,14(0xe)
  20ac30:	02e920a5 	addi.d	$r5,$r5,-1464(0xa48)
  20ac34:	5457a800 	bl	22440(0x57a8) # 2103dc <_ZN4core9panicking9panic_fmt17ha745c27c594dd0a5E>
  20ac38:	38600400 	amswap.w	$r0,$r1,$r0

000000000020ac3c <_ZN63_$LT$axhal..mem..MemRegionFlags$u20$as$u20$core..fmt..Debug$GT$3fmt17hab7ea00218200f64E>:
_ZN63_$LT$axhal..mem..MemRegionFlags$u20$as$u20$core..fmt..Debug$GT$3fmt17hab7ea00218200f64E():
  20ac3c:	02fc0063 	addi.d	$r3,$r3,-256(0xf00)
  20ac40:	29c3e061 	st.d	$r1,$r3,248(0xf8)
  20ac44:	29c3c076 	st.d	$r22,$r3,240(0xf0)
  20ac48:	29c3a077 	st.d	$r23,$r3,232(0xe8)
  20ac4c:	29c38078 	st.d	$r24,$r3,224(0xe0)
  20ac50:	29c36079 	st.d	$r25,$r3,216(0xd8)
  20ac54:	29c3407a 	st.d	$r26,$r3,208(0xd0)
  20ac58:	29c3207b 	st.d	$r27,$r3,200(0xc8)
  20ac5c:	29c3007c 	st.d	$r28,$r3,192(0xc0)
  20ac60:	29c2e07d 	st.d	$r29,$r3,184(0xb8)
  20ac64:	29c2c07e 	st.d	$r30,$r3,176(0xb0)
  20ac68:	29c2a07f 	st.d	$r31,$r3,168(0xa8)
  20ac6c:	28c0009b 	ld.d	$r27,$r4,0
  20ac70:	40005760 	beqz	$r27,84(0x54) # 20acc4 <_ZN63_$LT$axhal..mem..MemRegionFlags$u20$as$u20$core..fmt..Debug$GT$3fmt17hab7ea00218200f64E+0x88>
  20ac74:	03800416 	ori	$r22,$r0,0x1
  20ac78:	03400764 	andi	$r4,$r27,0x1
  20ac7c:	4400cc80 	bnez	$r4,204(0xcc) # 20ad48 <_ZN63_$LT$axhal..mem..MemRegionFlags$u20$as$u20$core..fmt..Debug$GT$3fmt17hab7ea00218200f64E+0x10c>
  20ac80:	03400b64 	andi	$r4,$r27,0x2
  20ac84:	4400d480 	bnez	$r4,212(0xd4) # 20ad58 <_ZN63_$LT$axhal..mem..MemRegionFlags$u20$as$u20$core..fmt..Debug$GT$3fmt17hab7ea00218200f64E+0x11c>
  20ac88:	03401364 	andi	$r4,$r27,0x4
  20ac8c:	4400dc80 	bnez	$r4,220(0xdc) # 20ad68 <_ZN63_$LT$axhal..mem..MemRegionFlags$u20$as$u20$core..fmt..Debug$GT$3fmt17hab7ea00218200f64E+0x12c>
  20ac90:	03404364 	andi	$r4,$r27,0x10
  20ac94:	4400e480 	bnez	$r4,228(0xe4) # 20ad78 <_ZN63_$LT$axhal..mem..MemRegionFlags$u20$as$u20$core..fmt..Debug$GT$3fmt17hab7ea00218200f64E+0x13c>
  20ac98:	03408364 	andi	$r4,$r27,0x20
  20ac9c:	4400ec80 	bnez	$r4,236(0xec) # 20ad88 <_ZN63_$LT$axhal..mem..MemRegionFlags$u20$as$u20$core..fmt..Debug$GT$3fmt17hab7ea00218200f64E+0x14c>
  20aca0:	03410364 	andi	$r4,$r27,0x40
  20aca4:	4400f480 	bnez	$r4,244(0xf4) # 20ad98 <_ZN63_$LT$axhal..mem..MemRegionFlags$u20$as$u20$core..fmt..Debug$GT$3fmt17hab7ea00218200f64E+0x15c>
  20aca8:	29c08076 	st.d	$r22,$r3,32(0x20)
  20acac:	29c1c07b 	st.d	$r27,$r3,112(0x70)
  20acb0:	28c080b7 	ld.d	$r23,$r5,32(0x20)
  20acb4:	28c0a0a4 	ld.d	$r4,$r5,40(0x28)
  20acb8:	29c06064 	st.d	$r4,$r3,24(0x18)
  20acbc:	28c0609d 	ld.d	$r29,$r4,24(0x18)
  20acc0:	5001e000 	b	480(0x1e0) # 20aea0 <_ZN63_$LT$axhal..mem..MemRegionFlags$u20$as$u20$core..fmt..Debug$GT$3fmt17hab7ea00218200f64E+0x264>
  20acc4:	1a0000a4 	pcalau12i	$r4,5(0x5)
  20acc8:	02c32084 	addi.d	$r4,$r4,200(0xc8)
  20accc:	29c0c064 	st.d	$r4,$r3,48(0x30)
  20acd0:	1a000144 	pcalau12i	$r4,10(0xa)
  20acd4:	02dd6084 	addi.d	$r4,$r4,1880(0x758)
  20acd8:	29c0a064 	st.d	$r4,$r3,40(0x28)
  20acdc:	03800c04 	ori	$r4,$r0,0x3
  20ace0:	2901a064 	st.b	$r4,$r3,104(0x68)
  20ace4:	03808004 	ori	$r4,$r0,0x20
  20ace8:	16000084 	lu32i.d	$r4,4(0x4)
  20acec:	29c18064 	st.d	$r4,$r3,96(0x60)
  20acf0:	29c16060 	st.d	$r0,$r3,88(0x58)
  20acf4:	03800804 	ori	$r4,$r0,0x2
  20acf8:	29c12064 	st.d	$r4,$r3,72(0x48)
  20acfc:	29c0e064 	st.d	$r4,$r3,56(0x38)
  20ad00:	28c0a0a7 	ld.d	$r7,$r5,40(0x28)
  20ad04:	28c080a4 	ld.d	$r4,$r5,32(0x20)
  20ad08:	02c0e065 	addi.d	$r5,$r3,56(0x38)
  20ad0c:	29c26065 	st.d	$r5,$r3,152(0x98)
  20ad10:	02c0a065 	addi.d	$r5,$r3,40(0x28)
  20ad14:	29c22065 	st.d	$r5,$r3,136(0x88)
  20ad18:	03800405 	ori	$r5,$r0,0x1
  20ad1c:	29c28065 	st.d	$r5,$r3,160(0xa0)
  20ad20:	29c24065 	st.d	$r5,$r3,144(0x90)
  20ad24:	29c20065 	st.d	$r5,$r3,128(0x80)
  20ad28:	1a0001c5 	pcalau12i	$r5,14(0xe)
  20ad2c:	02dca0a5 	addi.d	$r5,$r5,1832(0x728)
  20ad30:	29c1e065 	st.d	$r5,$r3,120(0x78)
  20ad34:	02c1e066 	addi.d	$r6,$r3,120(0x78)
  20ad38:	001500e5 	move	$r5,$r7
  20ad3c:	545ea800 	bl	24232(0x5ea8) # 210be4 <_ZN4core3fmt5write17hf855db0f875ea3deE>
  20ad40:	00150096 	move	$r22,$r4
  20ad44:	5001cc00 	b	460(0x1cc) # 20af10 <_ZN63_$LT$axhal..mem..MemRegionFlags$u20$as$u20$core..fmt..Debug$GT$3fmt17hab7ea00218200f64E+0x2d4>
  20ad48:	02bff818 	addi.w	$r24,$r0,-2(0xffe)
  20ad4c:	001502dc 	move	$r28,$r22
  20ad50:	00150004 	move	$r4,$r0
  20ad54:	50005000 	b	80(0x50) # 20ada4 <_ZN63_$LT$axhal..mem..MemRegionFlags$u20$as$u20$core..fmt..Debug$GT$3fmt17hab7ea00218200f64E+0x168>
  20ad58:	03800404 	ori	$r4,$r0,0x1
  20ad5c:	02bff418 	addi.w	$r24,$r0,-3(0xffd)
  20ad60:	0380081c 	ori	$r28,$r0,0x2
  20ad64:	50004000 	b	64(0x40) # 20ada4 <_ZN63_$LT$axhal..mem..MemRegionFlags$u20$as$u20$core..fmt..Debug$GT$3fmt17hab7ea00218200f64E+0x168>
  20ad68:	03800804 	ori	$r4,$r0,0x2
  20ad6c:	02bfec18 	addi.w	$r24,$r0,-5(0xffb)
  20ad70:	03800c1c 	ori	$r28,$r0,0x3
  20ad74:	50003000 	b	48(0x30) # 20ada4 <_ZN63_$LT$axhal..mem..MemRegionFlags$u20$as$u20$core..fmt..Debug$GT$3fmt17hab7ea00218200f64E+0x168>
  20ad78:	03800c04 	ori	$r4,$r0,0x3
  20ad7c:	02bfbc18 	addi.w	$r24,$r0,-17(0xfef)
  20ad80:	0380101c 	ori	$r28,$r0,0x4
  20ad84:	50002000 	b	32(0x20) # 20ada4 <_ZN63_$LT$axhal..mem..MemRegionFlags$u20$as$u20$core..fmt..Debug$GT$3fmt17hab7ea00218200f64E+0x168>
  20ad88:	03801004 	ori	$r4,$r0,0x4
  20ad8c:	02bf7c18 	addi.w	$r24,$r0,-33(0xfdf)
  20ad90:	0380141c 	ori	$r28,$r0,0x5
  20ad94:	50001000 	b	16(0x10) # 20ada4 <_ZN63_$LT$axhal..mem..MemRegionFlags$u20$as$u20$core..fmt..Debug$GT$3fmt17hab7ea00218200f64E+0x168>
  20ad98:	03801404 	ori	$r4,$r0,0x5
  20ad9c:	02befc18 	addi.w	$r24,$r0,-65(0xfbf)
  20ada0:	0380181c 	ori	$r28,$r0,0x6
  20ada4:	0380601e 	ori	$r30,$r0,0x18
  20ada8:	001df884 	mul.d	$r4,$r4,$r30
  20adac:	1a0001c6 	pcalau12i	$r6,14(0xe)
  20adb0:	02eb00df 	addi.d	$r31,$r6,-1344(0xac0)
  20adb4:	001093e6 	add.d	$r6,$r31,$r4
  20adb8:	380c13e7 	ldx.d	$r7,$r31,$r4
  20adbc:	28c020c6 	ld.d	$r6,$r6,8(0x8)
  20adc0:	28c080b7 	ld.d	$r23,$r5,32(0x20)
  20adc4:	28c0a0b9 	ld.d	$r25,$r5,40(0x28)
  20adc8:	28c0633d 	ld.d	$r29,$r25,24(0x18)
  20adcc:	001502e4 	move	$r4,$r23
  20add0:	001500e5 	move	$r5,$r7
  20add4:	4c0003a1 	jirl	$r1,$r29,0
  20add8:	44013880 	bnez	$r4,312(0x138) # 20af10 <_ZN63_$LT$axhal..mem..MemRegionFlags$u20$as$u20$core..fmt..Debug$GT$3fmt17hab7ea00218200f64E+0x2d4>
  20addc:	29c06079 	st.d	$r25,$r3,24(0x18)
  20ade0:	29c08076 	st.d	$r22,$r3,32(0x20)
  20ade4:	0014e379 	and	$r25,$r27,$r24
  20ade8:	03801407 	ori	$r7,$r0,0x5
  20adec:	03801c18 	ori	$r24,$r0,0x7
  20adf0:	1a000184 	pcalau12i	$r4,12(0xc)
  20adf4:	02c5a085 	addi.d	$r5,$r4,360(0x168)
  20adf8:	03800c06 	ori	$r6,$r0,0x3
  20adfc:	68014cfc 	bltu	$r7,$r28,332(0x14c) # 20af48 <_ZN63_$LT$axhal..mem..MemRegionFlags$u20$as$u20$core..fmt..Debug$GT$3fmt17hab7ea00218200f64E+0x30c>
  20ae00:	001dfb84 	mul.d	$r4,$r28,$r30
  20ae04:	001093e4 	add.d	$r4,$r31,$r4
  20ae08:	02c0079c 	addi.d	$r28,$r28,1(0x1)
  20ae0c:	02c0409a 	addi.d	$r26,$r4,16(0x10)
  20ae10:	50001000 	b	16(0x10) # 20ae20 <_ZN63_$LT$axhal..mem..MemRegionFlags$u20$as$u20$core..fmt..Debug$GT$3fmt17hab7ea00218200f64E+0x1e4>
  20ae14:	02c0635a 	addi.d	$r26,$r26,24(0x18)
  20ae18:	02c0079c 	addi.d	$r28,$r28,1(0x1)
  20ae1c:	58006b98 	beq	$r28,$r24,104(0x68) # 20ae84 <_ZN63_$LT$axhal..mem..MemRegionFlags$u20$as$u20$core..fmt..Debug$GT$3fmt17hab7ea00218200f64E+0x248>
  20ae20:	40005b20 	beqz	$r25,88(0x58) # 20ae78 <_ZN63_$LT$axhal..mem..MemRegionFlags$u20$as$u20$core..fmt..Debug$GT$3fmt17hab7ea00218200f64E+0x23c>
  20ae24:	28c00356 	ld.d	$r22,$r26,0
  20ae28:	0014db64 	and	$r4,$r27,$r22
  20ae2c:	5fffe896 	bne	$r4,$r22,-24(0x3ffe8) # 20ae14 <_ZN63_$LT$axhal..mem..MemRegionFlags$u20$as$u20$core..fmt..Debug$GT$3fmt17hab7ea00218200f64E+0x1d8>
  20ae30:	0014db24 	and	$r4,$r25,$r22
  20ae34:	43ffe09f 	beqz	$r4,-32(0x7fffe0) # 20ae14 <_ZN63_$LT$axhal..mem..MemRegionFlags$u20$as$u20$core..fmt..Debug$GT$3fmt17hab7ea00218200f64E+0x1d8>
  20ae38:	29c04067 	st.d	$r7,$r3,16(0x10)
  20ae3c:	001502e4 	move	$r4,$r23
  20ae40:	29c02065 	st.d	$r5,$r3,8(0x8)
  20ae44:	29c00066 	st.d	$r6,$r3,0
  20ae48:	4c0003a1 	jirl	$r1,$r29,0
  20ae4c:	4400c080 	bnez	$r4,192(0xc0) # 20af0c <_ZN63_$LT$axhal..mem..MemRegionFlags$u20$as$u20$core..fmt..Debug$GT$3fmt17hab7ea00218200f64E+0x2d0>
  20ae50:	28ffe346 	ld.d	$r6,$r26,-8(0xff8)
  20ae54:	28ffc345 	ld.d	$r5,$r26,-16(0xff0)
  20ae58:	001502e4 	move	$r4,$r23
  20ae5c:	4c0003a1 	jirl	$r1,$r29,0
  20ae60:	0016db39 	andn	$r25,$r25,$r22
  20ae64:	28c04067 	ld.d	$r7,$r3,16(0x10)
  20ae68:	28c02065 	ld.d	$r5,$r3,8(0x8)
  20ae6c:	28c00066 	ld.d	$r6,$r3,0
  20ae70:	43ff8c9f 	beqz	$r4,-116(0x7fff8c) # 20adfc <_ZN63_$LT$axhal..mem..MemRegionFlags$u20$as$u20$core..fmt..Debug$GT$3fmt17hab7ea00218200f64E+0x1c0>
  20ae74:	50009800 	b	152(0x98) # 20af0c <_ZN63_$LT$axhal..mem..MemRegionFlags$u20$as$u20$core..fmt..Debug$GT$3fmt17hab7ea00218200f64E+0x2d0>
  20ae78:	29c1c060 	st.d	$r0,$r3,112(0x70)
  20ae7c:	00150016 	move	$r22,$r0
  20ae80:	50009000 	b	144(0x90) # 20af10 <_ZN63_$LT$axhal..mem..MemRegionFlags$u20$as$u20$core..fmt..Debug$GT$3fmt17hab7ea00218200f64E+0x2d4>
  20ae84:	29c1c079 	st.d	$r25,$r3,112(0x70)
  20ae88:	1a000184 	pcalau12i	$r4,12(0xc)
  20ae8c:	02c5a085 	addi.d	$r5,$r4,360(0x168)
  20ae90:	03800c06 	ori	$r6,$r0,0x3
  20ae94:	001502e4 	move	$r4,$r23
  20ae98:	4c0003a1 	jirl	$r1,$r29,0
  20ae9c:	44007080 	bnez	$r4,112(0x70) # 20af0c <_ZN63_$LT$axhal..mem..MemRegionFlags$u20$as$u20$core..fmt..Debug$GT$3fmt17hab7ea00218200f64E+0x2d0>
  20aea0:	1a000184 	pcalau12i	$r4,12(0xc)
  20aea4:	02c59885 	addi.d	$r5,$r4,358(0x166)
  20aea8:	03800806 	ori	$r6,$r0,0x2
  20aeac:	001502e4 	move	$r4,$r23
  20aeb0:	4c0003a1 	jirl	$r1,$r29,0
  20aeb4:	44005880 	bnez	$r4,88(0x58) # 20af0c <_ZN63_$LT$axhal..mem..MemRegionFlags$u20$as$u20$core..fmt..Debug$GT$3fmt17hab7ea00218200f64E+0x2d0>
  20aeb8:	02c1c064 	addi.d	$r4,$r3,112(0x70)
  20aebc:	29c0a064 	st.d	$r4,$r3,40(0x28)
  20aec0:	1a000124 	pcalau12i	$r4,9(0x9)
  20aec4:	02ccf084 	addi.d	$r4,$r4,828(0x33c)
  20aec8:	29c20064 	st.d	$r4,$r3,128(0x80)
  20aecc:	02c0a064 	addi.d	$r4,$r3,40(0x28)
  20aed0:	29c1e064 	st.d	$r4,$r3,120(0x78)
  20aed4:	29c16060 	st.d	$r0,$r3,88(0x58)
  20aed8:	02c1e064 	addi.d	$r4,$r3,120(0x78)
  20aedc:	29c12064 	st.d	$r4,$r3,72(0x48)
  20aee0:	03800404 	ori	$r4,$r0,0x1
  20aee4:	29c14064 	st.d	$r4,$r3,80(0x50)
  20aee8:	29c10064 	st.d	$r4,$r3,64(0x40)
  20aeec:	1a0001c4 	pcalau12i	$r4,14(0xe)
  20aef0:	02dca084 	addi.d	$r4,$r4,1832(0x728)
  20aef4:	29c0e064 	st.d	$r4,$r3,56(0x38)
  20aef8:	02c0e066 	addi.d	$r6,$r3,56(0x38)
  20aefc:	001502e4 	move	$r4,$r23
  20af00:	28c06065 	ld.d	$r5,$r3,24(0x18)
  20af04:	545ce000 	bl	23776(0x5ce0) # 210be4 <_ZN4core3fmt5write17hf855db0f875ea3deE>
  20af08:	43ff749f 	beqz	$r4,-140(0x7fff74) # 20ae7c <_ZN63_$LT$axhal..mem..MemRegionFlags$u20$as$u20$core..fmt..Debug$GT$3fmt17hab7ea00218200f64E+0x240>
  20af0c:	28c08076 	ld.d	$r22,$r3,32(0x20)
  20af10:	001502c4 	move	$r4,$r22
  20af14:	28c2a07f 	ld.d	$r31,$r3,168(0xa8)
  20af18:	28c2c07e 	ld.d	$r30,$r3,176(0xb0)
  20af1c:	28c2e07d 	ld.d	$r29,$r3,184(0xb8)
  20af20:	28c3007c 	ld.d	$r28,$r3,192(0xc0)
  20af24:	28c3207b 	ld.d	$r27,$r3,200(0xc8)
  20af28:	28c3407a 	ld.d	$r26,$r3,208(0xd0)
  20af2c:	28c36079 	ld.d	$r25,$r3,216(0xd8)
  20af30:	28c38078 	ld.d	$r24,$r3,224(0xe0)
  20af34:	28c3a077 	ld.d	$r23,$r3,232(0xe8)
  20af38:	28c3c076 	ld.d	$r22,$r3,240(0xf0)
  20af3c:	28c3e061 	ld.d	$r1,$r3,248(0xf8)
  20af40:	02c40063 	addi.d	$r3,$r3,256(0x100)
  20af44:	4c000020 	jirl	$r0,$r1,0
  20af48:	29c1c079 	st.d	$r25,$r3,112(0x70)
  20af4c:	47ff3f3f 	bnez	$r25,-196(0x7fff3c) # 20ae88 <_ZN63_$LT$axhal..mem..MemRegionFlags$u20$as$u20$core..fmt..Debug$GT$3fmt17hab7ea00218200f64E+0x24c>
  20af50:	53ff2fff 	b	-212(0xfffff2c) # 20ae7c <_ZN63_$LT$axhal..mem..MemRegionFlags$u20$as$u20$core..fmt..Debug$GT$3fmt17hab7ea00218200f64E+0x240>

000000000020af54 <_ZN5axhal8platform21qemu_virt_loongarch6410rust_entry17h9cbe386003ea0f55E>:
_ZN5axhal8platform21qemu_virt_loongarch6410rust_entry17h9cbe386003ea0f55E():
  20af54:	02ff8063 	addi.d	$r3,$r3,-32(0xfe0)
  20af58:	29c06061 	st.d	$r1,$r3,24(0x18)
  20af5c:	29c04076 	st.d	$r22,$r3,16(0x10)
  20af60:	00150096 	move	$r22,$r4
  20af64:	1a0001e4 	pcalau12i	$r4,15(0xf)
  20af68:	28e96084 	ld.d	$r4,$r4,-1448(0xa58)
  20af6c:	1a0001e5 	pcalau12i	$r5,15(0xf)
  20af70:	28e980a5 	ld.d	$r5,$r5,-1440(0xa60)
  20af74:	001190a4 	sub.d	$r4,$r5,$r4
  20af78:	40002080 	beqz	$r4,32(0x20) # 20af98 <_ZN5axhal8platform21qemu_virt_loongarch6410rust_entry17h9cbe386003ea0f55E+0x44>
  20af7c:	1a0001e4 	pcalau12i	$r4,15(0xf)
  20af80:	28e96084 	ld.d	$r4,$r4,-1448(0xa58)
  20af84:	1a0001e5 	pcalau12i	$r5,15(0xf)
  20af88:	28e980a5 	ld.d	$r5,$r5,-1440(0xa60)
  20af8c:	001190a6 	sub.d	$r6,$r5,$r4
  20af90:	00150005 	move	$r5,$r0
  20af94:	54893000 	bl	35120(0x8930) # 2138c4 <memset>
  20af98:	1a0001e4 	pcalau12i	$r4,15(0xf)
  20af9c:	28e9a084 	ld.d	$r4,$r4,-1432(0xa68)
  20afa0:	1a0001e4 	pcalau12i	$r4,15(0xf)
  20afa4:	28e9c084 	ld.d	$r4,$r4,-1424(0xa70)
  20afa8:	1a0001e4 	pcalau12i	$r4,15(0xf)
  20afac:	28e9a084 	ld.d	$r4,$r4,-1432(0xa68)
  20afb0:	1a0001e4 	pcalau12i	$r4,15(0xf)
  20afb4:	28e9c084 	ld.d	$r4,$r4,-1424(0xa70)
  20afb8:	1a0001e4 	pcalau12i	$r4,15(0xf)
  20afbc:	28e9a084 	ld.d	$r4,$r4,-1432(0xa68)
  20afc0:	1a0001e5 	pcalau12i	$r5,15(0xf)
  20afc4:	28e9c0a5 	ld.d	$r5,$r5,-1424(0xa70)
  20afc8:	00119484 	sub.d	$r4,$r4,$r5
  20afcc:	03bffc05 	ori	$r5,$r0,0xfff
  20afd0:	00109484 	add.d	$r4,$r4,$r5
  20afd4:	15ffffe5 	lu12i.w	$r5,-1(0xfffff)
  20afd8:	00149484 	and	$r4,$r4,$r5
  20afdc:	001dd884 	mul.d	$r4,$r4,$r22
  20afe0:	1a0001e5 	pcalau12i	$r5,15(0xf)
  20afe4:	28e9e0a5 	ld.d	$r5,$r5,-1416(0xa78)
  20afe8:	00109484 	add.d	$r4,$r4,$r5
  20afec:	00150082 	move	$r2,$r4
  20aff0:	00150044 	move	$r4,$r2
  20aff4:	1a0001e5 	pcalau12i	$r5,15(0xf)
  20aff8:	28eb40a5 	ld.d	$r5,$r5,-1328(0xad0)
  20affc:	381c10b6 	stx.d	$r22,$r5,$r4
  20b000:	00150044 	move	$r4,$r2
  20b004:	1a0001c5 	pcalau12i	$r5,14(0xe)
  20b008:	28eb60a5 	ld.d	$r5,$r5,-1320(0xad8)
  20b00c:	03800406 	ori	$r6,$r0,0x1
  20b010:	381010a6 	stx.b	$r6,$r5,$r4
  20b014:	1a0001c4 	pcalau12i	$r4,14(0xe)
  20b018:	28e92084 	ld.d	$r4,$r4,-1464(0xa48)
  20b01c:	037ffc84 	andi	$r4,$r4,0xfff
  20b020:	04003005 	csrrd	$r5,0xc
  20b024:	44005480 	bnez	$r4,84(0x54) # 20b078 <_ZN5axhal8platform21qemu_virt_loongarch6410rust_entry17h9cbe386003ea0f55E+0x124>
  20b028:	1a0001c4 	pcalau12i	$r4,14(0xe)
  20b02c:	28e92084 	ld.d	$r4,$r4,-1464(0xa48)
  20b030:	04003024 	csrwr	$r4,0xc
  20b034:	04007804 	csrrd	$r4,0x1e
  20b038:	03803005 	ori	$r5,$r0,0xc
  20b03c:	008500a4 	bstrins.d	$r4,$r5,0x5,0x0
  20b040:	04007824 	csrwr	$r4,0x1e
  20b044:	04022004 	csrrd	$r4,0x88
  20b048:	29c02064 	st.d	$r4,$r3,8(0x8)
  20b04c:	1a0001c4 	pcalau12i	$r4,14(0xe)
  20b050:	28e94084 	ld.d	$r4,$r4,-1456(0xa50)
  20b054:	00df0085 	bstrpick.d	$r5,$r4,0x1f,0x0
  20b058:	02c02064 	addi.d	$r4,$r3,8(0x8)
  20b05c:	54792400 	bl	31012(0x7924) # 212980 <_ZN11loongarch643tlb8tlbentry9TLBREntry7set_val17h939bcfea8fa68920E>
  20b060:	28c02064 	ld.d	$r4,$r3,8(0x8)
  20b064:	04022024 	csrwr	$r4,0x88
  20b068:	001502c4 	move	$r4,$r22
  20b06c:	00150005 	move	$r5,$r0
  20b070:	5412d000 	bl	4816(0x12d0) # 20c340 <rust_main>
  20b074:	38600400 	amswap.w	$r0,$r1,$r0
  20b078:	1a000164 	pcalau12i	$r4,11(0xb)
  20b07c:	02c01084 	addi.d	$r4,$r4,4(0x4)
  20b080:	03809405 	ori	$r5,$r0,0x25
  20b084:	1a0001a6 	pcalau12i	$r6,13(0xd)
  20b088:	02d600c6 	addi.d	$r6,$r6,1408(0x580)
  20b08c:	5451fc00 	bl	20988(0x51fc) # 210288 <_ZN4core9panicking5panic17hd6bc259b6eb19bb3E>
  20b090:	38600400 	amswap.w	$r0,$r1,$r0

000000000020b094 <_ZN50_$LT$$RF$mut$u20$T$u20$as$u20$core..fmt..Debug$GT$3fmt17h78faa30a2b6505e8E>:
_ZN50_$LT$$RF$mut$u20$T$u20$as$u20$core..fmt..Debug$GT$3fmt17h78faa30a2b6505e8E():
  20b094:	02fd0063 	addi.d	$r3,$r3,-192(0xf40)
  20b098:	29c2e061 	st.d	$r1,$r3,184(0xb8)
  20b09c:	29c2c076 	st.d	$r22,$r3,176(0xb0)
  20b0a0:	29c2a077 	st.d	$r23,$r3,168(0xa8)
  20b0a4:	29c28078 	st.d	$r24,$r3,160(0xa0)
  20b0a8:	001500b6 	move	$r22,$r5
  20b0ac:	28c00084 	ld.d	$r4,$r4,0
  20b0b0:	1a0001a5 	pcalau12i	$r5,13(0xd)
  20b0b4:	02ea80a5 	addi.d	$r5,$r5,-1376(0xaa0)
  20b0b8:	29c20065 	st.d	$r5,$r3,128(0x80)
  20b0bc:	02c22065 	addi.d	$r5,$r3,136(0x88)
  20b0c0:	29c1e065 	st.d	$r5,$r3,120(0x78)
  20b0c4:	02c4a085 	addi.d	$r5,$r4,296(0x128)
  20b0c8:	29c1a065 	st.d	$r5,$r3,104(0x68)
  20b0cc:	02c48085 	addi.d	$r5,$r4,288(0x120)
  20b0d0:	29c16065 	st.d	$r5,$r3,88(0x58)
  20b0d4:	02c46085 	addi.d	$r5,$r4,280(0x118)
  20b0d8:	29c12065 	st.d	$r5,$r3,72(0x48)
  20b0dc:	02c44085 	addi.d	$r5,$r4,272(0x110)
  20b0e0:	29c0e065 	st.d	$r5,$r3,56(0x38)
  20b0e4:	02c42085 	addi.d	$r5,$r4,264(0x108)
  20b0e8:	29c0a065 	st.d	$r5,$r3,40(0x28)
  20b0ec:	1a0001a5 	pcalau12i	$r5,13(0xd)
  20b0f0:	02ea00a5 	addi.d	$r5,$r5,-1408(0xa80)
  20b0f4:	29c1c065 	st.d	$r5,$r3,112(0x70)
  20b0f8:	29c18065 	st.d	$r5,$r3,96(0x60)
  20b0fc:	29c14065 	st.d	$r5,$r3,80(0x50)
  20b100:	29c10065 	st.d	$r5,$r3,64(0x40)
  20b104:	29c0c065 	st.d	$r5,$r3,48(0x30)
  20b108:	29c08065 	st.d	$r5,$r3,32(0x20)
  20b10c:	02c40085 	addi.d	$r5,$r4,256(0x100)
  20b110:	29c06065 	st.d	$r5,$r3,24(0x18)
  20b114:	1a0001a5 	pcalau12i	$r5,13(0xd)
  20b118:	02e980a5 	addi.d	$r5,$r5,-1440(0xa60)
  20b11c:	29c04065 	st.d	$r5,$r3,16(0x10)
  20b120:	29c02064 	st.d	$r4,$r3,8(0x8)
  20b124:	02c4c084 	addi.d	$r4,$r4,304(0x130)
  20b128:	29c22064 	st.d	$r4,$r3,136(0x88)
  20b12c:	28c0a2c4 	ld.d	$r4,$r22,40(0x28)
  20b130:	28c06087 	ld.d	$r7,$r4,24(0x18)
  20b134:	28c082c4 	ld.d	$r4,$r22,32(0x20)
  20b138:	1a000145 	pcalau12i	$r5,10(0xa)
  20b13c:	02f154a5 	addi.d	$r5,$r5,-939(0xc55)
  20b140:	03802406 	ori	$r6,$r0,0x9
  20b144:	4c0000e1 	jirl	$r1,$r7,0
  20b148:	29026460 	st.b	$r0,$r3,153(0x99)
  20b14c:	29026064 	st.b	$r4,$r3,152(0x98)
  20b150:	29c24076 	st.d	$r22,$r3,144(0x90)
  20b154:	02c24076 	addi.d	$r22,$r3,144(0x90)
  20b158:	1a000124 	pcalau12i	$r4,9(0x9)
  20b15c:	02d78085 	addi.d	$r5,$r4,1504(0x5e0)
  20b160:	03801017 	ori	$r23,$r0,0x4
  20b164:	02c02067 	addi.d	$r7,$r3,8(0x8)
  20b168:	1a0000c4 	pcalau12i	$r4,6(0x6)
  20b16c:	02ef4098 	addi.d	$r24,$r4,-1072(0xbd0)
  20b170:	001502c4 	move	$r4,$r22
  20b174:	001502e6 	move	$r6,$r23
  20b178:	00150308 	move	$r8,$r24
  20b17c:	5446b000 	bl	18096(0x46b0) # 20f82c <_ZN4core3fmt8builders11DebugStruct5field17h320ddce9d02d7eafE>
  20b180:	1a000124 	pcalau12i	$r4,9(0x9)
  20b184:	02d6d085 	addi.d	$r5,$r4,1460(0x5b4)
  20b188:	02c06067 	addi.d	$r7,$r3,24(0x18)
  20b18c:	001502c4 	move	$r4,$r22
  20b190:	001502e6 	move	$r6,$r23
  20b194:	00150308 	move	$r8,$r24
  20b198:	54469400 	bl	18068(0x4694) # 20f82c <_ZN4core3fmt8builders11DebugStruct5field17h320ddce9d02d7eafE>
  20b19c:	1a000124 	pcalau12i	$r4,9(0x9)
  20b1a0:	02d63085 	addi.d	$r5,$r4,1420(0x58c)
  20b1a4:	02c0a067 	addi.d	$r7,$r3,40(0x28)
  20b1a8:	001502c4 	move	$r4,$r22
  20b1ac:	001502e6 	move	$r6,$r23
  20b1b0:	00150308 	move	$r8,$r24
  20b1b4:	54467800 	bl	18040(0x4678) # 20f82c <_ZN4core3fmt8builders11DebugStruct5field17h320ddce9d02d7eafE>
  20b1b8:	1a000124 	pcalau12i	$r4,9(0x9)
  20b1bc:	02d71085 	addi.d	$r5,$r4,1476(0x5c4)
  20b1c0:	02c0e067 	addi.d	$r7,$r3,56(0x38)
  20b1c4:	001502c4 	move	$r4,$r22
  20b1c8:	001502e6 	move	$r6,$r23
  20b1cc:	00150308 	move	$r8,$r24
  20b1d0:	54465c00 	bl	18012(0x465c) # 20f82c <_ZN4core3fmt8builders11DebugStruct5field17h320ddce9d02d7eafE>
  20b1d4:	1a000124 	pcalau12i	$r4,9(0x9)
  20b1d8:	02d60085 	addi.d	$r5,$r4,1408(0x580)
  20b1dc:	02c12067 	addi.d	$r7,$r3,72(0x48)
  20b1e0:	001502c4 	move	$r4,$r22
  20b1e4:	001502e6 	move	$r6,$r23
  20b1e8:	00150308 	move	$r8,$r24
  20b1ec:	54464000 	bl	17984(0x4640) # 20f82c <_ZN4core3fmt8builders11DebugStruct5field17h320ddce9d02d7eafE>
  20b1f0:	1a000144 	pcalau12i	$r4,10(0xa)
  20b1f4:	02f13485 	addi.d	$r5,$r4,-947(0xc4d)
  20b1f8:	03801406 	ori	$r6,$r0,0x5
  20b1fc:	02c16067 	addi.d	$r7,$r3,88(0x58)
  20b200:	001502c4 	move	$r4,$r22
  20b204:	00150308 	move	$r8,$r24
  20b208:	54462400 	bl	17956(0x4624) # 20f82c <_ZN4core3fmt8builders11DebugStruct5field17h320ddce9d02d7eafE>
  20b20c:	1a000144 	pcalau12i	$r4,10(0xa)
  20b210:	02f14885 	addi.d	$r5,$r4,-942(0xc52)
  20b214:	03800c06 	ori	$r6,$r0,0x3
  20b218:	02c1a067 	addi.d	$r7,$r3,104(0x68)
  20b21c:	001502c4 	move	$r4,$r22
  20b220:	00150308 	move	$r8,$r24
  20b224:	54460800 	bl	17928(0x4608) # 20f82c <_ZN4core3fmt8builders11DebugStruct5field17h320ddce9d02d7eafE>
  20b228:	1a000124 	pcalau12i	$r4,9(0x9)
  20b22c:	02d65085 	addi.d	$r5,$r4,1428(0x594)
  20b230:	02c1e067 	addi.d	$r7,$r3,120(0x78)
  20b234:	001502c4 	move	$r4,$r22
  20b238:	001502e6 	move	$r6,$r23
  20b23c:	00150308 	move	$r8,$r24
  20b240:	5445ec00 	bl	17900(0x45ec) # 20f82c <_ZN4core3fmt8builders11DebugStruct5field17h320ddce9d02d7eafE>
  20b244:	28026064 	ld.b	$r4,$r3,152(0x98)
  20b248:	2a026465 	ld.bu	$r5,$r3,153(0x99)
  20b24c:	400014a0 	beqz	$r5,20(0x14) # 20b260 <_ZN50_$LT$$RF$mut$u20$T$u20$as$u20$core..fmt..Debug$GT$3fmt17h78faa30a2b6505e8E+0x1cc>
  20b250:	0343fc84 	andi	$r4,$r4,0xff
  20b254:	40001880 	beqz	$r4,24(0x18) # 20b26c <_ZN50_$LT$$RF$mut$u20$T$u20$as$u20$core..fmt..Debug$GT$3fmt17h78faa30a2b6505e8E+0x1d8>
  20b258:	03800404 	ori	$r4,$r0,0x1
  20b25c:	50005800 	b	88(0x58) # 20b2b4 <_ZN50_$LT$$RF$mut$u20$T$u20$as$u20$core..fmt..Debug$GT$3fmt17h78faa30a2b6505e8E+0x220>
  20b260:	0343fc84 	andi	$r4,$r4,0xff
  20b264:	00129004 	sltu	$r4,$r0,$r4
  20b268:	50004c00 	b	76(0x4c) # 20b2b4 <_ZN50_$LT$$RF$mut$u20$T$u20$as$u20$core..fmt..Debug$GT$3fmt17h78faa30a2b6505e8E+0x220>
  20b26c:	28c24065 	ld.d	$r5,$r3,144(0x90)
  20b270:	2a00d0a4 	ld.bu	$r4,$r5,52(0x34)
  20b274:	03401084 	andi	$r4,$r4,0x4
  20b278:	44002080 	bnez	$r4,32(0x20) # 20b298 <_ZN50_$LT$$RF$mut$u20$T$u20$as$u20$core..fmt..Debug$GT$3fmt17h78faa30a2b6505e8E+0x204>
  20b27c:	28c080a4 	ld.d	$r4,$r5,32(0x20)
  20b280:	28c0a0a5 	ld.d	$r5,$r5,40(0x28)
  20b284:	28c060a7 	ld.d	$r7,$r5,24(0x18)
  20b288:	1a000165 	pcalau12i	$r5,11(0xb)
  20b28c:	02f824a5 	addi.d	$r5,$r5,-503(0xe09)
  20b290:	03800806 	ori	$r6,$r0,0x2
  20b294:	50001c00 	b	28(0x1c) # 20b2b0 <_ZN50_$LT$$RF$mut$u20$T$u20$as$u20$core..fmt..Debug$GT$3fmt17h78faa30a2b6505e8E+0x21c>
  20b298:	28c080a4 	ld.d	$r4,$r5,32(0x20)
  20b29c:	28c0a0a5 	ld.d	$r5,$r5,40(0x28)
  20b2a0:	28c060a7 	ld.d	$r7,$r5,24(0x18)
  20b2a4:	1a000165 	pcalau12i	$r5,11(0xb)
  20b2a8:	02f820a5 	addi.d	$r5,$r5,-504(0xe08)
  20b2ac:	03800406 	ori	$r6,$r0,0x1
  20b2b0:	4c0000e1 	jirl	$r1,$r7,0
  20b2b4:	28c28078 	ld.d	$r24,$r3,160(0xa0)
  20b2b8:	28c2a077 	ld.d	$r23,$r3,168(0xa8)
  20b2bc:	28c2c076 	ld.d	$r22,$r3,176(0xb0)
  20b2c0:	28c2e061 	ld.d	$r1,$r3,184(0xb8)
  20b2c4:	02c30063 	addi.d	$r3,$r3,192(0xc0)
  20b2c8:	4c000020 	jirl	$r0,$r1,0

000000000020b2cc <_ZN4core3ptr26drop_in_place$LT$usize$GT$17had8f95f3970480beE.123>:
_ZN4core3ptr26drop_in_place$LT$usize$GT$17had8f95f3970480beE.123():
  20b2cc:	4c000020 	jirl	$r0,$r1,0

000000000020b2d0 <_ZN4core3fmt3num52_$LT$impl$u20$core..fmt..Debug$u20$for$u20$usize$GT$3fmt17h2d7d06e1473ae52aE.124>:
_ZN4core3fmt3num52_$LT$impl$u20$core..fmt..Debug$u20$for$u20$usize$GT$3fmt17h2d7d06e1473ae52aE.124():
  20b2d0:	02fdc063 	addi.d	$r3,$r3,-144(0xf70)
  20b2d4:	29c22061 	st.d	$r1,$r3,136(0x88)
  20b2d8:	2a80d0a6 	ld.wu	$r6,$r5,52(0x34)
  20b2dc:	034040c7 	andi	$r7,$r6,0x10
  20b2e0:	440018e0 	bnez	$r7,24(0x18) # 20b2f8 <_ZN4core3fmt3num52_$LT$impl$u20$core..fmt..Debug$u20$for$u20$usize$GT$3fmt17h2d7d06e1473ae52aE.124+0x28>
  20b2e4:	034080c6 	andi	$r6,$r6,0x20
  20b2e8:	44005cc0 	bnez	$r6,92(0x5c) # 20b344 <_ZN4core3fmt3num52_$LT$impl$u20$core..fmt..Debug$u20$for$u20$usize$GT$3fmt17h2d7d06e1473ae52aE.124+0x74>
  20b2ec:	28c22061 	ld.d	$r1,$r3,136(0x88)
  20b2f0:	02c24063 	addi.d	$r3,$r3,144(0x90)
  20b2f4:	5040dc00 	b	16604(0x40dc) # 20f3d0 <_ZN4core3fmt3num3imp52_$LT$impl$u20$core..fmt..Display$u20$for$u20$u64$GT$3fmt17h0b6ebaba01c8b118E>
  20b2f8:	28c0008a 	ld.d	$r10,$r4,0
  20b2fc:	03815c04 	ori	$r4,$r0,0x57
  20b300:	0380c008 	ori	$r8,$r0,0x30
  20b304:	02c02066 	addi.d	$r6,$r3,8(0x8)
  20b308:	03804009 	ori	$r9,$r0,0x10
  20b30c:	00150007 	move	$r7,$r0
  20b310:	0015014b 	move	$r11,$r10
  20b314:	03403d4a 	andi	$r10,$r10,0xf
  20b318:	0240294c 	sltui	$r12,$r10,10(0xa)
  20b31c:	0013b08d 	masknez	$r13,$r4,$r12
  20b320:	0013310c 	maskeqz	$r12,$r8,$r12
  20b324:	0015358c 	or	$r12,$r12,$r13
  20b328:	0010a98a 	add.d	$r10,$r12,$r10
  20b32c:	00109ccc 	add.d	$r12,$r6,$r7
  20b330:	2901fd8a 	st.b	$r10,$r12,127(0x7f)
  20b334:	02fffce7 	addi.d	$r7,$r7,-1(0xfff)
  20b338:	0045116a 	srli.d	$r10,$r11,0x4
  20b33c:	6fffd569 	bgeu	$r11,$r9,-44(0x3ffd4) # 20b310 <_ZN4core3fmt3num52_$LT$impl$u20$core..fmt..Debug$u20$for$u20$usize$GT$3fmt17h2d7d06e1473ae52aE.124+0x40>
  20b340:	50004c00 	b	76(0x4c) # 20b38c <_ZN4core3fmt3num52_$LT$impl$u20$core..fmt..Debug$u20$for$u20$usize$GT$3fmt17h2d7d06e1473ae52aE.124+0xbc>
  20b344:	28c0008a 	ld.d	$r10,$r4,0
  20b348:	0380dc04 	ori	$r4,$r0,0x37
  20b34c:	0380c008 	ori	$r8,$r0,0x30
  20b350:	02c02066 	addi.d	$r6,$r3,8(0x8)
  20b354:	03804009 	ori	$r9,$r0,0x10
  20b358:	00150007 	move	$r7,$r0
  20b35c:	0015014b 	move	$r11,$r10
  20b360:	03403d4a 	andi	$r10,$r10,0xf
  20b364:	0240294c 	sltui	$r12,$r10,10(0xa)
  20b368:	0013b08d 	masknez	$r13,$r4,$r12
  20b36c:	0013310c 	maskeqz	$r12,$r8,$r12
  20b370:	0015358c 	or	$r12,$r12,$r13
  20b374:	0010a98a 	add.d	$r10,$r12,$r10
  20b378:	00109ccc 	add.d	$r12,$r6,$r7
  20b37c:	2901fd8a 	st.b	$r10,$r12,127(0x7f)
  20b380:	02fffce7 	addi.d	$r7,$r7,-1(0xfff)
  20b384:	0045116a 	srli.d	$r10,$r11,0x4
  20b388:	6fffd569 	bgeu	$r11,$r9,-44(0x3ffd4) # 20b35c <_ZN4core3fmt3num52_$LT$impl$u20$core..fmt..Debug$u20$for$u20$usize$GT$3fmt17h2d7d06e1473ae52aE.124+0x8c>
  20b38c:	02c200e4 	addi.d	$r4,$r7,128(0x80)
  20b390:	03820408 	ori	$r8,$r0,0x81
  20b394:	6c003488 	bgeu	$r4,$r8,52(0x34) # 20b3c8 <_ZN4core3fmt3num52_$LT$impl$u20$core..fmt..Debug$u20$for$u20$usize$GT$3fmt17h2d7d06e1473ae52aE.124+0xf8>
  20b398:	00119c08 	sub.d	$r8,$r0,$r7
  20b39c:	00109cc4 	add.d	$r4,$r6,$r7
  20b3a0:	02c20087 	addi.d	$r7,$r4,128(0x80)
  20b3a4:	1a000164 	pcalau12i	$r4,11(0xb)
  20b3a8:	02c59889 	addi.d	$r9,$r4,358(0x166)
  20b3ac:	03800806 	ori	$r6,$r0,0x2
  20b3b0:	001500a4 	move	$r4,$r5
  20b3b4:	00150125 	move	$r5,$r9
  20b3b8:	545a9c00 	bl	23196(0x5a9c) # 210e54 <_ZN4core3fmt9Formatter12pad_integral17hfdb629c44e553f8dE>
  20b3bc:	28c22061 	ld.d	$r1,$r3,136(0x88)
  20b3c0:	02c24063 	addi.d	$r3,$r3,144(0x90)
  20b3c4:	4c000020 	jirl	$r0,$r1,0
  20b3c8:	03820005 	ori	$r5,$r0,0x80
  20b3cc:	1a0001a6 	pcalau12i	$r6,13(0xd)
  20b3d0:	02ccc0c6 	addi.d	$r6,$r6,816(0x330)
  20b3d4:	54519c00 	bl	20892(0x519c) # 210570 <_ZN4core5slice5index26slice_start_index_len_fail17h7935edb336fdba66E>
  20b3d8:	38600400 	amswap.w	$r0,$r1,$r0

000000000020b3dc <_ZN5axhal8platform21qemu_virt_loongarch644misc9terminate17h49dcca1d25a6ae3fE>:
_ZN5axhal8platform21qemu_virt_loongarch644misc9terminate17h49dcca1d25a6ae3fE():
  20b3dc:	02bfec04 	addi.w	$r4,$r0,-5(0xffb)
  20b3e0:	06488001 	idle	0x1
  20b3e4:	04000005 	csrrd	$r5,0x0
  20b3e8:	001490a5 	and	$r5,$r5,$r4
  20b3ec:	04000025 	csrwr	$r5,0x0
  20b3f0:	53fff3ff 	b	-16(0xffffff0) # 20b3e0 <_ZN5axhal8platform21qemu_virt_loongarch644misc9terminate17h49dcca1d25a6ae3fE+0x4>

000000000020b3f4 <_ZN4core5array69_$LT$impl$u20$core..fmt..Debug$u20$for$u20$$u5b$T$u3b$$u20$N$u5d$$GT$3fmt17h8081e332d8df7e34E>:
_ZN4core5array69_$LT$impl$u20$core..fmt..Debug$u20$for$u20$$u5b$T$u3b$$u20$N$u5d$$GT$3fmt17h8081e332d8df7e34E():
  20b3f4:	02fc8063 	addi.d	$r3,$r3,-224(0xf20)
  20b3f8:	29c36061 	st.d	$r1,$r3,216(0xd8)
  20b3fc:	29c34076 	st.d	$r22,$r3,208(0xd0)
  20b400:	29c32077 	st.d	$r23,$r3,200(0xc8)
  20b404:	29c30078 	st.d	$r24,$r3,192(0xc0)
  20b408:	29c2e079 	st.d	$r25,$r3,184(0xb8)
  20b40c:	29c2c07a 	st.d	$r26,$r3,176(0xb0)
  20b410:	29c2a07b 	st.d	$r27,$r3,168(0xa8)
  20b414:	29c2807c 	st.d	$r28,$r3,160(0xa0)
  20b418:	29c2607d 	st.d	$r29,$r3,152(0x98)
  20b41c:	29c2407e 	st.d	$r30,$r3,144(0x90)
  20b420:	29c2207f 	st.d	$r31,$r3,136(0x88)
  20b424:	001500b6 	move	$r22,$r5
  20b428:	00150097 	move	$r23,$r4
  20b42c:	28c080a4 	ld.d	$r4,$r5,32(0x20)
  20b430:	28c0a0a5 	ld.d	$r5,$r5,40(0x28)
  20b434:	28c060a7 	ld.d	$r7,$r5,24(0x18)
  20b438:	1a000165 	pcalau12i	$r5,11(0xb)
  20b43c:	02f834a5 	addi.d	$r5,$r5,-499(0xe0d)
  20b440:	03800418 	ori	$r24,$r0,0x1
  20b444:	00150306 	move	$r6,$r24
  20b448:	4c0000e1 	jirl	$r1,$r7,0
  20b44c:	29c08077 	st.d	$r23,$r3,32(0x20)
  20b450:	02c11c65 	addi.d	$r5,$r3,71(0x47)
  20b454:	29c06065 	st.d	$r5,$r3,24(0x18)
  20b458:	1a0001a5 	pcalau12i	$r5,13(0xd)
  20b45c:	02cb40a5 	addi.d	$r5,$r5,720(0x2d0)
  20b460:	29c04065 	st.d	$r5,$r3,16(0x10)
  20b464:	02c0a065 	addi.d	$r5,$r3,40(0x28)
  20b468:	29c02065 	st.d	$r5,$r3,8(0x8)
  20b46c:	0015031e 	move	$r30,$r24
  20b470:	4400d480 	bnez	$r4,212(0xd4) # 20b544 <_ZN4core5array69_$LT$impl$u20$core..fmt..Debug$u20$for$u20$$u5b$T$u3b$$u20$N$u5d$$GT$3fmt17h8081e332d8df7e34E+0x150>
  20b474:	2a80d2da 	ld.wu	$r26,$r22,52(0x34)
  20b478:	03401344 	andi	$r4,$r26,0x4
  20b47c:	44001480 	bnez	$r4,20(0x14) # 20b490 <_ZN4core5array69_$LT$impl$u20$core..fmt..Debug$u20$for$u20$$u5b$T$u3b$$u20$N$u5d$$GT$3fmt17h8081e332d8df7e34E+0x9c>
  20b480:	02c08064 	addi.d	$r4,$r3,32(0x20)
  20b484:	001502c5 	move	$r5,$r22
  20b488:	5473e800 	bl	29672(0x73e8) # 212870 <_ZN42_$LT$$RF$T$u20$as$u20$core..fmt..Debug$GT$3fmt17h09940e53e85de4dbE>
  20b48c:	5000b400 	b	180(0xb4) # 20b540 <_ZN4core5array69_$LT$impl$u20$core..fmt..Debug$u20$for$u20$$u5b$T$u3b$$u20$N$u5d$$GT$3fmt17h8081e332d8df7e34E+0x14c>
  20b490:	28c082d9 	ld.d	$r25,$r22,32(0x20)
  20b494:	28c0a2db 	ld.d	$r27,$r22,40(0x28)
  20b498:	28c06367 	ld.d	$r7,$r27,24(0x18)
  20b49c:	1a000144 	pcalau12i	$r4,10(0xa)
  20b4a0:	02c99485 	addi.d	$r5,$r4,613(0x265)
  20b4a4:	0380041e 	ori	$r30,$r0,0x1
  20b4a8:	00150324 	move	$r4,$r25
  20b4ac:	001503c6 	move	$r6,$r30
  20b4b0:	4c0000e1 	jirl	$r1,$r7,0
  20b4b4:	44009080 	bnez	$r4,144(0x90) # 20b544 <_ZN4core5array69_$LT$impl$u20$core..fmt..Debug$u20$for$u20$$u5b$T$u3b$$u20$N$u5d$$GT$3fmt17h8081e332d8df7e34E+0x150>
  20b4b8:	0380041e 	ori	$r30,$r0,0x1
  20b4bc:	29011c7e 	st.b	$r30,$r3,71(0x47)
  20b4c0:	28c06064 	ld.d	$r4,$r3,24(0x18)
  20b4c4:	29c0e064 	st.d	$r4,$r3,56(0x38)
  20b4c8:	29c0c07b 	st.d	$r27,$r3,48(0x30)
  20b4cc:	29c0a079 	st.d	$r25,$r3,40(0x28)
  20b4d0:	28c002c4 	ld.d	$r4,$r22,0
  20b4d4:	28c022c5 	ld.d	$r5,$r22,8(0x8)
  20b4d8:	28c042c6 	ld.d	$r6,$r22,16(0x10)
  20b4dc:	28c062c7 	ld.d	$r7,$r22,24(0x18)
  20b4e0:	2880c2c8 	ld.w	$r8,$r22,48(0x30)
  20b4e4:	2800e2c9 	ld.b	$r9,$r22,56(0x38)
  20b4e8:	29020069 	st.b	$r9,$r3,128(0x80)
  20b4ec:	2981e068 	st.w	$r8,$r3,120(0x78)
  20b4f0:	2981f07a 	st.w	$r26,$r3,124(0x7c)
  20b4f4:	28c04068 	ld.d	$r8,$r3,16(0x10)
  20b4f8:	29c1c068 	st.d	$r8,$r3,112(0x70)
  20b4fc:	28c02068 	ld.d	$r8,$r3,8(0x8)
  20b500:	29c1a068 	st.d	$r8,$r3,104(0x68)
  20b504:	29c18067 	st.d	$r7,$r3,96(0x60)
  20b508:	29c16066 	st.d	$r6,$r3,88(0x58)
  20b50c:	29c14065 	st.d	$r5,$r3,80(0x50)
  20b510:	29c12064 	st.d	$r4,$r3,72(0x48)
  20b514:	02c08064 	addi.d	$r4,$r3,32(0x20)
  20b518:	02c12065 	addi.d	$r5,$r3,72(0x48)
  20b51c:	54735400 	bl	29524(0x7354) # 212870 <_ZN42_$LT$$RF$T$u20$as$u20$core..fmt..Debug$GT$3fmt17h09940e53e85de4dbE>
  20b520:	44002480 	bnez	$r4,36(0x24) # 20b544 <_ZN4core5array69_$LT$impl$u20$core..fmt..Debug$u20$for$u20$$u5b$T$u3b$$u20$N$u5d$$GT$3fmt17h8081e332d8df7e34E+0x150>
  20b524:	28c1c064 	ld.d	$r4,$r3,112(0x70)
  20b528:	28c06087 	ld.d	$r7,$r4,24(0x18)
  20b52c:	28c1a064 	ld.d	$r4,$r3,104(0x68)
  20b530:	1a000145 	pcalau12i	$r5,10(0xa)
  20b534:	02c980a5 	addi.d	$r5,$r5,608(0x260)
  20b538:	03800806 	ori	$r6,$r0,0x2
  20b53c:	4c0000e1 	jirl	$r1,$r7,0
  20b540:	0015009e 	move	$r30,$r4
  20b544:	0380201f 	ori	$r31,$r0,0x8
  20b548:	0384001d 	ori	$r29,$r0,0x100
  20b54c:	1a000144 	pcalau12i	$r4,10(0xa)
  20b550:	02c96c99 	addi.d	$r25,$r4,603(0x25b)
  20b554:	0380081a 	ori	$r26,$r0,0x2
  20b558:	02c0807b 	addi.d	$r27,$r3,32(0x20)
  20b55c:	02c1207c 	addi.d	$r28,$r3,72(0x48)
  20b560:	1a000144 	pcalau12i	$r4,10(0xa)
  20b564:	02c98084 	addi.d	$r4,$r4,608(0x260)
  20b568:	29c00064 	st.d	$r4,$r3,0
  20b56c:	50001000 	b	16(0x10) # 20b57c <_ZN4core5array69_$LT$impl$u20$core..fmt..Debug$u20$for$u20$$u5b$T$u3b$$u20$N$u5d$$GT$3fmt17h8081e332d8df7e34E+0x188>
  20b570:	0015031e 	move	$r30,$r24
  20b574:	02c023ff 	addi.d	$r31,$r31,8(0x8)
  20b578:	5800ebfd 	beq	$r31,$r29,232(0xe8) # 20b660 <_ZN4core5array69_$LT$impl$u20$core..fmt..Debug$u20$for$u20$$u5b$T$u3b$$u20$N$u5d$$GT$3fmt17h8081e332d8df7e34E+0x26c>
  20b57c:	0010fee4 	add.d	$r4,$r23,$r31
  20b580:	29c08064 	st.d	$r4,$r3,32(0x20)
  20b584:	034007c4 	andi	$r4,$r30,0x1
  20b588:	0015031e 	move	$r30,$r24
  20b58c:	47ffe89f 	bnez	$r4,-24(0x7fffe8) # 20b574 <_ZN4core5array69_$LT$impl$u20$core..fmt..Debug$u20$for$u20$$u5b$T$u3b$$u20$N$u5d$$GT$3fmt17h8081e332d8df7e34E+0x180>
  20b590:	2a80d2c4 	ld.wu	$r4,$r22,52(0x34)
  20b594:	03401085 	andi	$r5,$r4,0x4
  20b598:	440038a0 	bnez	$r5,56(0x38) # 20b5d0 <_ZN4core5array69_$LT$impl$u20$core..fmt..Debug$u20$for$u20$$u5b$T$u3b$$u20$N$u5d$$GT$3fmt17h8081e332d8df7e34E+0x1dc>
  20b59c:	28c082c4 	ld.d	$r4,$r22,32(0x20)
  20b5a0:	28c0a2c5 	ld.d	$r5,$r22,40(0x28)
  20b5a4:	28c060a7 	ld.d	$r7,$r5,24(0x18)
  20b5a8:	00150325 	move	$r5,$r25
  20b5ac:	00150346 	move	$r6,$r26
  20b5b0:	4c0000e1 	jirl	$r1,$r7,0
  20b5b4:	0015031e 	move	$r30,$r24
  20b5b8:	47ffbc9f 	bnez	$r4,-68(0x7fffbc) # 20b574 <_ZN4core5array69_$LT$impl$u20$core..fmt..Debug$u20$for$u20$$u5b$T$u3b$$u20$N$u5d$$GT$3fmt17h8081e332d8df7e34E+0x180>
  20b5bc:	00150364 	move	$r4,$r27
  20b5c0:	001502c5 	move	$r5,$r22
  20b5c4:	5472ac00 	bl	29356(0x72ac) # 212870 <_ZN42_$LT$$RF$T$u20$as$u20$core..fmt..Debug$GT$3fmt17h09940e53e85de4dbE>
  20b5c8:	0015009e 	move	$r30,$r4
  20b5cc:	53ffabff 	b	-88(0xfffffa8) # 20b574 <_ZN4core5array69_$LT$impl$u20$core..fmt..Debug$u20$for$u20$$u5b$T$u3b$$u20$N$u5d$$GT$3fmt17h8081e332d8df7e34E+0x180>
  20b5d0:	28c082c5 	ld.d	$r5,$r22,32(0x20)
  20b5d4:	28c0a2c6 	ld.d	$r6,$r22,40(0x28)
  20b5d8:	29011c78 	st.b	$r24,$r3,71(0x47)
  20b5dc:	28c06067 	ld.d	$r7,$r3,24(0x18)
  20b5e0:	29c0e067 	st.d	$r7,$r3,56(0x38)
  20b5e4:	29c0c066 	st.d	$r6,$r3,48(0x30)
  20b5e8:	29c0a065 	st.d	$r5,$r3,40(0x28)
  20b5ec:	28c002c5 	ld.d	$r5,$r22,0
  20b5f0:	28c022c6 	ld.d	$r6,$r22,8(0x8)
  20b5f4:	28c042c7 	ld.d	$r7,$r22,16(0x10)
  20b5f8:	28c062c8 	ld.d	$r8,$r22,24(0x18)
  20b5fc:	2880c2c9 	ld.w	$r9,$r22,48(0x30)
  20b600:	2800e2ca 	ld.b	$r10,$r22,56(0x38)
  20b604:	2902006a 	st.b	$r10,$r3,128(0x80)
  20b608:	2981e069 	st.w	$r9,$r3,120(0x78)
  20b60c:	2981f064 	st.w	$r4,$r3,124(0x7c)
  20b610:	28c04064 	ld.d	$r4,$r3,16(0x10)
  20b614:	29c1c064 	st.d	$r4,$r3,112(0x70)
  20b618:	28c02064 	ld.d	$r4,$r3,8(0x8)
  20b61c:	29c1a064 	st.d	$r4,$r3,104(0x68)
  20b620:	29c18068 	st.d	$r8,$r3,96(0x60)
  20b624:	29c16067 	st.d	$r7,$r3,88(0x58)
  20b628:	29c14066 	st.d	$r6,$r3,80(0x50)
  20b62c:	29c12065 	st.d	$r5,$r3,72(0x48)
  20b630:	00150364 	move	$r4,$r27
  20b634:	00150385 	move	$r5,$r28
  20b638:	54723800 	bl	29240(0x7238) # 212870 <_ZN42_$LT$$RF$T$u20$as$u20$core..fmt..Debug$GT$3fmt17h09940e53e85de4dbE>
  20b63c:	47ff349f 	bnez	$r4,-204(0x7fff34) # 20b570 <_ZN4core5array69_$LT$impl$u20$core..fmt..Debug$u20$for$u20$$u5b$T$u3b$$u20$N$u5d$$GT$3fmt17h8081e332d8df7e34E+0x17c>
  20b640:	28c1c064 	ld.d	$r4,$r3,112(0x70)
  20b644:	28c06087 	ld.d	$r7,$r4,24(0x18)
  20b648:	28c1a064 	ld.d	$r4,$r3,104(0x68)
  20b64c:	28c00065 	ld.d	$r5,$r3,0
  20b650:	00150346 	move	$r6,$r26
  20b654:	4c0000e1 	jirl	$r1,$r7,0
  20b658:	0015009e 	move	$r30,$r4
  20b65c:	53ff1bff 	b	-232(0xfffff18) # 20b574 <_ZN4core5array69_$LT$impl$u20$core..fmt..Debug$u20$for$u20$$u5b$T$u3b$$u20$N$u5d$$GT$3fmt17h8081e332d8df7e34E+0x180>
  20b660:	40000fc0 	beqz	$r30,12(0xc) # 20b66c <_ZN4core5array69_$LT$impl$u20$core..fmt..Debug$u20$for$u20$$u5b$T$u3b$$u20$N$u5d$$GT$3fmt17h8081e332d8df7e34E+0x278>
  20b664:	03800404 	ori	$r4,$r0,0x1
  20b668:	50002000 	b	32(0x20) # 20b688 <_ZN4core5array69_$LT$impl$u20$core..fmt..Debug$u20$for$u20$$u5b$T$u3b$$u20$N$u5d$$GT$3fmt17h8081e332d8df7e34E+0x294>
  20b66c:	28c082c4 	ld.d	$r4,$r22,32(0x20)
  20b670:	28c0a2c5 	ld.d	$r5,$r22,40(0x28)
  20b674:	28c060a7 	ld.d	$r7,$r5,24(0x18)
  20b678:	1a000165 	pcalau12i	$r5,11(0xb)
  20b67c:	02f838a5 	addi.d	$r5,$r5,-498(0xe0e)
  20b680:	03800406 	ori	$r6,$r0,0x1
  20b684:	4c0000e1 	jirl	$r1,$r7,0
  20b688:	28c2207f 	ld.d	$r31,$r3,136(0x88)
  20b68c:	28c2407e 	ld.d	$r30,$r3,144(0x90)
  20b690:	28c2607d 	ld.d	$r29,$r3,152(0x98)
  20b694:	28c2807c 	ld.d	$r28,$r3,160(0xa0)
  20b698:	28c2a07b 	ld.d	$r27,$r3,168(0xa8)
  20b69c:	28c2c07a 	ld.d	$r26,$r3,176(0xb0)
  20b6a0:	28c2e079 	ld.d	$r25,$r3,184(0xb8)
  20b6a4:	28c30078 	ld.d	$r24,$r3,192(0xc0)
  20b6a8:	28c32077 	ld.d	$r23,$r3,200(0xc8)
  20b6ac:	28c34076 	ld.d	$r22,$r3,208(0xd0)
  20b6b0:	28c36061 	ld.d	$r1,$r3,216(0xd8)
  20b6b4:	02c38063 	addi.d	$r3,$r3,224(0xe0)
  20b6b8:	4c000020 	jirl	$r0,$r1,0

000000000020b6bc <_ZN5axhal8platform21qemu_virt_loongarch644boot8init_mmu17h4e4aba794a36b19fE>:
_ZN5axhal8platform21qemu_virt_loongarch644boot8init_mmu17h4e4aba794a36b19fE():
  20b6bc:	1427c9a4 	lu12i.w	$r4,81485(0x13e4d)
  20b6c0:	0394b084 	ori	$r4,$r4,0x52c
  20b6c4:	04007005 	csrrd	$r5,0x1c
  20b6c8:	009d0085 	bstrins.d	$r5,$r4,0x1d,0x0
  20b6cc:	04007025 	csrwr	$r5,0x1c
  20b6d0:	04007404 	csrrd	$r4,0x1d
  20b6d4:	15fe07e5 	lu12i.w	$r5,-4033(0xff03f)
  20b6d8:	00149484 	and	$r4,$r4,$r5
  20b6dc:	03899c84 	ori	$r4,$r4,0x267
  20b6e0:	04007424 	csrwr	$r4,0x1d
  20b6e4:	4c000020 	jirl	$r0,$r1,0

000000000020b6e8 <_ZN44_$LT$$RF$T$u20$as$u20$core..fmt..Display$GT$3fmt17h85b251bfe2240ad7E>:
_ZN44_$LT$$RF$T$u20$as$u20$core..fmt..Display$GT$3fmt17h85b251bfe2240ad7E():
  20b6e8:	28c0a0a7 	ld.d	$r7,$r5,40(0x28)
  20b6ec:	28c080a5 	ld.d	$r5,$r5,32(0x20)
  20b6f0:	28c00086 	ld.d	$r6,$r4,0
  20b6f4:	001500a4 	move	$r4,$r5
  20b6f8:	001500e5 	move	$r5,$r7
  20b6fc:	5054e800 	b	21736(0x54e8) # 210be4 <_ZN4core3fmt5write17hf855db0f875ea3deE>

000000000020b700 <_ZN42_$LT$axlog..Logger$u20$as$u20$log..Log$GT$3log17h6803a3c0060c5155E>:
_ZN42_$LT$axlog..Logger$u20$as$u20$log..Log$GT$3log17h6803a3c0060c5155E():
  20b700:	02f48063 	addi.d	$r3,$r3,-736(0xd20)
  20b704:	29cb6061 	st.d	$r1,$r3,728(0x2d8)
  20b708:	29cb4076 	st.d	$r22,$r3,720(0x2d0)
  20b70c:	28c0c0a4 	ld.d	$r4,$r5,48(0x30)
  20b710:	2a8120a6 	ld.wu	$r6,$r5,72(0x48)
  20b714:	024004c6 	sltui	$r6,$r6,1(0x1)
  20b718:	288130a7 	ld.w	$r7,$r5,76(0x4c)
  20b71c:	001398e7 	masknez	$r7,$r7,$r6
  20b720:	00131806 	maskeqz	$r6,$r0,$r6
  20b724:	00151cc6 	or	$r6,$r6,$r7
  20b728:	29803066 	st.w	$r6,$r3,12(0xc)
  20b72c:	28c0e0a6 	ld.d	$r6,$r5,56(0x38)
  20b730:	28c100a7 	ld.d	$r7,$r5,64(0x40)
  20b734:	29c06067 	st.d	$r7,$r3,24(0x18)
  20b738:	29c04066 	st.d	$r6,$r3,16(0x10)
  20b73c:	14484046 	lu12i.w	$r6,147970(0x24202)
  20b740:	03847cc6 	ori	$r6,$r6,0x11f
  20b744:	16000b46 	lu32i.d	$r6,90(0x5a)
  20b748:	00410c84 	slli.d	$r4,$r4,0x3
  20b74c:	02ffe084 	addi.d	$r4,$r4,-8(0xff8)
  20b750:	001910c4 	srl.d	$r4,$r6,$r4
  20b754:	1a000e26 	pcalau12i	$r6,113(0x71)
  20b758:	02d020c6 	addi.d	$r6,$r6,1032(0x408)
  20b75c:	28c000c6 	ld.d	$r6,$r6,0
  20b760:	14d6bf86 	lu12i.w	$r6,439804(0x6b5fc)
  20b764:	03a9acc6 	ori	$r6,$r6,0xa6b
  20b768:	38720000 	dbar	0x0
  20b76c:	04010807 	csrrd	$r7,0x42
  20b770:	00df00e7 	bstrpick.d	$r7,$r7,0x1f,0x0
  20b774:	001d98e6 	mul.d	$r6,$r7,$r6
  20b778:	03819008 	ori	$r8,$r0,0x64
  20b77c:	001da0e7 	mul.d	$r7,$r7,$r8
  20b780:	29c08060 	st.d	$r0,$r3,32(0x20)
  20b784:	0045d8c6 	srli.d	$r6,$r6,0x36
  20b788:	29c26066 	st.d	$r6,$r3,152(0x98)
  20b78c:	14773586 	lu12i.w	$r6,244140(0x3b9ac)
  20b790:	03a800c6 	ori	$r6,$r6,0xa00
  20b794:	14e0be88 	lu12i.w	$r8,460276(0x705f4)
  20b798:	0384dd08 	ori	$r8,$r8,0x137
  20b79c:	16001128 	lu32i.d	$r8,137(0x89)
  20b7a0:	001ea0e8 	mulh.du	$r8,$r7,$r8
  20b7a4:	00451508 	srli.d	$r8,$r8,0x5
  20b7a8:	001d9906 	mul.d	$r6,$r8,$r6
  20b7ac:	001198e6 	sub.d	$r6,$r7,$r6
  20b7b0:	1420c487 	lu12i.w	$r7,67108(0x10624)
  20b7b4:	03b74ce7 	ori	$r7,$r7,0xdd3
  20b7b8:	001d9cc6 	mul.d	$r6,$r6,$r7
  20b7bc:	004598c6 	srli.d	$r6,$r6,0x26
  20b7c0:	29829066 	st.w	$r6,$r3,164(0xa4)
  20b7c4:	2903fc64 	st.b	$r4,$r3,255(0xff)
  20b7c8:	1a0001a4 	pcalau12i	$r4,13(0xd)
  20b7cc:	02ee0084 	addi.d	$r4,$r4,-1152(0xb80)
  20b7d0:	29c2a064 	st.d	$r4,$r3,168(0xa8)
  20b7d4:	02c36064 	addi.d	$r4,$r3,216(0xd8)
  20b7d8:	29c2e064 	st.d	$r4,$r3,184(0xb8)
  20b7dc:	1a000004 	pcalau12i	$r4,0
  20b7e0:	02dba084 	addi.d	$r4,$r4,1768(0x6e8)
  20b7e4:	29c3c064 	st.d	$r4,$r3,240(0xf0)
  20b7e8:	02c40064 	addi.d	$r4,$r3,256(0x100)
  20b7ec:	29c3a064 	st.d	$r4,$r3,232(0xe8)
  20b7f0:	02c3fc64 	addi.d	$r4,$r3,255(0xff)
  20b7f4:	29c36064 	st.d	$r4,$r3,216(0xd8)
  20b7f8:	02c140a4 	addi.d	$r4,$r5,80(0x50)
  20b7fc:	29c40064 	st.d	$r4,$r3,256(0x100)
  20b800:	29c32060 	st.d	$r0,$r3,200(0xc8)
  20b804:	03800c05 	ori	$r5,$r0,0x3
  20b808:	29c2c065 	st.d	$r5,$r3,176(0xb0)
  20b80c:	03800804 	ori	$r4,$r0,0x2
  20b810:	29c30064 	st.d	$r4,$r3,192(0xc0)
  20b814:	1a000086 	pcalau12i	$r6,4(0x4)
  20b818:	02cc10c6 	addi.d	$r6,$r6,772(0x304)
  20b81c:	29c38066 	st.d	$r6,$r3,224(0xe0)
  20b820:	1a0000c7 	pcalau12i	$r7,6(0x6)
  20b824:	02f900e7 	addi.d	$r7,$r7,-448(0xe40)
  20b828:	29c24067 	st.d	$r7,$r3,144(0x90)
  20b82c:	02c2a067 	addi.d	$r7,$r3,168(0xa8)
  20b830:	29c22067 	st.d	$r7,$r3,136(0x88)
  20b834:	02c03067 	addi.d	$r7,$r3,12(0xc)
  20b838:	29c1e067 	st.d	$r7,$r3,120(0x78)
  20b83c:	1a000027 	pcalau12i	$r7,1(0x1)
  20b840:	02c190e7 	addi.d	$r7,$r7,100(0x64)
  20b844:	29c1c067 	st.d	$r7,$r3,112(0x70)
  20b848:	02c04067 	addi.d	$r7,$r3,16(0x10)
  20b84c:	29c1a067 	st.d	$r7,$r3,104(0x68)
  20b850:	02c08067 	addi.d	$r7,$r3,32(0x20)
  20b854:	29c16067 	st.d	$r7,$r3,88(0x58)
  20b858:	1a000087 	pcalau12i	$r7,4(0x4)
  20b85c:	02c5f0e7 	addi.d	$r7,$r7,380(0x17c)
  20b860:	29c20067 	st.d	$r7,$r3,128(0x80)
  20b864:	29c14067 	st.d	$r7,$r3,80(0x50)
  20b868:	02c29067 	addi.d	$r7,$r3,164(0xa4)
  20b86c:	29c12067 	st.d	$r7,$r3,72(0x48)
  20b870:	1a000087 	pcalau12i	$r7,4(0x4)
  20b874:	02cf40e7 	addi.d	$r7,$r7,976(0x3d0)
  20b878:	29c18067 	st.d	$r7,$r3,96(0x60)
  20b87c:	29c10067 	st.d	$r7,$r3,64(0x40)
  20b880:	02c26067 	addi.d	$r7,$r3,152(0x98)
  20b884:	29c0e067 	st.d	$r7,$r3,56(0x38)
  20b888:	29c0c066 	st.d	$r6,$r3,48(0x30)
  20b88c:	1a000146 	pcalau12i	$r6,10(0xa)
  20b890:	02f1dcc6 	addi.d	$r6,$r6,-905(0xc77)
  20b894:	29c0a066 	st.d	$r6,$r3,40(0x28)
  20b898:	03801406 	ori	$r6,$r0,0x5
  20b89c:	29c90066 	st.d	$r6,$r3,576(0x240)
  20b8a0:	03808006 	ori	$r6,$r0,0x20
  20b8a4:	001500c7 	move	$r7,$r6
  20b8a8:	16000107 	lu32i.d	$r7,8(0x8)
  20b8ac:	29c68067 	st.d	$r7,$r3,416(0x1a0)
  20b8b0:	03801807 	ori	$r7,$r0,0x6
  20b8b4:	29c9e067 	st.d	$r7,$r3,632(0x278)
  20b8b8:	29c64067 	st.d	$r7,$r3,400(0x190)
  20b8bc:	03800407 	ori	$r7,$r0,0x1
  20b8c0:	2905c067 	st.b	$r7,$r3,368(0x170)
  20b8c4:	29c58067 	st.d	$r7,$r3,352(0x160)
  20b8c8:	290a2065 	st.b	$r5,$r3,648(0x288)
  20b8cc:	29094065 	st.b	$r5,$r3,592(0x250)
  20b8d0:	29086065 	st.b	$r5,$r3,536(0x218)
  20b8d4:	29078065 	st.b	$r5,$r3,480(0x1e0)
  20b8d8:	29c74065 	st.d	$r5,$r3,464(0x1d0)
  20b8dc:	2906a065 	st.b	$r5,$r3,424(0x1a8)
  20b8e0:	29c56065 	st.d	$r5,$r3,344(0x158)
  20b8e4:	2904e065 	st.b	$r5,$r3,312(0x138)
  20b8e8:	29ca0066 	st.d	$r6,$r3,640(0x280)
  20b8ec:	29c92066 	st.d	$r6,$r3,584(0x248)
  20b8f0:	29c84066 	st.d	$r6,$r3,528(0x210)
  20b8f4:	29c76066 	st.d	$r6,$r3,472(0x1d8)
  20b8f8:	29c5a066 	st.d	$r6,$r3,360(0x168)
  20b8fc:	29c4c066 	st.d	$r6,$r3,304(0x130)
  20b900:	29c9a064 	st.d	$r4,$r3,616(0x268)
  20b904:	29c96064 	st.d	$r4,$r3,600(0x258)
  20b908:	29c8c064 	st.d	$r4,$r3,560(0x230)
  20b90c:	29c88064 	st.d	$r4,$r3,544(0x220)
  20b910:	29c7e064 	st.d	$r4,$r3,504(0x1f8)
  20b914:	29c7a064 	st.d	$r4,$r3,488(0x1e8)
  20b918:	29c70064 	st.d	$r4,$r3,448(0x1c0)
  20b91c:	29c6c064 	st.d	$r4,$r3,432(0x1b0)
  20b920:	29c66064 	st.d	$r4,$r3,408(0x198)
  20b924:	29c5e064 	st.d	$r4,$r3,376(0x178)
  20b928:	29c50064 	st.d	$r4,$r3,320(0x140)
  20b92c:	29c46064 	st.d	$r4,$r3,280(0x118)
  20b930:	29c42064 	st.d	$r4,$r3,264(0x108)
  20b934:	03801016 	ori	$r22,$r0,0x4
  20b938:	29c82076 	st.d	$r22,$r3,520(0x208)
  20b93c:	29c62060 	st.d	$r0,$r3,392(0x188)
  20b940:	29c54060 	st.d	$r0,$r3,336(0x150)
  20b944:	29c4a060 	st.d	$r0,$r3,296(0x128)
  20b948:	00150004 	move	$r4,$r0
  20b94c:	040002c4 	csrxchg	$r4,$r22,0x0
  20b950:	02cb2064 	addi.d	$r4,$r3,712(0x2c8)
  20b954:	29ca4064 	st.d	$r4,$r3,656(0x290)
  20b958:	02c42064 	addi.d	$r4,$r3,264(0x108)
  20b95c:	29cae064 	st.d	$r4,$r3,696(0x2b8)
  20b960:	03801c04 	ori	$r4,$r0,0x7
  20b964:	29cb0064 	st.d	$r4,$r3,704(0x2c0)
  20b968:	29cac064 	st.d	$r4,$r3,688(0x2b0)
  20b96c:	02c0a064 	addi.d	$r4,$r3,40(0x28)
  20b970:	29caa064 	st.d	$r4,$r3,680(0x2a8)
  20b974:	03802004 	ori	$r4,$r0,0x8
  20b978:	29ca8064 	st.d	$r4,$r3,672(0x2a0)
  20b97c:	1a0001a4 	pcalau12i	$r4,13(0xd)
  20b980:	02eec084 	addi.d	$r4,$r4,-1104(0xbb0)
  20b984:	29ca6064 	st.d	$r4,$r3,664(0x298)
  20b988:	02ca4064 	addi.d	$r4,$r3,656(0x290)
  20b98c:	1a0001a5 	pcalau12i	$r5,13(0xd)
  20b990:	02ed40a5 	addi.d	$r5,$r5,-1200(0xb50)
  20b994:	02ca6066 	addi.d	$r6,$r3,664(0x298)
  20b998:	54524c00 	bl	21068(0x524c) # 210be4 <_ZN4core3fmt5write17hf855db0f875ea3deE>
  20b99c:	44001c80 	bnez	$r4,28(0x1c) # 20b9b8 <_ZN42_$LT$axlog..Logger$u20$as$u20$log..Log$GT$3log17h6803a3c0060c5155E+0x2b8>
  20b9a0:	001502c4 	move	$r4,$r22
  20b9a4:	040002c4 	csrxchg	$r4,$r22,0x0
  20b9a8:	28cb4076 	ld.d	$r22,$r3,720(0x2d0)
  20b9ac:	28cb6061 	ld.d	$r1,$r3,728(0x2d8)
  20b9b0:	02cb8063 	addi.d	$r3,$r3,736(0x2e0)
  20b9b4:	4c000020 	jirl	$r0,$r1,0
  20b9b8:	1a000164 	pcalau12i	$r4,11(0xb)
  20b9bc:	02f96884 	addi.d	$r4,$r4,-422(0xe5a)
  20b9c0:	0380ac05 	ori	$r5,$r0,0x2b
  20b9c4:	02cb2066 	addi.d	$r6,$r3,712(0x2c8)
  20b9c8:	1a0001a7 	pcalau12i	$r7,13(0xd)
  20b9cc:	02f0c0e7 	addi.d	$r7,$r7,-976(0xc30)
  20b9d0:	1a0001a8 	pcalau12i	$r8,13(0xd)
  20b9d4:	02f14108 	addi.d	$r8,$r8,-944(0xc50)
  20b9d8:	54484000 	bl	18496(0x4840) # 210218 <_ZN4core6result13unwrap_failed17h1feb0e9befb8d2f9E>
  20b9dc:	38600400 	amswap.w	$r0,$r1,$r0

000000000020b9e0 <_ZN50_$LT$$RF$mut$u20$W$u20$as$u20$core..fmt..Write$GT$9write_str17hf1960dc2dca70a14E>:
_ZN50_$LT$$RF$mut$u20$W$u20$as$u20$core..fmt..Write$GT$9write_str17hf1960dc2dca70a14E():
  20b9e0:	400098c0 	beqz	$r6,152(0x98) # 20ba78 <_ZN50_$LT$$RF$mut$u20$W$u20$as$u20$core..fmt..Write$GT$9write_str17hf1960dc2dca70a14E+0x98>
  20b9e4:	001098a4 	add.d	$r4,$r5,$r6
  20b9e8:	03801006 	ori	$r6,$r0,0x4
  20b9ec:	03802807 	ori	$r7,$r0,0xa
  20b9f0:	03803408 	ori	$r8,$r0,0xd
  20b9f4:	50002000 	b	32(0x20) # 20ba14 <_ZN50_$LT$$RF$mut$u20$W$u20$as$u20$core..fmt..Write$GT$9write_str17hf1960dc2dca70a14E+0x34>
  20b9f8:	02c004a5 	addi.d	$r5,$r5,1(0x1)
  20b9fc:	143fc00a 	lu12i.w	$r10,130560(0x1fe00)
  20ba00:	0387814a 	ori	$r10,$r10,0x1e0
  20ba04:	29000149 	st.b	$r9,$r10,0
  20ba08:	001500c9 	move	$r9,$r6
  20ba0c:	040000c9 	csrxchg	$r9,$r6,0x0
  20ba10:	580068a4 	beq	$r5,$r4,104(0x68) # 20ba78 <_ZN50_$LT$$RF$mut$u20$W$u20$as$u20$core..fmt..Write$GT$9write_str17hf1960dc2dca70a14E+0x98>
  20ba14:	2a0000a9 	ld.bu	$r9,$r5,0
  20ba18:	0015000a 	move	$r10,$r0
  20ba1c:	040000ca 	csrxchg	$r10,$r6,0x0
  20ba20:	5c004127 	bne	$r9,$r7,64(0x40) # 20ba60 <_ZN50_$LT$$RF$mut$u20$W$u20$as$u20$core..fmt..Write$GT$9write_str17hf1960dc2dca70a14E+0x80>
  20ba24:	143fc009 	lu12i.w	$r9,130560(0x1fe00)
  20ba28:	03879529 	ori	$r9,$r9,0x1e5
  20ba2c:	2a000129 	ld.bu	$r9,$r9,0
  20ba30:	03408129 	andi	$r9,$r9,0x20
  20ba34:	43fff13f 	beqz	$r9,-16(0x7ffff0) # 20ba24 <_ZN50_$LT$$RF$mut$u20$W$u20$as$u20$core..fmt..Write$GT$9write_str17hf1960dc2dca70a14E+0x44>
  20ba38:	143fc009 	lu12i.w	$r9,130560(0x1fe00)
  20ba3c:	03878129 	ori	$r9,$r9,0x1e0
  20ba40:	29000128 	st.b	$r8,$r9,0
  20ba44:	143fc009 	lu12i.w	$r9,130560(0x1fe00)
  20ba48:	03879529 	ori	$r9,$r9,0x1e5
  20ba4c:	2a000129 	ld.bu	$r9,$r9,0
  20ba50:	03408129 	andi	$r9,$r9,0x20
  20ba54:	43fff13f 	beqz	$r9,-16(0x7ffff0) # 20ba44 <_ZN50_$LT$$RF$mut$u20$W$u20$as$u20$core..fmt..Write$GT$9write_str17hf1960dc2dca70a14E+0x64>
  20ba58:	001500e9 	move	$r9,$r7
  20ba5c:	53ff9fff 	b	-100(0xfffff9c) # 20b9f8 <_ZN50_$LT$$RF$mut$u20$W$u20$as$u20$core..fmt..Write$GT$9write_str17hf1960dc2dca70a14E+0x18>
  20ba60:	143fc00a 	lu12i.w	$r10,130560(0x1fe00)
  20ba64:	0387954a 	ori	$r10,$r10,0x1e5
  20ba68:	2a00014a 	ld.bu	$r10,$r10,0
  20ba6c:	0340814a 	andi	$r10,$r10,0x20
  20ba70:	43fff15f 	beqz	$r10,-16(0x7ffff0) # 20ba60 <_ZN50_$LT$$RF$mut$u20$W$u20$as$u20$core..fmt..Write$GT$9write_str17hf1960dc2dca70a14E+0x80>
  20ba74:	53ff87ff 	b	-124(0xfffff84) # 20b9f8 <_ZN50_$LT$$RF$mut$u20$W$u20$as$u20$core..fmt..Write$GT$9write_str17hf1960dc2dca70a14E+0x18>
  20ba78:	00150004 	move	$r4,$r0
  20ba7c:	4c000020 	jirl	$r0,$r1,0

000000000020ba80 <_ZN50_$LT$$RF$mut$u20$W$u20$as$u20$core..fmt..Write$GT$10write_char17hab48a846ca7d5076E>:
_ZN50_$LT$$RF$mut$u20$W$u20$as$u20$core..fmt..Write$GT$10write_char17hab48a846ca7d5076E():
  20ba80:	02ffc063 	addi.d	$r3,$r3,-16(0xff0)
  20ba84:	29803060 	st.w	$r0,$r3,12(0xc)
  20ba88:	00df00a4 	bstrpick.d	$r4,$r5,0x1f,0x0
  20ba8c:	03820006 	ori	$r6,$r0,0x80
  20ba90:	6c001086 	bgeu	$r4,$r6,16(0x10) # 20baa0 <_ZN50_$LT$$RF$mut$u20$W$u20$as$u20$core..fmt..Write$GT$10write_char17hab48a846ca7d5076E+0x20>
  20ba94:	29003065 	st.b	$r5,$r3,12(0xc)
  20ba98:	03800406 	ori	$r6,$r0,0x1
  20ba9c:	50009800 	b	152(0x98) # 20bb34 <_ZN50_$LT$$RF$mut$u20$W$u20$as$u20$core..fmt..Write$GT$10write_char17hab48a846ca7d5076E+0xb4>
  20baa0:	03a00006 	ori	$r6,$r0,0x800
  20baa4:	6c002086 	bgeu	$r4,$r6,32(0x20) # 20bac4 <_ZN50_$LT$$RF$mut$u20$W$u20$as$u20$core..fmt..Write$GT$10write_char17hab48a846ca7d5076E+0x44>
  20baa8:	03800806 	ori	$r6,$r0,0x2
  20baac:	004518a4 	srli.d	$r4,$r5,0x6
  20bab0:	00bf18c5 	bstrins.d	$r5,$r6,0x3f,0x6
  20bab4:	29003465 	st.b	$r5,$r3,13(0xd)
  20bab8:	03830084 	ori	$r4,$r4,0xc0
  20babc:	29003064 	st.b	$r4,$r3,12(0xc)
  20bac0:	50007400 	b	116(0x74) # 20bb34 <_ZN50_$LT$$RF$mut$u20$W$u20$as$u20$core..fmt..Write$GT$10write_char17hab48a846ca7d5076E+0xb4>
  20bac4:	14000206 	lu12i.w	$r6,16(0x10)
  20bac8:	6c003486 	bgeu	$r4,$r6,52(0x34) # 20bafc <_ZN50_$LT$$RF$mut$u20$W$u20$as$u20$core..fmt..Write$GT$10write_char17hab48a846ca7d5076E+0x7c>
  20bacc:	03800804 	ori	$r4,$r0,0x2
  20bad0:	001500a6 	move	$r6,$r5
  20bad4:	00bf1886 	bstrins.d	$r6,$r4,0x3f,0x6
  20bad8:	29003866 	st.b	$r6,$r3,14(0xe)
  20badc:	004518a6 	srli.d	$r6,$r5,0x6
  20bae0:	00bf1886 	bstrins.d	$r6,$r4,0x3f,0x6
  20bae4:	29003466 	st.b	$r6,$r3,13(0xd)
  20bae8:	004530a4 	srli.d	$r4,$r5,0xc
  20baec:	03838084 	ori	$r4,$r4,0xe0
  20baf0:	29003064 	st.b	$r4,$r3,12(0xc)
  20baf4:	03800c06 	ori	$r6,$r0,0x3
  20baf8:	50003c00 	b	60(0x3c) # 20bb34 <_ZN50_$LT$$RF$mut$u20$W$u20$as$u20$core..fmt..Write$GT$10write_char17hab48a846ca7d5076E+0xb4>
  20bafc:	004530a4 	srli.d	$r4,$r5,0xc
  20bb00:	03800806 	ori	$r6,$r0,0x2
  20bb04:	00bf18c4 	bstrins.d	$r4,$r6,0x3f,0x6
  20bb08:	004518a7 	srli.d	$r7,$r5,0x6
  20bb0c:	00bf18c7 	bstrins.d	$r7,$r6,0x3f,0x6
  20bb10:	004548a8 	srli.d	$r8,$r5,0x12
  20bb14:	00bf18c5 	bstrins.d	$r5,$r6,0x3f,0x6
  20bb18:	29003c65 	st.b	$r5,$r3,15(0xf)
  20bb1c:	29003867 	st.b	$r7,$r3,14(0xe)
  20bb20:	29003464 	st.b	$r4,$r3,13(0xd)
  20bb24:	03807804 	ori	$r4,$r0,0x1e
  20bb28:	00bf0c88 	bstrins.d	$r8,$r4,0x3f,0x3
  20bb2c:	29003068 	st.b	$r8,$r3,12(0xc)
  20bb30:	03801006 	ori	$r6,$r0,0x4
  20bb34:	02c03064 	addi.d	$r4,$r3,12(0xc)
  20bb38:	00109885 	add.d	$r5,$r4,$r6
  20bb3c:	03801006 	ori	$r6,$r0,0x4
  20bb40:	03802807 	ori	$r7,$r0,0xa
  20bb44:	03803408 	ori	$r8,$r0,0xd
  20bb48:	50002000 	b	32(0x20) # 20bb68 <_ZN50_$LT$$RF$mut$u20$W$u20$as$u20$core..fmt..Write$GT$10write_char17hab48a846ca7d5076E+0xe8>
  20bb4c:	02c00484 	addi.d	$r4,$r4,1(0x1)
  20bb50:	143fc00a 	lu12i.w	$r10,130560(0x1fe00)
  20bb54:	0387814a 	ori	$r10,$r10,0x1e0
  20bb58:	29000149 	st.b	$r9,$r10,0
  20bb5c:	001500c9 	move	$r9,$r6
  20bb60:	040000c9 	csrxchg	$r9,$r6,0x0
  20bb64:	58006885 	beq	$r4,$r5,104(0x68) # 20bbcc <_ZN50_$LT$$RF$mut$u20$W$u20$as$u20$core..fmt..Write$GT$10write_char17hab48a846ca7d5076E+0x14c>
  20bb68:	2a000089 	ld.bu	$r9,$r4,0
  20bb6c:	0015000a 	move	$r10,$r0
  20bb70:	040000ca 	csrxchg	$r10,$r6,0x0
  20bb74:	5c004127 	bne	$r9,$r7,64(0x40) # 20bbb4 <_ZN50_$LT$$RF$mut$u20$W$u20$as$u20$core..fmt..Write$GT$10write_char17hab48a846ca7d5076E+0x134>
  20bb78:	143fc009 	lu12i.w	$r9,130560(0x1fe00)
  20bb7c:	03879529 	ori	$r9,$r9,0x1e5
  20bb80:	2a000129 	ld.bu	$r9,$r9,0
  20bb84:	03408129 	andi	$r9,$r9,0x20
  20bb88:	43fff13f 	beqz	$r9,-16(0x7ffff0) # 20bb78 <_ZN50_$LT$$RF$mut$u20$W$u20$as$u20$core..fmt..Write$GT$10write_char17hab48a846ca7d5076E+0xf8>
  20bb8c:	143fc009 	lu12i.w	$r9,130560(0x1fe00)
  20bb90:	03878129 	ori	$r9,$r9,0x1e0
  20bb94:	29000128 	st.b	$r8,$r9,0
  20bb98:	143fc009 	lu12i.w	$r9,130560(0x1fe00)
  20bb9c:	03879529 	ori	$r9,$r9,0x1e5
  20bba0:	2a000129 	ld.bu	$r9,$r9,0
  20bba4:	03408129 	andi	$r9,$r9,0x20
  20bba8:	43fff13f 	beqz	$r9,-16(0x7ffff0) # 20bb98 <_ZN50_$LT$$RF$mut$u20$W$u20$as$u20$core..fmt..Write$GT$10write_char17hab48a846ca7d5076E+0x118>
  20bbac:	001500e9 	move	$r9,$r7
  20bbb0:	53ff9fff 	b	-100(0xfffff9c) # 20bb4c <_ZN50_$LT$$RF$mut$u20$W$u20$as$u20$core..fmt..Write$GT$10write_char17hab48a846ca7d5076E+0xcc>
  20bbb4:	143fc00a 	lu12i.w	$r10,130560(0x1fe00)
  20bbb8:	0387954a 	ori	$r10,$r10,0x1e5
  20bbbc:	2a00014a 	ld.bu	$r10,$r10,0
  20bbc0:	0340814a 	andi	$r10,$r10,0x20
  20bbc4:	43fff15f 	beqz	$r10,-16(0x7ffff0) # 20bbb4 <_ZN50_$LT$$RF$mut$u20$W$u20$as$u20$core..fmt..Write$GT$10write_char17hab48a846ca7d5076E+0x134>
  20bbc8:	53ff87ff 	b	-124(0xfffff84) # 20bb4c <_ZN50_$LT$$RF$mut$u20$W$u20$as$u20$core..fmt..Write$GT$10write_char17hab48a846ca7d5076E+0xcc>
  20bbcc:	00150004 	move	$r4,$r0
  20bbd0:	02c04063 	addi.d	$r3,$r3,16(0x10)
  20bbd4:	4c000020 	jirl	$r0,$r1,0

000000000020bbd8 <_ZN50_$LT$$RF$mut$u20$W$u20$as$u20$core..fmt..Write$GT$9write_fmt17h1fcd8669b780b298E>:
_ZN50_$LT$$RF$mut$u20$W$u20$as$u20$core..fmt..Write$GT$9write_fmt17h1fcd8669b780b298E():
  20bbd8:	02ff0063 	addi.d	$r3,$r3,-64(0xfc0)
  20bbdc:	29c0e061 	st.d	$r1,$r3,56(0x38)
  20bbe0:	28c00084 	ld.d	$r4,$r4,0
  20bbe4:	28c0a0a6 	ld.d	$r6,$r5,40(0x28)
  20bbe8:	29c0c066 	st.d	$r6,$r3,48(0x30)
  20bbec:	28c080a6 	ld.d	$r6,$r5,32(0x20)
  20bbf0:	29c0a066 	st.d	$r6,$r3,40(0x28)
  20bbf4:	28c060a6 	ld.d	$r6,$r5,24(0x18)
  20bbf8:	29c08066 	st.d	$r6,$r3,32(0x20)
  20bbfc:	28c040a6 	ld.d	$r6,$r5,16(0x10)
  20bc00:	29c06066 	st.d	$r6,$r3,24(0x18)
  20bc04:	28c020a6 	ld.d	$r6,$r5,8(0x8)
  20bc08:	29c04066 	st.d	$r6,$r3,16(0x10)
  20bc0c:	28c000a5 	ld.d	$r5,$r5,0
  20bc10:	29c02065 	st.d	$r5,$r3,8(0x8)
  20bc14:	29c00064 	st.d	$r4,$r3,0
  20bc18:	02c00064 	addi.d	$r4,$r3,0
  20bc1c:	1a0001a5 	pcalau12i	$r5,13(0xd)
  20bc20:	02ed40a5 	addi.d	$r5,$r5,-1200(0xb50)
  20bc24:	02c02066 	addi.d	$r6,$r3,8(0x8)
  20bc28:	544fbc00 	bl	20412(0x4fbc) # 210be4 <_ZN4core3fmt5write17hf855db0f875ea3deE>
  20bc2c:	28c0e061 	ld.d	$r1,$r3,56(0x38)
  20bc30:	02c10063 	addi.d	$r3,$r3,64(0x40)
  20bc34:	4c000020 	jirl	$r0,$r1,0

000000000020bc38 <_ZN42_$LT$axlog..Logger$u20$as$u20$log..Log$GT$5flush17hf2920792c7d2097dE>:
_ZN42_$LT$axlog..Logger$u20$as$u20$log..Log$GT$5flush17hf2920792c7d2097dE():
  20bc38:	4c000020 	jirl	$r0,$r1,0

000000000020bc3c <_ZN4core3ptr34drop_in_place$LT$axlog..Logger$GT$17h377a2b92f9f7774cE>:
_ZN4core3ptr34drop_in_place$LT$axlog..Logger$GT$17h377a2b92f9f7774cE():
  20bc3c:	4c000020 	jirl	$r0,$r1,0

000000000020bc40 <_ZN42_$LT$axlog..Logger$u20$as$u20$log..Log$GT$7enabled17h3d3e6b2f40a1270cE>:
_ZN42_$LT$axlog..Logger$u20$as$u20$log..Log$GT$7enabled17h3d3e6b2f40a1270cE():
  20bc40:	03800404 	ori	$r4,$r0,0x1
  20bc44:	4c000020 	jirl	$r0,$r1,0

000000000020bc48 <_ZN42_$LT$$RF$T$u20$as$u20$core..fmt..Debug$GT$3fmt17h14998b72df105cbaE>:
_ZN42_$LT$$RF$T$u20$as$u20$core..fmt..Debug$GT$3fmt17h14998b72df105cbaE():
  20bc48:	02fc8063 	addi.d	$r3,$r3,-224(0xf20)
  20bc4c:	29c36061 	st.d	$r1,$r3,216(0xd8)
  20bc50:	29c34076 	st.d	$r22,$r3,208(0xd0)
  20bc54:	29c32077 	st.d	$r23,$r3,200(0xc8)
  20bc58:	29c30078 	st.d	$r24,$r3,192(0xc0)
  20bc5c:	29c2e079 	st.d	$r25,$r3,184(0xb8)
  20bc60:	29c2c07a 	st.d	$r26,$r3,176(0xb0)
  20bc64:	29c2a07b 	st.d	$r27,$r3,168(0xa8)
  20bc68:	29c2807c 	st.d	$r28,$r3,160(0xa0)
  20bc6c:	29c2607d 	st.d	$r29,$r3,152(0x98)
  20bc70:	29c2407e 	st.d	$r30,$r3,144(0x90)
  20bc74:	29c2207f 	st.d	$r31,$r3,136(0x88)
  20bc78:	28c0209e 	ld.d	$r30,$r4,8(0x8)
  20bc7c:	28c0009d 	ld.d	$r29,$r4,0
  20bc80:	28c080b7 	ld.d	$r23,$r5,32(0x20)
  20bc84:	28c0a0b6 	ld.d	$r22,$r5,40(0x28)
  20bc88:	28c082c6 	ld.d	$r6,$r22,32(0x20)
  20bc8c:	03808805 	ori	$r5,$r0,0x22
  20bc90:	001502e4 	move	$r4,$r23
  20bc94:	29c18066 	st.d	$r6,$r3,96(0x60)
  20bc98:	4c0000c1 	jirl	$r1,$r6,0
  20bc9c:	40003c80 	beqz	$r4,60(0x3c) # 20bcd8 <_ZN42_$LT$$RF$T$u20$as$u20$core..fmt..Debug$GT$3fmt17h14998b72df105cbaE+0x90>
  20bca0:	03800404 	ori	$r4,$r0,0x1
  20bca4:	28c2207f 	ld.d	$r31,$r3,136(0x88)
  20bca8:	28c2407e 	ld.d	$r30,$r3,144(0x90)
  20bcac:	28c2607d 	ld.d	$r29,$r3,152(0x98)
  20bcb0:	28c2807c 	ld.d	$r28,$r3,160(0xa0)
  20bcb4:	28c2a07b 	ld.d	$r27,$r3,168(0xa8)
  20bcb8:	28c2c07a 	ld.d	$r26,$r3,176(0xb0)
  20bcbc:	28c2e079 	ld.d	$r25,$r3,184(0xb8)
  20bcc0:	28c30078 	ld.d	$r24,$r3,192(0xc0)
  20bcc4:	28c32077 	ld.d	$r23,$r3,200(0xc8)
  20bcc8:	28c34076 	ld.d	$r22,$r3,208(0xd0)
  20bccc:	28c36061 	ld.d	$r1,$r3,216(0xd8)
  20bcd0:	02c38063 	addi.d	$r3,$r3,224(0xe0)
  20bcd4:	4c000020 	jirl	$r0,$r1,0
  20bcd8:	400293c0 	beqz	$r30,656(0x290) # 20bf68 <_ZN42_$LT$$RF$T$u20$as$u20$core..fmt..Debug$GT$3fmt17h14998b72df105cbaE+0x320>
  20bcdc:	29c0a076 	st.d	$r22,$r3,40(0x28)
  20bce0:	0010fba4 	add.d	$r4,$r29,$r30
  20bce4:	29c0c064 	st.d	$r4,$r3,48(0x30)
  20bce8:	02bffc04 	addi.w	$r4,$r0,-1(0xfff)
  20bcec:	29c14064 	st.d	$r4,$r3,80(0x50)
  20bcf0:	02c1a064 	addi.d	$r4,$r3,104(0x68)
  20bcf4:	29c12064 	st.d	$r4,$r3,72(0x48)
  20bcf8:	03820016 	ori	$r22,$r0,0x80
  20bcfc:	03800404 	ori	$r4,$r0,0x1
  20bd00:	29c10064 	st.d	$r4,$r3,64(0x40)
  20bd04:	03802804 	ori	$r4,$r0,0xa
  20bd08:	29c16064 	st.d	$r4,$r3,88(0x58)
  20bd0c:	02c1e079 	addi.d	$r25,$r3,120(0x78)
  20bd10:	03800804 	ori	$r4,$r0,0x2
  20bd14:	29c06064 	st.d	$r4,$r3,24(0x18)
  20bd18:	03a00004 	ori	$r4,$r0,0x800
  20bd1c:	29c04064 	st.d	$r4,$r3,16(0x10)
  20bd20:	03801004 	ori	$r4,$r0,0x4
  20bd24:	29c02064 	st.d	$r4,$r3,8(0x8)
  20bd28:	03800c04 	ori	$r4,$r0,0x3
  20bd2c:	29c00064 	st.d	$r4,$r3,0
  20bd30:	0015001c 	move	$r28,$r0
  20bd34:	29c0e07d 	st.d	$r29,$r3,56(0x38)
  20bd38:	0015001a 	move	$r26,$r0
  20bd3c:	29c0807e 	st.d	$r30,$r3,32(0x20)
  20bd40:	50001c00 	b	28(0x1c) # 20bd5c <_ZN42_$LT$$RF$T$u20$as$u20$core..fmt..Debug$GT$3fmt17h14998b72df105cbaE+0x114>
  20bd44:	0010e8bc 	add.d	$r28,$r5,$r26
  20bd48:	28c0807e 	ld.d	$r30,$r3,32(0x20)
  20bd4c:	0011e344 	sub.d	$r4,$r26,$r24
  20bd50:	0010f49a 	add.d	$r26,$r4,$r29
  20bd54:	28c0c064 	ld.d	$r4,$r3,48(0x30)
  20bd58:	580273a4 	beq	$r29,$r4,624(0x270) # 20bfc8 <_ZN42_$LT$$RF$T$u20$as$u20$core..fmt..Debug$GT$3fmt17h14998b72df105cbaE+0x380>
  20bd5c:	001503b8 	move	$r24,$r29
  20bd60:	280003a5 	ld.b	$r5,$r29,0
  20bd64:	28c14064 	ld.d	$r4,$r3,80(0x50)
  20bd68:	64001085 	bge	$r4,$r5,16(0x10) # 20bd78 <_ZN42_$LT$$RF$T$u20$as$u20$core..fmt..Debug$GT$3fmt17h14998b72df105cbaE+0x130>
  20bd6c:	02c0071d 	addi.d	$r29,$r24,1(0x1)
  20bd70:	0343fcbb 	andi	$r27,$r5,0xff
  20bd74:	50006000 	b	96(0x60) # 20bdd4 <_ZN42_$LT$$RF$T$u20$as$u20$core..fmt..Debug$GT$3fmt17h14998b72df105cbaE+0x18c>
  20bd78:	2a00071b 	ld.bu	$r27,$r24,1(0x1)
  20bd7c:	03407ca4 	andi	$r4,$r5,0x1f
  20bd80:	02bf7c06 	addi.w	$r6,$r0,-33(0xfdf)
  20bd84:	6c0038c5 	bgeu	$r6,$r5,56(0x38) # 20bdbc <_ZN42_$LT$$RF$T$u20$as$u20$core..fmt..Debug$GT$3fmt17h14998b72df105cbaE+0x174>
  20bd88:	0340ff67 	andi	$r7,$r27,0x3f
  20bd8c:	2a000b06 	ld.bu	$r6,$r24,2(0x2)
  20bd90:	00bf18e6 	bstrins.d	$r6,$r7,0x3f,0x6
  20bd94:	02bfc007 	addi.w	$r7,$r0,-16(0xff0)
  20bd98:	680030a7 	bltu	$r5,$r7,48(0x30) # 20bdc8 <_ZN42_$LT$$RF$T$u20$as$u20$core..fmt..Debug$GT$3fmt17h14998b72df105cbaE+0x180>
  20bd9c:	00414884 	slli.d	$r4,$r4,0x12
  20bda0:	14003805 	lu12i.w	$r5,448(0x1c0)
  20bda4:	00149484 	and	$r4,$r4,$r5
  20bda8:	2a000f05 	ld.bu	$r5,$r24,3(0x3)
  20bdac:	00bf18c5 	bstrins.d	$r5,$r6,0x3f,0x6
  20bdb0:	001510bb 	or	$r27,$r5,$r4
  20bdb4:	02c0131d 	addi.d	$r29,$r24,4(0x4)
  20bdb8:	50001c00 	b	28(0x1c) # 20bdd4 <_ZN42_$LT$$RF$T$u20$as$u20$core..fmt..Debug$GT$3fmt17h14998b72df105cbaE+0x18c>
  20bdbc:	02c00b1d 	addi.d	$r29,$r24,2(0x2)
  20bdc0:	00bf189b 	bstrins.d	$r27,$r4,0x3f,0x6
  20bdc4:	50001000 	b	16(0x10) # 20bdd4 <_ZN42_$LT$$RF$T$u20$as$u20$core..fmt..Debug$GT$3fmt17h14998b72df105cbaE+0x18c>
  20bdc8:	02c00f1d 	addi.d	$r29,$r24,3(0x3)
  20bdcc:	00413084 	slli.d	$r4,$r4,0xc
  20bdd0:	001510db 	or	$r27,$r6,$r4
  20bdd4:	14000204 	lu12i.w	$r4,16(0x10)
  20bdd8:	03800486 	ori	$r6,$r4,0x1
  20bddc:	28c12064 	ld.d	$r4,$r3,72(0x48)
  20bde0:	00150365 	move	$r5,$r27
  20bde4:	545a7000 	bl	23152(0x5a70) # 211854 <_ZN4core4char7methods22_$LT$impl$u20$char$GT$16escape_debug_ext17h8c68dcdf4f48a4afE.619>
  20bde8:	2a01a064 	ld.bu	$r4,$r3,104(0x68)
  20bdec:	5bff6096 	beq	$r4,$r22,-160(0x3ff60) # 20bd4c <_ZN42_$LT$$RF$T$u20$as$u20$core..fmt..Debug$GT$3fmt17h14998b72df105cbaE+0x104>
  20bdf0:	2801c864 	ld.b	$r4,$r3,114(0x72)
  20bdf4:	2801cc65 	ld.b	$r5,$r3,115(0x73)
  20bdf8:	001190a4 	sub.d	$r4,$r5,$r4
  20bdfc:	0343fc84 	andi	$r4,$r4,0xff
  20be00:	28c10065 	ld.d	$r5,$r3,64(0x40)
  20be04:	5bff4885 	beq	$r4,$r5,-184(0x3ff48) # 20bd4c <_ZN42_$LT$$RF$T$u20$as$u20$core..fmt..Debug$GT$3fmt17h14998b72df105cbaE+0x104>
  20be08:	68021f5c 	bltu	$r26,$r28,540(0x21c) # 20c024 <_ZN42_$LT$$RF$T$u20$as$u20$core..fmt..Debug$GT$3fmt17h14998b72df105cbaE+0x3dc>
  20be0c:	40002380 	beqz	$r28,32(0x20) # 20be2c <_ZN42_$LT$$RF$T$u20$as$u20$core..fmt..Debug$GT$3fmt17h14998b72df105cbaE+0x1e4>
  20be10:	6c001b9e 	bgeu	$r28,$r30,24(0x18) # 20be28 <_ZN42_$LT$$RF$T$u20$as$u20$core..fmt..Debug$GT$3fmt17h14998b72df105cbaE+0x1e0>
  20be14:	28c0e064 	ld.d	$r4,$r3,56(0x38)
  20be18:	38007084 	ldx.b	$r4,$r4,$r28
  20be1c:	02bf0005 	addi.w	$r5,$r0,-64(0xfc0)
  20be20:	64000c85 	bge	$r4,$r5,12(0xc) # 20be2c <_ZN42_$LT$$RF$T$u20$as$u20$core..fmt..Debug$GT$3fmt17h14998b72df105cbaE+0x1e4>
  20be24:	50020000 	b	512(0x200) # 20c024 <_ZN42_$LT$$RF$T$u20$as$u20$core..fmt..Debug$GT$3fmt17h14998b72df105cbaE+0x3dc>
  20be28:	5c01ff9e 	bne	$r28,$r30,508(0x1fc) # 20c024 <_ZN42_$LT$$RF$T$u20$as$u20$core..fmt..Debug$GT$3fmt17h14998b72df105cbaE+0x3dc>
  20be2c:	40002340 	beqz	$r26,32(0x20) # 20be4c <_ZN42_$LT$$RF$T$u20$as$u20$core..fmt..Debug$GT$3fmt17h14998b72df105cbaE+0x204>
  20be30:	6c001b5e 	bgeu	$r26,$r30,24(0x18) # 20be48 <_ZN42_$LT$$RF$T$u20$as$u20$core..fmt..Debug$GT$3fmt17h14998b72df105cbaE+0x200>
  20be34:	28c0e064 	ld.d	$r4,$r3,56(0x38)
  20be38:	38006884 	ldx.b	$r4,$r4,$r26
  20be3c:	02befc05 	addi.w	$r5,$r0,-65(0xfbf)
  20be40:	60000ca4 	blt	$r5,$r4,12(0xc) # 20be4c <_ZN42_$LT$$RF$T$u20$as$u20$core..fmt..Debug$GT$3fmt17h14998b72df105cbaE+0x204>
  20be44:	5001e000 	b	480(0x1e0) # 20c024 <_ZN42_$LT$$RF$T$u20$as$u20$core..fmt..Debug$GT$3fmt17h14998b72df105cbaE+0x3dc>
  20be48:	5c01df5e 	bne	$r26,$r30,476(0x1dc) # 20c024 <_ZN42_$LT$$RF$T$u20$as$u20$core..fmt..Debug$GT$3fmt17h14998b72df105cbaE+0x3dc>
  20be4c:	28c0e064 	ld.d	$r4,$r3,56(0x38)
  20be50:	0010f085 	add.d	$r5,$r4,$r28
  20be54:	0011f346 	sub.d	$r6,$r26,$r28
  20be58:	28c0a064 	ld.d	$r4,$r3,40(0x28)
  20be5c:	28c06087 	ld.d	$r7,$r4,24(0x18)
  20be60:	001502e4 	move	$r4,$r23
  20be64:	4c0000e1 	jirl	$r1,$r7,0
  20be68:	47fe389f 	bnez	$r4,-456(0x7ffe38) # 20bca0 <_ZN42_$LT$$RF$T$u20$as$u20$core..fmt..Debug$GT$3fmt17h14998b72df105cbaE+0x58>
  20be6c:	2881c064 	ld.w	$r4,$r3,112(0x70)
  20be70:	29820064 	st.w	$r4,$r3,128(0x80)
  20be74:	28c1a064 	ld.d	$r4,$r3,104(0x68)
  20be78:	29c1e064 	st.d	$r4,$r3,120(0x78)
  20be7c:	0343fc84 	andi	$r4,$r4,0xff
  20be80:	5c005896 	bne	$r4,$r22,88(0x58) # 20bed8 <_ZN42_$LT$$RF$T$u20$as$u20$core..fmt..Debug$GT$3fmt17h14998b72df105cbaE+0x290>
  20be84:	001502de 	move	$r30,$r22
  20be88:	50002400 	b	36(0x24) # 20beac <_ZN42_$LT$$RF$T$u20$as$u20$core..fmt..Debug$GT$3fmt17h14998b72df105cbaE+0x264>
  20be8c:	29820060 	st.w	$r0,$r3,128(0x80)
  20be90:	2881f065 	ld.w	$r5,$r3,124(0x7c)
  20be94:	29c1e060 	st.d	$r0,$r3,120(0x78)
  20be98:	0015001e 	move	$r30,$r0
  20be9c:	001502e4 	move	$r4,$r23
  20bea0:	28c18066 	ld.d	$r6,$r3,96(0x60)
  20bea4:	4c0000c1 	jirl	$r1,$r6,0
  20bea8:	47fdf89f 	bnez	$r4,-520(0x7ffdf8) # 20bca0 <_ZN42_$LT$$RF$T$u20$as$u20$core..fmt..Debug$GT$3fmt17h14998b72df105cbaE+0x58>
  20beac:	0343ffc4 	andi	$r4,$r30,0xff
  20beb0:	5bffdc96 	beq	$r4,$r22,-36(0x3ffdc) # 20be8c <_ZN42_$LT$$RF$T$u20$as$u20$core..fmt..Debug$GT$3fmt17h14998b72df105cbaE+0x244>
  20beb4:	2a02087c 	ld.bu	$r28,$r3,130(0x82)
  20beb8:	2a020c64 	ld.bu	$r4,$r3,131(0x83)
  20bebc:	6c007784 	bgeu	$r28,$r4,116(0x74) # 20bf30 <_ZN42_$LT$$RF$T$u20$as$u20$core..fmt..Debug$GT$3fmt17h14998b72df105cbaE+0x2e8>
  20bec0:	02c00784 	addi.d	$r4,$r28,1(0x1)
  20bec4:	29020864 	st.b	$r4,$r3,130(0x82)
  20bec8:	28c16064 	ld.d	$r4,$r3,88(0x58)
  20becc:	6c014384 	bgeu	$r28,$r4,320(0x140) # 20c00c <_ZN42_$LT$$RF$T$u20$as$u20$core..fmt..Debug$GT$3fmt17h14998b72df105cbaE+0x3c4>
  20bed0:	38206785 	ldx.bu	$r5,$r28,$r25
  20bed4:	53ffcbff 	b	-56(0xfffffc8) # 20be9c <_ZN42_$LT$$RF$T$u20$as$u20$core..fmt..Debug$GT$3fmt17h14998b72df105cbaE+0x254>
  20bed8:	2a020865 	ld.bu	$r5,$r3,130(0x82)
  20bedc:	28c16066 	ld.d	$r6,$r3,88(0x58)
  20bee0:	001294c4 	sltu	$r4,$r6,$r5
  20bee4:	001390c6 	masknez	$r6,$r6,$r4
  20bee8:	001310a4 	maskeqz	$r4,$r5,$r4
  20beec:	0015189c 	or	$r28,$r4,$r6
  20bef0:	2a020c64 	ld.bu	$r4,$r3,131(0x83)
  20bef4:	001290a6 	sltu	$r6,$r5,$r4
  20bef8:	00131884 	maskeqz	$r4,$r4,$r6
  20befc:	001398a6 	masknez	$r6,$r5,$r6
  20bf00:	0015189e 	or	$r30,$r4,$r6
  20bf04:	58002fc5 	beq	$r30,$r5,44(0x2c) # 20bf30 <_ZN42_$LT$$RF$T$u20$as$u20$core..fmt..Debug$GT$3fmt17h14998b72df105cbaE+0x2e8>
  20bf08:	02c004bf 	addi.d	$r31,$r5,1(0x1)
  20bf0c:	2902087f 	st.b	$r31,$r3,130(0x82)
  20bf10:	5800ff85 	beq	$r28,$r5,252(0xfc) # 20c00c <_ZN42_$LT$$RF$T$u20$as$u20$core..fmt..Debug$GT$3fmt17h14998b72df105cbaE+0x3c4>
  20bf14:	382064a5 	ldx.bu	$r5,$r5,$r25
  20bf18:	001502e4 	move	$r4,$r23
  20bf1c:	28c18066 	ld.d	$r6,$r3,96(0x60)
  20bf20:	4c0000c1 	jirl	$r1,$r6,0
  20bf24:	001503e5 	move	$r5,$r31
  20bf28:	43ffdc9f 	beqz	$r4,-36(0x7fffdc) # 20bf04 <_ZN42_$LT$$RF$T$u20$as$u20$core..fmt..Debug$GT$3fmt17h14998b72df105cbaE+0x2bc>
  20bf2c:	53fd77ff 	b	-652(0xffffd74) # 20bca0 <_ZN42_$LT$$RF$T$u20$as$u20$core..fmt..Debug$GT$3fmt17h14998b72df105cbaE+0x58>
  20bf30:	00df0364 	bstrpick.d	$r4,$r27,0x1f,0x0
  20bf34:	28c10065 	ld.d	$r5,$r3,64(0x40)
  20bf38:	6bfe0c96 	bltu	$r4,$r22,-500(0x3fe0c) # 20bd44 <_ZN42_$LT$$RF$T$u20$as$u20$core..fmt..Debug$GT$3fmt17h14998b72df105cbaE+0xfc>
  20bf3c:	28c06065 	ld.d	$r5,$r3,24(0x18)
  20bf40:	28c04066 	ld.d	$r6,$r3,16(0x10)
  20bf44:	6bfe0086 	bltu	$r4,$r6,-512(0x3fe00) # 20bd44 <_ZN42_$LT$$RF$T$u20$as$u20$core..fmt..Debug$GT$3fmt17h14998b72df105cbaE+0xfc>
  20bf48:	14000205 	lu12i.w	$r5,16(0x10)
  20bf4c:	00129484 	sltu	$r4,$r4,$r5
  20bf50:	28c02065 	ld.d	$r5,$r3,8(0x8)
  20bf54:	001390a5 	masknez	$r5,$r5,$r4
  20bf58:	28c00066 	ld.d	$r6,$r3,0
  20bf5c:	001310c4 	maskeqz	$r4,$r6,$r4
  20bf60:	00151485 	or	$r5,$r4,$r5
  20bf64:	53fde3ff 	b	-544(0xffffde0) # 20bd44 <_ZN42_$LT$$RF$T$u20$as$u20$core..fmt..Debug$GT$3fmt17h14998b72df105cbaE+0xfc>
  20bf68:	0015001c 	move	$r28,$r0
  20bf6c:	0015001e 	move	$r30,$r0
  20bf70:	0010f3a5 	add.d	$r5,$r29,$r28
  20bf74:	28c062c7 	ld.d	$r7,$r22,24(0x18)
  20bf78:	001502e4 	move	$r4,$r23
  20bf7c:	001503c6 	move	$r6,$r30
  20bf80:	4c0000e1 	jirl	$r1,$r7,0
  20bf84:	47fd1c9f 	bnez	$r4,-740(0x7ffd1c) # 20bca0 <_ZN42_$LT$$RF$T$u20$as$u20$core..fmt..Debug$GT$3fmt17h14998b72df105cbaE+0x58>
  20bf88:	03808805 	ori	$r5,$r0,0x22
  20bf8c:	001502e4 	move	$r4,$r23
  20bf90:	28c18066 	ld.d	$r6,$r3,96(0x60)
  20bf94:	28c2207f 	ld.d	$r31,$r3,136(0x88)
  20bf98:	28c2407e 	ld.d	$r30,$r3,144(0x90)
  20bf9c:	28c2607d 	ld.d	$r29,$r3,152(0x98)
  20bfa0:	28c2807c 	ld.d	$r28,$r3,160(0xa0)
  20bfa4:	28c2a07b 	ld.d	$r27,$r3,168(0xa8)
  20bfa8:	28c2c07a 	ld.d	$r26,$r3,176(0xb0)
  20bfac:	28c2e079 	ld.d	$r25,$r3,184(0xb8)
  20bfb0:	28c30078 	ld.d	$r24,$r3,192(0xc0)
  20bfb4:	28c32077 	ld.d	$r23,$r3,200(0xc8)
  20bfb8:	28c34076 	ld.d	$r22,$r3,208(0xd0)
  20bfbc:	28c36061 	ld.d	$r1,$r3,216(0xd8)
  20bfc0:	02c38063 	addi.d	$r3,$r3,224(0xe0)
  20bfc4:	4c0000c0 	jirl	$r0,$r6,0
  20bfc8:	28c0a076 	ld.d	$r22,$r3,40(0x28)
  20bfcc:	40002380 	beqz	$r28,32(0x20) # 20bfec <_ZN42_$LT$$RF$T$u20$as$u20$core..fmt..Debug$GT$3fmt17h14998b72df105cbaE+0x3a4>
  20bfd0:	28c0e07d 	ld.d	$r29,$r3,56(0x38)
  20bfd4:	6c00279e 	bgeu	$r28,$r30,36(0x24) # 20bff8 <_ZN42_$LT$$RF$T$u20$as$u20$core..fmt..Debug$GT$3fmt17h14998b72df105cbaE+0x3b0>
  20bfd8:	380073a4 	ldx.b	$r4,$r29,$r28
  20bfdc:	02befc05 	addi.w	$r5,$r0,-65(0xfbf)
  20bfe0:	640064a4 	bge	$r5,$r4,100(0x64) # 20c044 <_ZN42_$LT$$RF$T$u20$as$u20$core..fmt..Debug$GT$3fmt17h14998b72df105cbaE+0x3fc>
  20bfe4:	0011f3de 	sub.d	$r30,$r30,$r28
  20bfe8:	53ff8bff 	b	-120(0xfffff88) # 20bf70 <_ZN42_$LT$$RF$T$u20$as$u20$core..fmt..Debug$GT$3fmt17h14998b72df105cbaE+0x328>
  20bfec:	0015001c 	move	$r28,$r0
  20bff0:	28c0e07d 	ld.d	$r29,$r3,56(0x38)
  20bff4:	53ff7fff 	b	-132(0xfffff7c) # 20bf70 <_ZN42_$LT$$RF$T$u20$as$u20$core..fmt..Debug$GT$3fmt17h14998b72df105cbaE+0x328>
  20bff8:	5c004fdc 	bne	$r30,$r28,76(0x4c) # 20c044 <_ZN42_$LT$$RF$T$u20$as$u20$core..fmt..Debug$GT$3fmt17h14998b72df105cbaE+0x3fc>
  20bffc:	0011f3c4 	sub.d	$r4,$r30,$r28
  20c000:	001503dc 	move	$r28,$r30
  20c004:	0015009e 	move	$r30,$r4
  20c008:	53ff6bff 	b	-152(0xfffff68) # 20bf70 <_ZN42_$LT$$RF$T$u20$as$u20$core..fmt..Debug$GT$3fmt17h14998b72df105cbaE+0x328>
  20c00c:	03802805 	ori	$r5,$r0,0xa
  20c010:	1a000184 	pcalau12i	$r4,12(0xc)
  20c014:	02cd8086 	addi.d	$r6,$r4,864(0x360)
  20c018:	00150384 	move	$r4,$r28
  20c01c:	5444b800 	bl	17592(0x44b8) # 2104d4 <_ZN4core9panicking18panic_bounds_check17h5afa83c7f9faa757E>
  20c020:	38600400 	amswap.w	$r0,$r1,$r0
  20c024:	1a000184 	pcalau12i	$r4,12(0xc)
  20c028:	02cc6088 	addi.d	$r8,$r4,792(0x318)
  20c02c:	28c0e064 	ld.d	$r4,$r3,56(0x38)
  20c030:	001503c5 	move	$r5,$r30
  20c034:	00150386 	move	$r6,$r28
  20c038:	00150347 	move	$r7,$r26
  20c03c:	5447d800 	bl	18392(0x47d8) # 210814 <_ZN4core3str16slice_error_fail17hc0ef9e80b77f6408E>
  20c040:	38600400 	amswap.w	$r0,$r1,$r0
  20c044:	1a000184 	pcalau12i	$r4,12(0xc)
  20c048:	02cc0088 	addi.d	$r8,$r4,768(0x300)
  20c04c:	001503a4 	move	$r4,$r29
  20c050:	001503c5 	move	$r5,$r30
  20c054:	00150386 	move	$r6,$r28
  20c058:	001503c7 	move	$r7,$r30
  20c05c:	5447b800 	bl	18360(0x47b8) # 210814 <_ZN4core3str16slice_error_fail17hc0ef9e80b77f6408E>
  20c060:	38600400 	amswap.w	$r0,$r1,$r0

000000000020c064 <_ZN44_$LT$$RF$T$u20$as$u20$core..fmt..Display$GT$3fmt17h0115293090fcb28dE>:
_ZN44_$LT$$RF$T$u20$as$u20$core..fmt..Display$GT$3fmt17h0115293090fcb28dE():
  20c064:	001500a7 	move	$r7,$r5
  20c068:	28c02086 	ld.d	$r6,$r4,8(0x8)
  20c06c:	28c00085 	ld.d	$r5,$r4,0
  20c070:	001500e4 	move	$r4,$r7
  20c074:	50518000 	b	20864(0x5180) # 2111f4 <_ZN4core3fmt9Formatter3pad17h0d87367d3c6ceb71E>

000000000020c078 <rust_begin_unwind>:
rust_begin_unwind():
  20c078:	02fd8063 	addi.d	$r3,$r3,-160(0xf60)
  20c07c:	29c26061 	st.d	$r1,$r3,152(0x98)
  20c080:	29c00064 	st.d	$r4,$r3,0
  20c084:	1a000e04 	pcalau12i	$r4,112(0x70)
  20c088:	02d12084 	addi.d	$r4,$r4,1096(0x448)
  20c08c:	28c00085 	ld.d	$r5,$r4,0
  20c090:	03800404 	ori	$r4,$r0,0x1
  20c094:	00129486 	sltu	$r6,$r4,$r5
  20c098:	02fffca5 	addi.d	$r5,$r5,-1(0xfff)
  20c09c:	00129405 	sltu	$r5,$r0,$r5
  20c0a0:	001398a5 	masknez	$r5,$r5,$r6
  20c0a4:	02bffc07 	addi.w	$r7,$r0,-1(0xfff)
  20c0a8:	001318e6 	maskeqz	$r6,$r7,$r6
  20c0ac:	001514c5 	or	$r5,$r6,$r5
  20c0b0:	58000ca7 	beq	$r5,$r7,12(0xc) # 20c0bc <rust_begin_unwind+0x44>
  20c0b4:	0343fca5 	andi	$r5,$r5,0xff
  20c0b8:	4400dca0 	bnez	$r5,220(0xdc) # 20c194 <rust_begin_unwind+0x11c>
  20c0bc:	1a000005 	pcalau12i	$r5,0
  20c0c0:	02c670a5 	addi.d	$r5,$r5,412(0x19c)
  20c0c4:	29c04065 	st.d	$r5,$r3,16(0x10)
  20c0c8:	02c00065 	addi.d	$r5,$r3,0
  20c0cc:	29c02065 	st.d	$r5,$r3,8(0x8)
  20c0d0:	1a000e05 	pcalau12i	$r5,112(0x70)
  20c0d4:	02d100a5 	addi.d	$r5,$r5,1088(0x440)
  20c0d8:	28c000a5 	ld.d	$r5,$r5,0
  20c0dc:	38720000 	dbar	0x0
  20c0e0:	1a000186 	pcalau12i	$r6,12(0xc)
  20c0e4:	02d300c6 	addi.d	$r6,$r6,1216(0x4c0)
  20c0e8:	28c000c6 	ld.d	$r6,$r6,0
  20c0ec:	02c02067 	addi.d	$r7,$r3,8(0x8)
  20c0f0:	29c1e067 	st.d	$r7,$r3,120(0x78)
  20c0f4:	1a000187 	pcalau12i	$r7,12(0xc)
  20c0f8:	02dca0e7 	addi.d	$r7,$r7,1832(0x728)
  20c0fc:	29c1a067 	st.d	$r7,$r3,104(0x68)
  20c100:	29c20064 	st.d	$r4,$r3,128(0x80)
  20c104:	29c1c064 	st.d	$r4,$r3,112(0x70)
  20c108:	29c12064 	st.d	$r4,$r3,72(0x48)
  20c10c:	160000a4 	lu32i.d	$r4,5(0x5)
  20c110:	29c18064 	st.d	$r4,$r3,96(0x60)
  20c114:	03808c04 	ori	$r4,$r0,0x23
  20c118:	29c10064 	st.d	$r4,$r3,64(0x40)
  20c11c:	1a000124 	pcalau12i	$r4,9(0x9)
  20c120:	02f87884 	addi.d	$r4,$r4,-482(0xe1e)
  20c124:	29c0e064 	st.d	$r4,$r3,56(0x38)
  20c128:	03805404 	ori	$r4,$r0,0x15
  20c12c:	29c16064 	st.d	$r4,$r3,88(0x58)
  20c130:	29c0a064 	st.d	$r4,$r3,40(0x28)
  20c134:	1a000124 	pcalau12i	$r4,9(0x9)
  20c138:	02f82484 	addi.d	$r4,$r4,-503(0xe09)
  20c13c:	29c14064 	st.d	$r4,$r3,80(0x50)
  20c140:	29c08064 	st.d	$r4,$r3,32(0x20)
  20c144:	29c22060 	st.d	$r0,$r3,136(0x88)
  20c148:	29c0c060 	st.d	$r0,$r3,48(0x30)
  20c14c:	29c06060 	st.d	$r0,$r3,24(0x18)
  20c150:	02fff8a4 	addi.d	$r4,$r5,-2(0xffe)
  20c154:	02400485 	sltui	$r5,$r4,1(0x1)
  20c158:	1a000144 	pcalau12i	$r4,10(0xa)
  20c15c:	02fa1484 	addi.d	$r4,$r4,-379(0xe85)
  20c160:	00139484 	masknez	$r4,$r4,$r5
  20c164:	1a000147 	pcalau12i	$r7,10(0xa)
  20c168:	02c420e7 	addi.d	$r7,$r7,264(0x108)
  20c16c:	001314e7 	maskeqz	$r7,$r7,$r5
  20c170:	001510e4 	or	$r4,$r7,$r4
  20c174:	1a000187 	pcalau12i	$r7,12(0xc)
  20c178:	02d220e7 	addi.d	$r7,$r7,1160(0x488)
  20c17c:	001394e7 	masknez	$r7,$r7,$r5
  20c180:	001314c5 	maskeqz	$r5,$r6,$r5
  20c184:	00151ca5 	or	$r5,$r5,$r7
  20c188:	28c0a0a6 	ld.d	$r6,$r5,40(0x28)
  20c18c:	02c06065 	addi.d	$r5,$r3,24(0x18)
  20c190:	4c0000c1 	jirl	$r1,$r6,0
  20c194:	57f24bff 	bl	-3512(0xffff248) # 20b3dc <_ZN5axhal8platform21qemu_virt_loongarch644misc9terminate17h49dcca1d25a6ae3fE>
  20c198:	38600400 	amswap.w	$r0,$r1,$r0

000000000020c19c <_ZN44_$LT$$RF$T$u20$as$u20$core..fmt..Display$GT$3fmt17h1e19f164db3505d9E>:
_ZN44_$LT$$RF$T$u20$as$u20$core..fmt..Display$GT$3fmt17h1e19f164db3505d9E():
  20c19c:	02fd8063 	addi.d	$r3,$r3,-160(0xf60)
  20c1a0:	29c26061 	st.d	$r1,$r3,152(0x98)
  20c1a4:	29c24076 	st.d	$r22,$r3,144(0x90)
  20c1a8:	29c22077 	st.d	$r23,$r3,136(0x88)
  20c1ac:	29c20078 	st.d	$r24,$r3,128(0x80)
  20c1b0:	29c1e079 	st.d	$r25,$r3,120(0x78)
  20c1b4:	29c1c07a 	st.d	$r26,$r3,112(0x70)
  20c1b8:	28c00099 	ld.d	$r25,$r4,0
  20c1bc:	28c080b6 	ld.d	$r22,$r5,32(0x20)
  20c1c0:	28c0a0b7 	ld.d	$r23,$r5,40(0x28)
  20c1c4:	28c062e7 	ld.d	$r7,$r23,24(0x18)
  20c1c8:	1a000124 	pcalau12i	$r4,9(0x9)
  20c1cc:	02c8b485 	addi.d	$r5,$r4,557(0x22d)
  20c1d0:	03803006 	ori	$r6,$r0,0xc
  20c1d4:	001502c4 	move	$r4,$r22
  20c1d8:	4c0000e1 	jirl	$r1,$r7,0
  20c1dc:	40000c80 	beqz	$r4,12(0xc) # 20c1e8 <_ZN44_$LT$$RF$T$u20$as$u20$core..fmt..Display$GT$3fmt17h1e19f164db3505d9E+0x4c>
  20c1e0:	03800418 	ori	$r24,$r0,0x1
  20c1e4:	50010000 	b	256(0x100) # 20c2e4 <_ZN44_$LT$$RF$T$u20$as$u20$core..fmt..Display$GT$3fmt17h1e19f164db3505d9E+0x148>
  20c1e8:	28c06324 	ld.d	$r4,$r25,24(0x18)
  20c1ec:	02c0407a 	addi.d	$r26,$r3,16(0x10)
  20c1f0:	40001480 	beqz	$r4,20(0x14) # 20c204 <_ZN44_$LT$$RF$T$u20$as$u20$core..fmt..Display$GT$3fmt17h1e19f164db3505d9E+0x68>
  20c1f4:	29c02064 	st.d	$r4,$r3,8(0x8)
  20c1f8:	1bffffe4 	pcalau12i	$r4,-1(0xfffff)
  20c1fc:	02dba084 	addi.d	$r4,$r4,1768(0x6e8)
  20c200:	50003800 	b	56(0x38) # 20c238 <_ZN44_$LT$$RF$T$u20$as$u20$core..fmt..Display$GT$3fmt17h1e19f164db3505d9E+0x9c>
  20c204:	28c00338 	ld.d	$r24,$r25,0
  20c208:	28c02324 	ld.d	$r4,$r25,8(0x8)
  20c20c:	28c06085 	ld.d	$r5,$r4,24(0x18)
  20c210:	00150304 	move	$r4,$r24
  20c214:	4c0000a1 	jirl	$r1,$r5,0
  20c218:	159a3ce5 	lu12i.w	$r5,-208409(0xcd1e7)
  20c21c:	03af04a5 	ori	$r5,$r5,0xbc1
  20c220:	16591385 	lu32i.d	$r5,182428(0x2c89c)
  20c224:	033068a5 	lu52i.d	$r5,$r5,-998(0xc1a)
  20c228:	5c005485 	bne	$r4,$r5,84(0x54) # 20c27c <_ZN44_$LT$$RF$T$u20$as$u20$core..fmt..Display$GT$3fmt17h1e19f164db3505d9E+0xe0>
  20c22c:	29c02078 	st.d	$r24,$r3,8(0x8)
  20c230:	1a0000c4 	pcalau12i	$r4,6(0x6)
  20c234:	02fa7084 	addi.d	$r4,$r4,-356(0xe9c)
  20c238:	29c06064 	st.d	$r4,$r3,24(0x18)
  20c23c:	02c02064 	addi.d	$r4,$r3,8(0x8)
  20c240:	29c04064 	st.d	$r4,$r3,16(0x10)
  20c244:	29c18060 	st.d	$r0,$r3,96(0x60)
  20c248:	29c1407a 	st.d	$r26,$r3,80(0x50)
  20c24c:	03800804 	ori	$r4,$r0,0x2
  20c250:	29c12064 	st.d	$r4,$r3,72(0x48)
  20c254:	1a000184 	pcalau12i	$r4,12(0xc)
  20c258:	02fe8084 	addi.d	$r4,$r4,-96(0xfa0)
  20c25c:	29c10064 	st.d	$r4,$r3,64(0x40)
  20c260:	03800418 	ori	$r24,$r0,0x1
  20c264:	29c16078 	st.d	$r24,$r3,88(0x58)
  20c268:	02c10066 	addi.d	$r6,$r3,64(0x40)
  20c26c:	001502c4 	move	$r4,$r22
  20c270:	001502e5 	move	$r5,$r23
  20c274:	54497000 	bl	18800(0x4970) # 210be4 <_ZN4core3fmt5write17hf855db0f875ea3deE>
  20c278:	44006c80 	bnez	$r4,108(0x6c) # 20c2e4 <_ZN44_$LT$$RF$T$u20$as$u20$core..fmt..Display$GT$3fmt17h1e19f164db3505d9E+0x148>
  20c27c:	28c04324 	ld.d	$r4,$r25,16(0x10)
  20c280:	02c05085 	addi.d	$r5,$r4,20(0x14)
  20c284:	29c0c065 	st.d	$r5,$r3,48(0x30)
  20c288:	1a000065 	pcalau12i	$r5,3(0x3)
  20c28c:	02c5f0a5 	addi.d	$r5,$r5,380(0x17c)
  20c290:	29c0e065 	st.d	$r5,$r3,56(0x38)
  20c294:	29c0a065 	st.d	$r5,$r3,40(0x28)
  20c298:	02c04085 	addi.d	$r5,$r4,16(0x10)
  20c29c:	29c08065 	st.d	$r5,$r3,32(0x20)
  20c2a0:	1a000005 	pcalau12i	$r5,0
  20c2a4:	02c190a5 	addi.d	$r5,$r5,100(0x64)
  20c2a8:	29c06065 	st.d	$r5,$r3,24(0x18)
  20c2ac:	29c04064 	st.d	$r4,$r3,16(0x10)
  20c2b0:	29c18060 	st.d	$r0,$r3,96(0x60)
  20c2b4:	29c1407a 	st.d	$r26,$r3,80(0x50)
  20c2b8:	03800c04 	ori	$r4,$r0,0x3
  20c2bc:	29c16064 	st.d	$r4,$r3,88(0x58)
  20c2c0:	29c12064 	st.d	$r4,$r3,72(0x48)
  20c2c4:	1a000184 	pcalau12i	$r4,12(0xc)
  20c2c8:	02ff0084 	addi.d	$r4,$r4,-64(0xfc0)
  20c2cc:	29c10064 	st.d	$r4,$r3,64(0x40)
  20c2d0:	02c10066 	addi.d	$r6,$r3,64(0x40)
  20c2d4:	001502c4 	move	$r4,$r22
  20c2d8:	001502e5 	move	$r5,$r23
  20c2dc:	54490800 	bl	18696(0x4908) # 210be4 <_ZN4core3fmt5write17hf855db0f875ea3deE>
  20c2e0:	00150098 	move	$r24,$r4
  20c2e4:	00150304 	move	$r4,$r24
  20c2e8:	28c1c07a 	ld.d	$r26,$r3,112(0x70)
  20c2ec:	28c1e079 	ld.d	$r25,$r3,120(0x78)
  20c2f0:	28c20078 	ld.d	$r24,$r3,128(0x80)
  20c2f4:	28c22077 	ld.d	$r23,$r3,136(0x88)
  20c2f8:	28c24076 	ld.d	$r22,$r3,144(0x90)
  20c2fc:	28c26061 	ld.d	$r1,$r3,152(0x98)
  20c300:	02c28063 	addi.d	$r3,$r3,160(0xa0)
  20c304:	4c000020 	jirl	$r0,$r1,0

000000000020c308 <_ZN42_$LT$$RF$T$u20$as$u20$core..fmt..Debug$GT$3fmt17h36686451504becc2E>:
_ZN42_$LT$$RF$T$u20$as$u20$core..fmt..Debug$GT$3fmt17h36686451504becc2E():
  20c308:	28c00084 	ld.d	$r4,$r4,0
  20c30c:	2a000084 	ld.bu	$r4,$r4,0
  20c310:	00410c84 	slli.d	$r4,$r4,0x3
  20c314:	1a0001a6 	pcalau12i	$r6,13(0xd)
  20c318:	02e400c6 	addi.d	$r6,$r6,-1792(0x900)
  20c31c:	380c10c7 	ldx.d	$r7,$r6,$r4
  20c320:	1a000146 	pcalau12i	$r6,10(0xa)
  20c324:	02cd00c6 	addi.d	$r6,$r6,832(0x340)
  20c328:	380c10c6 	ldx.d	$r6,$r6,$r4
  20c32c:	28c080a4 	ld.d	$r4,$r5,32(0x20)
  20c330:	28c0a0a5 	ld.d	$r5,$r5,40(0x28)
  20c334:	28c060a8 	ld.d	$r8,$r5,24(0x18)
  20c338:	001500e5 	move	$r5,$r7
  20c33c:	4c000100 	jirl	$r0,$r8,0

000000000020c340 <rust_main>:
rust_main():
  20c340:	02ee0063 	addi.d	$r3,$r3,-1152(0xb80)
  20c344:	29d1e061 	st.d	$r1,$r3,1144(0x478)
  20c348:	29d1c076 	st.d	$r22,$r3,1136(0x470)
  20c34c:	29d1a077 	st.d	$r23,$r3,1128(0x468)
  20c350:	29d18078 	st.d	$r24,$r3,1120(0x460)
  20c354:	29d16079 	st.d	$r25,$r3,1112(0x458)
  20c358:	29d1407a 	st.d	$r26,$r3,1104(0x450)
  20c35c:	29d1207b 	st.d	$r27,$r3,1096(0x448)
  20c360:	29d1007c 	st.d	$r28,$r3,1088(0x440)
  20c364:	29d0e07d 	st.d	$r29,$r3,1080(0x438)
  20c368:	29d0c07e 	st.d	$r30,$r3,1072(0x430)
  20c36c:	29d0a07f 	st.d	$r31,$r3,1064(0x428)
  20c370:	29c4e065 	st.d	$r5,$r3,312(0x138)
  20c374:	29c4c064 	st.d	$r4,$r3,304(0x130)
  20c378:	1a000004 	pcalau12i	$r4,0
  20c37c:	02c1909f 	addi.d	$r31,$r4,100(0x64)
  20c380:	29c6807f 	st.d	$r31,$r3,416(0x1a0)
  20c384:	1a000184 	pcalau12i	$r4,12(0xc)
  20c388:	02f6c084 	addi.d	$r4,$r4,-592(0xdb0)
  20c38c:	29c66064 	st.d	$r4,$r3,408(0x198)
  20c390:	03801019 	ori	$r25,$r0,0x4
  20c394:	00150004 	move	$r4,$r0
  20c398:	04000324 	csrxchg	$r4,$r25,0x0
  20c39c:	02cf4077 	addi.d	$r23,$r3,976(0x3d0)
  20c3a0:	29cfa077 	st.d	$r23,$r3,1000(0x3e8)
  20c3a4:	29cb4060 	st.d	$r0,$r3,720(0x2d0)
  20c3a8:	03800416 	ori	$r22,$r0,0x1
  20c3ac:	29cb2076 	st.d	$r22,$r3,712(0x2c8)
  20c3b0:	02c66064 	addi.d	$r4,$r3,408(0x198)
  20c3b4:	29cb0064 	st.d	$r4,$r3,704(0x2c0)
  20c3b8:	03800818 	ori	$r24,$r0,0x2
  20c3bc:	29cae078 	st.d	$r24,$r3,696(0x2b8)
  20c3c0:	1a000184 	pcalau12i	$r4,12(0xc)
  20c3c4:	02f64084 	addi.d	$r4,$r4,-624(0xd90)
  20c3c8:	29cac064 	st.d	$r4,$r3,688(0x2b0)
  20c3cc:	02cfa07b 	addi.d	$r27,$r3,1000(0x3e8)
  20c3d0:	1a000184 	pcalau12i	$r4,12(0xc)
  20c3d4:	02ed4085 	addi.d	$r5,$r4,-1200(0xb50)
  20c3d8:	02cac07a 	addi.d	$r26,$r3,688(0x2b0)
  20c3dc:	00150364 	move	$r4,$r27
  20c3e0:	00150346 	move	$r6,$r26
  20c3e4:	54480000 	bl	18432(0x4800) # 210be4 <_ZN4core3fmt5write17hf855db0f875ea3deE>
  20c3e8:	44010880 	bnez	$r4,264(0x108) # 20c4f0 <rust_main+0x1b0>
  20c3ec:	00150324 	move	$r4,$r25
  20c3f0:	04000324 	csrxchg	$r4,$r25,0x0
  20c3f4:	03802c04 	ori	$r4,$r0,0xb
  20c3f8:	29c40064 	st.d	$r4,$r3,256(0x100)
  20c3fc:	29c52064 	st.d	$r4,$r3,328(0x148)
  20c400:	1a000124 	pcalau12i	$r4,9(0x9)
  20c404:	02c18084 	addi.d	$r4,$r4,96(0x60)
  20c408:	29c50064 	st.d	$r4,$r3,320(0x140)
  20c40c:	03805404 	ori	$r4,$r0,0x15
  20c410:	29c56064 	st.d	$r4,$r3,344(0x158)
  20c414:	1a000124 	pcalau12i	$r4,9(0x9)
  20c418:	02c1ac84 	addi.d	$r4,$r4,107(0x6b)
  20c41c:	29c54064 	st.d	$r4,$r3,336(0x150)
  20c420:	29c5a076 	st.d	$r22,$r3,360(0x168)
  20c424:	1a000124 	pcalau12i	$r4,9(0x9)
  20c428:	02c20084 	addi.d	$r4,$r4,128(0x80)
  20c42c:	29c58064 	st.d	$r4,$r3,352(0x160)
  20c430:	29cbc07b 	st.d	$r27,$r3,752(0x2f0)
  20c434:	02c5c064 	addi.d	$r4,$r3,368(0x170)
  20c438:	29c2c064 	st.d	$r4,$r3,176(0xb0)
  20c43c:	29cb8064 	st.d	$r4,$r3,736(0x2e0)
  20c440:	02c58064 	addi.d	$r4,$r3,352(0x160)
  20c444:	29c30064 	st.d	$r4,$r3,192(0xc0)
  20c448:	29cb4064 	st.d	$r4,$r3,720(0x2d0)
  20c44c:	02c5407c 	addi.d	$r28,$r3,336(0x150)
  20c450:	29cb007c 	st.d	$r28,$r3,704(0x2c0)
  20c454:	29cbe07f 	st.d	$r31,$r3,760(0x2f8)
  20c458:	29cba07f 	st.d	$r31,$r3,744(0x2e8)
  20c45c:	29cb607f 	st.d	$r31,$r3,728(0x2d8)
  20c460:	29cb207f 	st.d	$r31,$r3,712(0x2c8)
  20c464:	29cae07f 	st.d	$r31,$r3,696(0x2b8)
  20c468:	02c5007d 	addi.d	$r29,$r3,320(0x140)
  20c46c:	29cac07d 	st.d	$r29,$r3,688(0x2b0)
  20c470:	03801c04 	ori	$r4,$r0,0x7
  20c474:	29c22064 	st.d	$r4,$r3,136(0x88)
  20c478:	29c5e064 	st.d	$r4,$r3,376(0x178)
  20c47c:	1a000124 	pcalau12i	$r4,9(0x9)
  20c480:	02c20484 	addi.d	$r4,$r4,129(0x81)
  20c484:	29c5c064 	st.d	$r4,$r3,368(0x170)
  20c488:	1a000124 	pcalau12i	$r4,9(0x9)
  20c48c:	02c22084 	addi.d	$r4,$r4,136(0x88)
  20c490:	29cfa064 	st.d	$r4,$r3,1000(0x3e8)
  20c494:	03801405 	ori	$r5,$r0,0x5
  20c498:	29cfc065 	st.d	$r5,$r3,1008(0x3f0)
  20c49c:	00150004 	move	$r4,$r0
  20c4a0:	04000324 	csrxchg	$r4,$r25,0x0
  20c4a4:	29cf6077 	st.d	$r23,$r3,984(0x3d8)
  20c4a8:	29c6e060 	st.d	$r0,$r3,440(0x1b8)
  20c4ac:	29c48065 	st.d	$r5,$r3,288(0x120)
  20c4b0:	29c6c065 	st.d	$r5,$r3,432(0x1b0)
  20c4b4:	29c2607a 	st.d	$r26,$r3,152(0x98)
  20c4b8:	29c6a07a 	st.d	$r26,$r3,424(0x1a8)
  20c4bc:	03801804 	ori	$r4,$r0,0x6
  20c4c0:	29c68064 	st.d	$r4,$r3,416(0x1a0)
  20c4c4:	1a000184 	pcalau12i	$r4,12(0xc)
  20c4c8:	02f70084 	addi.d	$r4,$r4,-576(0xdc0)
  20c4cc:	29c66064 	st.d	$r4,$r3,408(0x198)
  20c4d0:	02cf607e 	addi.d	$r30,$r3,984(0x3d8)
  20c4d4:	1a000184 	pcalau12i	$r4,12(0xc)
  20c4d8:	02ed4085 	addi.d	$r5,$r4,-1200(0xb50)
  20c4dc:	02c6607a 	addi.d	$r26,$r3,408(0x198)
  20c4e0:	001503c4 	move	$r4,$r30
  20c4e4:	00150346 	move	$r6,$r26
  20c4e8:	5446fc00 	bl	18172(0x46fc) # 210be4 <_ZN4core3fmt5write17hf855db0f875ea3deE>
  20c4ec:	40002c80 	beqz	$r4,44(0x2c) # 20c518 <rust_main+0x1d8>
  20c4f0:	1a000144 	pcalau12i	$r4,10(0xa)
  20c4f4:	02f96884 	addi.d	$r4,$r4,-422(0xe5a)
  20c4f8:	0380ac05 	ori	$r5,$r0,0x2b
  20c4fc:	02cf4066 	addi.d	$r6,$r3,976(0x3d0)
  20c500:	1a000187 	pcalau12i	$r7,12(0xc)
  20c504:	02f0c0e7 	addi.d	$r7,$r7,-976(0xc30)
  20c508:	1a000188 	pcalau12i	$r8,12(0xc)
  20c50c:	02f14108 	addi.d	$r8,$r8,-944(0xc50)
  20c510:	543d0800 	bl	15624(0x3d08) # 210218 <_ZN4core6result13unwrap_failed17h1feb0e9befb8d2f9E>
  20c514:	38600400 	amswap.w	$r0,$r1,$r0
  20c518:	00150324 	move	$r4,$r25
  20c51c:	04000324 	csrxchg	$r4,$r25,0x0
  20c520:	1a000e04 	pcalau12i	$r4,112(0x70)
  20c524:	00150326 	move	$r6,$r25
  20c528:	02d10099 	addi.d	$r25,$r4,1088(0x440)
  20c52c:	22000324 	ll.d	$r4,$r25,0
  20c530:	5c001880 	bne	$r4,$r0,24(0x18) # 20c548 <rust_main+0x208>
  20c534:	38720000 	dbar	0x0
  20c538:	001502c5 	move	$r5,$r22
  20c53c:	23000325 	sc.d	$r5,$r25,0
  20c540:	43ffecbf 	beqz	$r5,-20(0x7fffec) # 20c52c <rust_main+0x1ec>
  20c544:	50000800 	b	8(0x8) # 20c54c <rust_main+0x20c>
  20c548:	38720700 	dbar	0x700
  20c54c:	40003c80 	beqz	$r4,60(0x3c) # 20c588 <rust_main+0x248>
  20c550:	5c001096 	bne	$r4,$r22,16(0x10) # 20c560 <rust_main+0x220>
  20c554:	28c00324 	ld.d	$r4,$r25,0
  20c558:	38720000 	dbar	0x0
  20c55c:	5bfff896 	beq	$r4,$r22,-8(0x3fff8) # 20c554 <rust_main+0x214>
  20c560:	1a000144 	pcalau12i	$r4,10(0xa)
  20c564:	02f96884 	addi.d	$r4,$r4,-422(0xe5a)
  20c568:	0380ac05 	ori	$r5,$r0,0x2b
  20c56c:	02cf4066 	addi.d	$r6,$r3,976(0x3d0)
  20c570:	1a000187 	pcalau12i	$r7,12(0xc)
  20c574:	02f2e0e7 	addi.d	$r7,$r7,-840(0xcb8)
  20c578:	1a000188 	pcalau12i	$r8,12(0xc)
  20c57c:	02f36108 	addi.d	$r8,$r8,-808(0xcd8)
  20c580:	543c9800 	bl	15512(0x3c98) # 210218 <_ZN4core6result13unwrap_failed17h1feb0e9befb8d2f9E>
  20c584:	38600400 	amswap.w	$r0,$r1,$r0
  20c588:	1a000184 	pcalau12i	$r4,12(0xc)
  20c58c:	02d30085 	addi.d	$r5,$r4,1216(0x4c0)
  20c590:	1a000184 	pcalau12i	$r4,12(0xc)
  20c594:	02f20084 	addi.d	$r4,$r4,-896(0xc80)
  20c598:	29c34065 	st.d	$r5,$r3,208(0xd0)
  20c59c:	29c000a4 	st.d	$r4,$r5,0
  20c5a0:	3869e320 	amswap_db.d	$r0,$r24,$r25
  20c5a4:	1a000e04 	pcalau12i	$r4,112(0x70)
  20c5a8:	02d12084 	addi.d	$r4,$r4,1096(0x448)
  20c5ac:	29c00098 	st.d	$r24,$r4,0
  20c5b0:	29c20066 	st.d	$r6,$r3,128(0x80)
  20c5b4:	29c00086 	st.d	$r6,$r4,0
  20c5b8:	29c44064 	st.d	$r4,$r3,272(0x110)
  20c5bc:	28c00084 	ld.d	$r4,$r4,0
  20c5c0:	03800c05 	ori	$r5,$r0,0x3
  20c5c4:	29c42065 	st.d	$r5,$r3,264(0x108)
  20c5c8:	001290a5 	sltu	$r5,$r5,$r4
  20c5cc:	02fff484 	addi.d	$r4,$r4,-3(0xffd)
  20c5d0:	00129004 	sltu	$r4,$r0,$r4
  20c5d4:	00139484 	masknez	$r4,$r4,$r5
  20c5d8:	02bffc06 	addi.w	$r6,$r0,-1(0xfff)
  20c5dc:	001314c5 	maskeqz	$r5,$r6,$r5
  20c5e0:	001510a4 	or	$r4,$r5,$r4
  20c5e4:	1a000145 	pcalau12i	$r5,10(0xa)
  20c5e8:	02c420a5 	addi.d	$r5,$r5,264(0x108)
  20c5ec:	29c3a065 	st.d	$r5,$r3,232(0xe8)
  20c5f0:	1a000145 	pcalau12i	$r5,10(0xa)
  20c5f4:	02fa14a5 	addi.d	$r5,$r5,-379(0xe85)
  20c5f8:	29c36065 	st.d	$r5,$r3,216(0xd8)
  20c5fc:	1a000185 	pcalau12i	$r5,12(0xc)
  20c600:	02d220a5 	addi.d	$r5,$r5,1160(0x488)
  20c604:	29c38065 	st.d	$r5,$r3,224(0xe0)
  20c608:	29c46066 	st.d	$r6,$r3,280(0x118)
  20c60c:	58000c86 	beq	$r4,$r6,12(0xc) # 20c618 <rust_main+0x2d8>
  20c610:	0343fc84 	andi	$r4,$r4,0xff
  20c614:	4400b480 	bnez	$r4,180(0xb4) # 20c6c8 <rust_main+0x388>
  20c618:	28c00324 	ld.d	$r4,$r25,0
  20c61c:	38720000 	dbar	0x0
  20c620:	28c34065 	ld.d	$r5,$r3,208(0xd0)
  20c624:	28c000a5 	ld.d	$r5,$r5,0
  20c628:	1a000186 	pcalau12i	$r6,12(0xc)
  20c62c:	02f880c6 	addi.d	$r6,$r6,-480(0xe20)
  20c630:	29cc0066 	st.d	$r6,$r3,768(0x300)
  20c634:	03800c06 	ori	$r6,$r0,0x3
  20c638:	29cb8066 	st.d	$r6,$r3,736(0x2e0)
  20c63c:	29cc2076 	st.d	$r22,$r3,776(0x308)
  20c640:	001502c6 	move	$r6,$r22
  20c644:	16000f86 	lu32i.d	$r6,124(0x7c)
  20c648:	29cbe066 	st.d	$r6,$r3,760(0x2f8)
  20c64c:	03807006 	ori	$r6,$r0,0x1c
  20c650:	29cb6066 	st.d	$r6,$r3,728(0x2d8)
  20c654:	1a000126 	pcalau12i	$r6,9(0x9)
  20c658:	02c2a4c6 	addi.d	$r6,$r6,169(0xa9)
  20c65c:	29cb4066 	st.d	$r6,$r3,720(0x2d0)
  20c660:	03802406 	ori	$r6,$r0,0x9
  20c664:	29cbc066 	st.d	$r6,$r3,752(0x2f0)
  20c668:	29cb0066 	st.d	$r6,$r3,704(0x2c0)
  20c66c:	1a000126 	pcalau12i	$r6,9(0x9)
  20c670:	02c280c6 	addi.d	$r6,$r6,160(0xa0)
  20c674:	29cba066 	st.d	$r6,$r3,744(0x2e8)
  20c678:	29cae066 	st.d	$r6,$r3,696(0x2b8)
  20c67c:	29cc6060 	st.d	$r0,$r3,792(0x318)
  20c680:	29cc8060 	st.d	$r0,$r3,800(0x320)
  20c684:	29cb2060 	st.d	$r0,$r3,712(0x2c8)
  20c688:	29cac060 	st.d	$r0,$r3,688(0x2b0)
  20c68c:	02fff884 	addi.d	$r4,$r4,-2(0xffe)
  20c690:	02400486 	sltui	$r6,$r4,1(0x1)
  20c694:	28c3a067 	ld.d	$r7,$r3,232(0xe8)
  20c698:	29cc4067 	st.d	$r7,$r3,784(0x310)
  20c69c:	28c36064 	ld.d	$r4,$r3,216(0xd8)
  20c6a0:	00139884 	masknez	$r4,$r4,$r6
  20c6a4:	001318e7 	maskeqz	$r7,$r7,$r6
  20c6a8:	001510e4 	or	$r4,$r7,$r4
  20c6ac:	28c38067 	ld.d	$r7,$r3,224(0xe0)
  20c6b0:	001398e7 	masknez	$r7,$r7,$r6
  20c6b4:	001318a5 	maskeqz	$r5,$r5,$r6
  20c6b8:	00151ca5 	or	$r5,$r5,$r7
  20c6bc:	28c0a0a6 	ld.d	$r6,$r5,40(0x28)
  20c6c0:	02cac065 	addi.d	$r5,$r3,688(0x2b0)
  20c6c4:	4c0000c1 	jirl	$r1,$r6,0
  20c6c8:	28c44064 	ld.d	$r4,$r3,272(0x110)
  20c6cc:	28c00084 	ld.d	$r4,$r4,0
  20c6d0:	28c42065 	ld.d	$r5,$r3,264(0x108)
  20c6d4:	001290a5 	sltu	$r5,$r5,$r4
  20c6d8:	02fff484 	addi.d	$r4,$r4,-3(0xffd)
  20c6dc:	00129004 	sltu	$r4,$r0,$r4
  20c6e0:	00139484 	masknez	$r4,$r4,$r5
  20c6e4:	28c46066 	ld.d	$r6,$r3,280(0x118)
  20c6e8:	001314c5 	maskeqz	$r5,$r6,$r5
  20c6ec:	001510a4 	or	$r4,$r5,$r4
  20c6f0:	1a000065 	pcalau12i	$r5,3(0x3)
  20c6f4:	02c320a5 	addi.d	$r5,$r5,200(0xc8)
  20c6f8:	29c1a065 	st.d	$r5,$r3,104(0x68)
  20c6fc:	58000c86 	beq	$r4,$r6,12(0xc) # 20c708 <rust_main+0x3c8>
  20c700:	0343fc84 	andi	$r4,$r4,0xff
  20c704:	44011480 	bnez	$r4,276(0x114) # 20c818 <rust_main+0x4d8>
  20c708:	28c1a064 	ld.d	$r4,$r3,104(0x68)
  20c70c:	29d00064 	st.d	$r4,$r3,1024(0x400)
  20c710:	02c4e064 	addi.d	$r4,$r3,312(0x138)
  20c714:	29cfe064 	st.d	$r4,$r3,1016(0x3f8)
  20c718:	1a000064 	pcalau12i	$r4,3(0x3)
  20c71c:	02cf4084 	addi.d	$r4,$r4,976(0x3d0)
  20c720:	29cfc064 	st.d	$r4,$r3,1008(0x3f0)
  20c724:	02c4c064 	addi.d	$r4,$r3,304(0x130)
  20c728:	29cfa064 	st.d	$r4,$r3,1000(0x3e8)
  20c72c:	03808004 	ori	$r4,$r0,0x20
  20c730:	00150085 	move	$r5,$r4
  20c734:	16000085 	lu32i.d	$r5,4(0x4)
  20c738:	29c7e065 	st.d	$r5,$r3,504(0x1f8)
  20c73c:	29c70064 	st.d	$r4,$r3,448(0x1c0)
  20c740:	03800c04 	ori	$r4,$r0,0x3
  20c744:	29080064 	st.b	$r4,$r3,512(0x200)
  20c748:	29c7c076 	st.d	$r22,$r3,496(0x1f0)
  20c74c:	03800805 	ori	$r5,$r0,0x2
  20c750:	29c78065 	st.d	$r5,$r3,480(0x1e0)
  20c754:	29c74065 	st.d	$r5,$r3,464(0x1d0)
  20c758:	29072064 	st.b	$r4,$r3,456(0x1c8)
  20c75c:	29c6e060 	st.d	$r0,$r3,440(0x1b8)
  20c760:	29c6a065 	st.d	$r5,$r3,424(0x1a8)
  20c764:	29c66065 	st.d	$r5,$r3,408(0x198)
  20c768:	28c00326 	ld.d	$r6,$r25,0
  20c76c:	38720000 	dbar	0x0
  20c770:	28c34067 	ld.d	$r7,$r3,208(0xd0)
  20c774:	28c000e7 	ld.d	$r7,$r7,0
  20c778:	29cc807a 	st.d	$r26,$r3,800(0x320)
  20c77c:	29cca065 	st.d	$r5,$r3,808(0x328)
  20c780:	29cc6065 	st.d	$r5,$r3,792(0x318)
  20c784:	29cc407b 	st.d	$r27,$r3,784(0x310)
  20c788:	1a000185 	pcalau12i	$r5,12(0xc)
  20c78c:	02f8c0a5 	addi.d	$r5,$r5,-464(0xe30)
  20c790:	29cc0065 	st.d	$r5,$r3,768(0x300)
  20c794:	29cc2064 	st.d	$r4,$r3,776(0x308)
  20c798:	29cb8064 	st.d	$r4,$r3,736(0x2e0)
  20c79c:	001502c4 	move	$r4,$r22
  20c7a0:	16000fa4 	lu32i.d	$r4,125(0x7d)
  20c7a4:	29cbe064 	st.d	$r4,$r3,760(0x2f8)
  20c7a8:	03807004 	ori	$r4,$r0,0x1c
  20c7ac:	29cb6064 	st.d	$r4,$r3,728(0x2d8)
  20c7b0:	1a000124 	pcalau12i	$r4,9(0x9)
  20c7b4:	02c2a484 	addi.d	$r4,$r4,169(0xa9)
  20c7b8:	29cb4064 	st.d	$r4,$r3,720(0x2d0)
  20c7bc:	03802404 	ori	$r4,$r0,0x9
  20c7c0:	29cbc064 	st.d	$r4,$r3,752(0x2f0)
  20c7c4:	29cb0064 	st.d	$r4,$r3,704(0x2c0)
  20c7c8:	1a000124 	pcalau12i	$r4,9(0x9)
  20c7cc:	02c28084 	addi.d	$r4,$r4,160(0xa0)
  20c7d0:	29cba064 	st.d	$r4,$r3,744(0x2e8)
  20c7d4:	29cae064 	st.d	$r4,$r3,696(0x2b8)
  20c7d8:	29cb2060 	st.d	$r0,$r3,712(0x2c8)
  20c7dc:	29cac060 	st.d	$r0,$r3,688(0x2b0)
  20c7e0:	02fff8c4 	addi.d	$r4,$r6,-2(0xffe)
  20c7e4:	02400485 	sltui	$r5,$r4,1(0x1)
  20c7e8:	28c36064 	ld.d	$r4,$r3,216(0xd8)
  20c7ec:	00139484 	masknez	$r4,$r4,$r5
  20c7f0:	28c3a066 	ld.d	$r6,$r3,232(0xe8)
  20c7f4:	001314c6 	maskeqz	$r6,$r6,$r5
  20c7f8:	001510c4 	or	$r4,$r6,$r4
  20c7fc:	28c38066 	ld.d	$r6,$r3,224(0xe0)
  20c800:	001394c6 	masknez	$r6,$r6,$r5
  20c804:	001314e5 	maskeqz	$r5,$r7,$r5
  20c808:	001518a5 	or	$r5,$r5,$r6
  20c80c:	28c0a0a6 	ld.d	$r6,$r5,40(0x28)
  20c810:	02cac065 	addi.d	$r5,$r3,688(0x2b0)
  20c814:	4c0000c1 	jirl	$r1,$r6,0
  20c818:	29c2407f 	st.d	$r31,$r3,144(0x90)
  20c81c:	29c1007e 	st.d	$r30,$r3,64(0x40)
  20c820:	29c1207d 	st.d	$r29,$r3,72(0x48)
  20c824:	29c0e07c 	st.d	$r28,$r3,56(0x38)
  20c828:	29c2a07b 	st.d	$r27,$r3,168(0xa8)
  20c82c:	29c1407a 	st.d	$r26,$r3,80(0x50)
  20c830:	29c16077 	st.d	$r23,$r3,88(0x58)
  20c834:	28c44064 	ld.d	$r4,$r3,272(0x110)
  20c838:	28c00084 	ld.d	$r4,$r4,0
  20c83c:	28c42065 	ld.d	$r5,$r3,264(0x108)
  20c840:	001290a5 	sltu	$r5,$r5,$r4
  20c844:	02fff484 	addi.d	$r4,$r4,-3(0xffd)
  20c848:	00129004 	sltu	$r4,$r0,$r4
  20c84c:	00139484 	masknez	$r4,$r4,$r5
  20c850:	28c46066 	ld.d	$r6,$r3,280(0x118)
  20c854:	001314c5 	maskeqz	$r5,$r6,$r5
  20c858:	001510a4 	or	$r4,$r5,$r4
  20c85c:	58000c86 	beq	$r4,$r6,12(0xc) # 20c868 <rust_main+0x528>
  20c860:	0343fc84 	andi	$r4,$r4,0xff
  20c864:	4400b480 	bnez	$r4,180(0xb4) # 20c918 <rust_main+0x5d8>
  20c868:	28c00324 	ld.d	$r4,$r25,0
  20c86c:	38720000 	dbar	0x0
  20c870:	28c34065 	ld.d	$r5,$r3,208(0xd0)
  20c874:	28c000a5 	ld.d	$r5,$r5,0
  20c878:	1a000186 	pcalau12i	$r6,12(0xc)
  20c87c:	02f980c6 	addi.d	$r6,$r6,-416(0xe60)
  20c880:	29cc0066 	st.d	$r6,$r3,768(0x300)
  20c884:	03800c06 	ori	$r6,$r0,0x3
  20c888:	29cb8066 	st.d	$r6,$r3,736(0x2e0)
  20c88c:	29cc2076 	st.d	$r22,$r3,776(0x308)
  20c890:	001502c6 	move	$r6,$r22
  20c894:	16000fe6 	lu32i.d	$r6,127(0x7f)
  20c898:	29cbe066 	st.d	$r6,$r3,760(0x2f8)
  20c89c:	03807006 	ori	$r6,$r0,0x1c
  20c8a0:	29cb6066 	st.d	$r6,$r3,728(0x2d8)
  20c8a4:	1a000126 	pcalau12i	$r6,9(0x9)
  20c8a8:	02c2a4c6 	addi.d	$r6,$r6,169(0xa9)
  20c8ac:	29cb4066 	st.d	$r6,$r3,720(0x2d0)
  20c8b0:	03802406 	ori	$r6,$r0,0x9
  20c8b4:	29cbc066 	st.d	$r6,$r3,752(0x2f0)
  20c8b8:	29cb0066 	st.d	$r6,$r3,704(0x2c0)
  20c8bc:	1a000126 	pcalau12i	$r6,9(0x9)
  20c8c0:	02c280c6 	addi.d	$r6,$r6,160(0xa0)
  20c8c4:	29cba066 	st.d	$r6,$r3,744(0x2e8)
  20c8c8:	29cae066 	st.d	$r6,$r3,696(0x2b8)
  20c8cc:	29cc6060 	st.d	$r0,$r3,792(0x318)
  20c8d0:	29cc8060 	st.d	$r0,$r3,800(0x320)
  20c8d4:	29cb2060 	st.d	$r0,$r3,712(0x2c8)
  20c8d8:	29cac060 	st.d	$r0,$r3,688(0x2b0)
  20c8dc:	02fff884 	addi.d	$r4,$r4,-2(0xffe)
  20c8e0:	02400486 	sltui	$r6,$r4,1(0x1)
  20c8e4:	28c3a067 	ld.d	$r7,$r3,232(0xe8)
  20c8e8:	29cc4067 	st.d	$r7,$r3,784(0x310)
  20c8ec:	28c36064 	ld.d	$r4,$r3,216(0xd8)
  20c8f0:	00139884 	masknez	$r4,$r4,$r6
  20c8f4:	001318e7 	maskeqz	$r7,$r7,$r6
  20c8f8:	001510e4 	or	$r4,$r7,$r4
  20c8fc:	28c38067 	ld.d	$r7,$r3,224(0xe0)
  20c900:	001398e7 	masknez	$r7,$r7,$r6
  20c904:	001318a5 	maskeqz	$r5,$r5,$r6
  20c908:	00151ca5 	or	$r5,$r5,$r7
  20c90c:	28c0a0a6 	ld.d	$r6,$r5,40(0x28)
  20c910:	02cac065 	addi.d	$r5,$r3,688(0x2b0)
  20c914:	4c0000c1 	jirl	$r1,$r6,0
  20c918:	29c2e079 	st.d	$r25,$r3,184(0xb8)
  20c91c:	29c3e076 	st.d	$r22,$r3,248(0xf8)
  20c920:	02c6407f 	addi.d	$r31,$r3,400(0x190)
  20c924:	02c6007d 	addi.d	$r29,$r3,384(0x180)
  20c928:	1a000124 	pcalau12i	$r4,9(0x9)
  20c92c:	02efc084 	addi.d	$r4,$r4,-1040(0xbf0)
  20c930:	29c18064 	st.d	$r4,$r3,96(0x60)
  20c934:	02fe809c 	addi.d	$r28,$r4,-96(0xfa0)
  20c938:	03802401 	ori	$r1,$r0,0x9
  20c93c:	03bffc04 	ori	$r4,$r0,0xfff
  20c940:	29c4a064 	st.d	$r4,$r3,296(0x128)
  20c944:	03809417 	ori	$r23,$r0,0x25
  20c948:	1a000124 	pcalau12i	$r4,9(0x9)
  20c94c:	02f08096 	addi.d	$r22,$r4,-992(0xc20)
  20c950:	03810c19 	ori	$r25,$r0,0x43
  20c954:	1a000124 	pcalau12i	$r4,9(0x9)
  20c958:	02f1089e 	addi.d	$r30,$r4,-958(0xc42)
  20c95c:	0380cc04 	ori	$r4,$r0,0x33
  20c960:	29c1e064 	st.d	$r4,$r3,120(0x78)
  20c964:	1a000104 	pcalau12i	$r4,8(0x8)
  20c968:	02d74084 	addi.d	$r4,$r4,1488(0x5d0)
  20c96c:	29c1c064 	st.d	$r4,$r3,112(0x70)
  20c970:	1bffffe4 	pcalau12i	$r4,-1(0xfffff)
  20c974:	02f0f09b 	addi.d	$r27,$r4,-964(0xc3c)
  20c978:	1a0000e4 	pcalau12i	$r4,7(0x7)
  20c97c:	02f66084 	addi.d	$r4,$r4,-616(0xd98)
  20c980:	29c28064 	st.d	$r4,$r3,160(0xa0)
  20c984:	03808004 	ori	$r4,$r0,0x20
  20c988:	29c32064 	st.d	$r4,$r3,200(0xc8)
  20c98c:	0015001a 	move	$r26,$r0
  20c990:	29c3c061 	st.d	$r1,$r3,240(0xf0)
  20c994:	50016800 	b	360(0x168) # 20cafc <rust_main+0x7bc>
  20c998:	29d0807b 	st.d	$r27,$r3,1056(0x420)
  20c99c:	29d0607f 	st.d	$r31,$r3,1048(0x418)
  20c9a0:	28c24064 	ld.d	$r4,$r3,144(0x90)
  20c9a4:	29d04064 	st.d	$r4,$r3,1040(0x410)
  20c9a8:	28c2c064 	ld.d	$r4,$r3,176(0xb0)
  20c9ac:	29d02064 	st.d	$r4,$r3,1032(0x408)
  20c9b0:	28c30064 	ld.d	$r4,$r3,192(0xc0)
  20c9b4:	29cfe064 	st.d	$r4,$r3,1016(0x3f8)
  20c9b8:	28c28064 	ld.d	$r4,$r3,160(0xa0)
  20c9bc:	29d00064 	st.d	$r4,$r3,1024(0x400)
  20c9c0:	29cfc064 	st.d	$r4,$r3,1008(0x3f0)
  20c9c4:	29cfa07d 	st.d	$r29,$r3,1000(0x3e8)
  20c9c8:	0010a124 	add.d	$r4,$r9,$r8
  20c9cc:	29c58064 	st.d	$r4,$r3,352(0x160)
  20c9d0:	28c32064 	ld.d	$r4,$r3,200(0xc8)
  20c9d4:	29ce0064 	st.d	$r4,$r3,896(0x380)
  20c9d8:	29cd2064 	st.d	$r4,$r3,840(0x348)
  20c9dc:	16000204 	lu32i.d	$r4,16(0x10)
  20c9e0:	29cc4064 	st.d	$r4,$r3,784(0x310)
  20c9e4:	29cb6064 	st.d	$r4,$r3,728(0x2d8)
  20c9e8:	29cda078 	st.d	$r24,$r3,872(0x368)
  20c9ec:	29cd6078 	st.d	$r24,$r3,856(0x358)
  20c9f0:	29cd0078 	st.d	$r24,$r3,832(0x340)
  20c9f4:	29ccc078 	st.d	$r24,$r3,816(0x330)
  20c9f8:	29cc8078 	st.d	$r24,$r3,800(0x320)
  20c9fc:	29cbe078 	st.d	$r24,$r3,760(0x2f8)
  20ca00:	29cba078 	st.d	$r24,$r3,744(0x2e8)
  20ca04:	29cb0078 	st.d	$r24,$r3,704(0x2c0)
  20ca08:	29cac078 	st.d	$r24,$r3,688(0x2b0)
  20ca0c:	03800c04 	ori	$r4,$r0,0x3
  20ca10:	290e2064 	st.b	$r4,$r3,904(0x388)
  20ca14:	29cde064 	st.d	$r4,$r3,888(0x378)
  20ca18:	290d4064 	st.b	$r4,$r3,848(0x350)
  20ca1c:	290c6064 	st.b	$r4,$r3,792(0x318)
  20ca20:	28c3e068 	ld.d	$r8,$r3,248(0xf8)
  20ca24:	29cc2068 	st.d	$r8,$r3,776(0x308)
  20ca28:	290b8064 	st.b	$r4,$r3,736(0x2e0)
  20ca2c:	29cb4060 	st.d	$r0,$r3,720(0x2d0)
  20ca30:	28c2e065 	ld.d	$r5,$r3,184(0xb8)
  20ca34:	28c000a5 	ld.d	$r5,$r5,0
  20ca38:	38720000 	dbar	0x0
  20ca3c:	28c34066 	ld.d	$r6,$r3,208(0xd0)
  20ca40:	28c000c6 	ld.d	$r6,$r6,0
  20ca44:	28c26067 	ld.d	$r7,$r3,152(0x98)
  20ca48:	29c82067 	st.d	$r7,$r3,520(0x208)
  20ca4c:	03801007 	ori	$r7,$r0,0x4
  20ca50:	29c84067 	st.d	$r7,$r3,528(0x210)
  20ca54:	29c80067 	st.d	$r7,$r3,512(0x200)
  20ca58:	28c2a067 	ld.d	$r7,$r3,168(0xa8)
  20ca5c:	29c7e067 	st.d	$r7,$r3,504(0x1f8)
  20ca60:	03801407 	ori	$r7,$r0,0x5
  20ca64:	29c7c067 	st.d	$r7,$r3,496(0x1f0)
  20ca68:	1a000187 	pcalau12i	$r7,12(0xc)
  20ca6c:	02fc20e7 	addi.d	$r7,$r7,-248(0xf08)
  20ca70:	29c7a067 	st.d	$r7,$r3,488(0x1e8)
  20ca74:	29c72064 	st.d	$r4,$r3,456(0x1c8)
  20ca78:	00150104 	move	$r4,$r8
  20ca7c:	16001024 	lu32i.d	$r4,129(0x81)
  20ca80:	29c78064 	st.d	$r4,$r3,480(0x1e0)
  20ca84:	03807004 	ori	$r4,$r0,0x1c
  20ca88:	29c70064 	st.d	$r4,$r3,448(0x1c0)
  20ca8c:	1a000124 	pcalau12i	$r4,9(0x9)
  20ca90:	02c2a484 	addi.d	$r4,$r4,169(0xa9)
  20ca94:	29c6e064 	st.d	$r4,$r3,440(0x1b8)
  20ca98:	29c76061 	st.d	$r1,$r3,472(0x1d8)
  20ca9c:	29c6a061 	st.d	$r1,$r3,424(0x1a8)
  20caa0:	1a000124 	pcalau12i	$r4,9(0x9)
  20caa4:	02c28084 	addi.d	$r4,$r4,160(0xa0)
  20caa8:	29c74064 	st.d	$r4,$r3,464(0x1d0)
  20caac:	29c68064 	st.d	$r4,$r3,416(0x1a0)
  20cab0:	29c6c060 	st.d	$r0,$r3,432(0x1b0)
  20cab4:	29c66060 	st.d	$r0,$r3,408(0x198)
  20cab8:	02fff8a4 	addi.d	$r4,$r5,-2(0xffe)
  20cabc:	02400485 	sltui	$r5,$r4,1(0x1)
  20cac0:	28c36064 	ld.d	$r4,$r3,216(0xd8)
  20cac4:	00139484 	masknez	$r4,$r4,$r5
  20cac8:	28c3a067 	ld.d	$r7,$r3,232(0xe8)
  20cacc:	001314e7 	maskeqz	$r7,$r7,$r5
  20cad0:	001510e4 	or	$r4,$r7,$r4
  20cad4:	28c38067 	ld.d	$r7,$r3,224(0xe0)
  20cad8:	001394e7 	masknez	$r7,$r7,$r5
  20cadc:	001314c5 	maskeqz	$r5,$r6,$r5
  20cae0:	00151ca5 	or	$r5,$r5,$r7
  20cae4:	28c0a0a6 	ld.d	$r6,$r5,40(0x28)
  20cae8:	02c66065 	addi.d	$r5,$r3,408(0x198)
  20caec:	4c0000c1 	jirl	$r1,$r6,0
  20caf0:	28c3c061 	ld.d	$r1,$r3,240(0xf0)
  20caf4:	02c0075a 	addi.d	$r26,$r26,1(0x1)
  20caf8:	02c0439c 	addi.d	$r28,$r28,16(0x10)
  20cafc:	6801a03a 	bltu	$r1,$r26,416(0x1a0) # 20cc9c <rust_main+0x95c>
  20cb00:	1a0001a4 	pcalau12i	$r4,13(0xd)
  20cb04:	28ea0085 	ld.d	$r5,$r4,-1408(0xa80)
  20cb08:	15ffffe6 	lu12i.w	$r6,-1(0xfffff)
  20cb0c:	1a0001a4 	pcalau12i	$r4,13(0xd)
  20cb10:	28ea2084 	ld.d	$r4,$r4,-1400(0xa88)
  20cb14:	1a0001a7 	pcalau12i	$r7,13(0xd)
  20cb18:	28ea40e7 	ld.d	$r7,$r7,-1392(0xa90)
  20cb1c:	14100009 	lu12i.w	$r9,32768(0x8000)
  20cb20:	6800683a 	bltu	$r1,$r26,104(0x68) # 20cb88 <rust_main+0x848>
  20cb24:	28c4a068 	ld.d	$r8,$r3,296(0x128)
  20cb28:	0010a0a5 	add.d	$r5,$r5,$r8
  20cb2c:	001498a8 	and	$r8,$r5,$r6
  20cb30:	001190e7 	sub.d	$r7,$r7,$r4
  20cb34:	0011a129 	sub.d	$r9,$r9,$r8
  20cb38:	00410b45 	slli.d	$r5,$r26,0x2
  20cb3c:	1a000106 	pcalau12i	$r6,8(0x8)
  20cb40:	02c280c6 	addi.d	$r6,$r6,160(0xa0)
  20cb44:	380818a5 	ldx.w	$r5,$r5,$r6
  20cb48:	001098ae 	add.d	$r14,$r5,$r6
  20cb4c:	28c4806a 	ld.d	$r10,$r3,288(0x120)
  20cb50:	001502c6 	move	$r6,$r22
  20cb54:	001502e5 	move	$r5,$r23
  20cb58:	001503cb 	move	$r11,$r30
  20cb5c:	28c4006c 	ld.d	$r12,$r3,256(0x100)
  20cb60:	0015032d 	move	$r13,$r25
  20cb64:	4c0001c0 	jirl	$r0,$r14,0
  20cb68:	03808405 	ori	$r5,$r0,0x21
  20cb6c:	1a000124 	pcalau12i	$r4,9(0x9)
  20cb70:	02f09486 	addi.d	$r6,$r4,-987(0xc25)
  20cb74:	1a0001a4 	pcalau12i	$r4,13(0xd)
  20cb78:	28ea6084 	ld.d	$r4,$r4,-1384(0xa98)
  20cb7c:	1a0001a7 	pcalau12i	$r7,13(0xd)
  20cb80:	28ea80e7 	ld.d	$r7,$r7,-1376(0xaa0)
  20cb84:	5000b000 	b	176(0xb0) # 20cc34 <rust_main+0x8f4>
  20cb88:	28c02387 	ld.d	$r7,$r28,8(0x8)
  20cb8c:	28c00384 	ld.d	$r4,$r28,0
  20cb90:	28c2006a 	ld.d	$r10,$r3,128(0x80)
  20cb94:	28c1c066 	ld.d	$r6,$r3,112(0x70)
  20cb98:	28c1e065 	ld.d	$r5,$r3,120(0x78)
  20cb9c:	5000a000 	b	160(0xa0) # 20cc3c <rust_main+0x8fc>
  20cba0:	03808c05 	ori	$r5,$r0,0x23
  20cba4:	1a000124 	pcalau12i	$r4,9(0x9)
  20cba8:	02f0e086 	addi.d	$r6,$r4,-968(0xc38)
  20cbac:	0380280a 	ori	$r10,$r0,0xa
  20cbb0:	1a0001a4 	pcalau12i	$r4,13(0xd)
  20cbb4:	28eaa084 	ld.d	$r4,$r4,-1368(0xaa8)
  20cbb8:	1a0001a7 	pcalau12i	$r7,13(0xd)
  20cbbc:	28eac0e7 	ld.d	$r7,$r7,-1360(0xab0)
  20cbc0:	001190e7 	sub.d	$r7,$r7,$r4
  20cbc4:	50007800 	b	120(0x78) # 20cc3c <rust_main+0x8fc>
  20cbc8:	03808c05 	ori	$r5,$r0,0x23
  20cbcc:	1a000104 	pcalau12i	$r4,8(0x8)
  20cbd0:	02d67086 	addi.d	$r6,$r4,1436(0x59c)
  20cbd4:	1a0001a4 	pcalau12i	$r4,13(0xd)
  20cbd8:	28e96084 	ld.d	$r4,$r4,-1448(0xa58)
  20cbdc:	1a0001a7 	pcalau12i	$r7,13(0xd)
  20cbe0:	28e980e7 	ld.d	$r7,$r7,-1440(0xa60)
  20cbe4:	001190e7 	sub.d	$r7,$r7,$r4
  20cbe8:	28c2006a 	ld.d	$r10,$r3,128(0x80)
  20cbec:	50005000 	b	80(0x50) # 20cc3c <rust_main+0x8fc>
  20cbf0:	03808c05 	ori	$r5,$r0,0x23
  20cbf4:	1a000124 	pcalau12i	$r4,9(0x9)
  20cbf8:	02f0b086 	addi.d	$r6,$r4,-980(0xc2c)
  20cbfc:	1a0001a4 	pcalau12i	$r4,13(0xd)
  20cc00:	28eae084 	ld.d	$r4,$r4,-1352(0xab8)
  20cc04:	1a0001a7 	pcalau12i	$r7,13(0xd)
  20cc08:	28eb00e7 	ld.d	$r7,$r7,-1344(0xac0)
  20cc0c:	001190e7 	sub.d	$r7,$r7,$r4
  20cc10:	28c4806a 	ld.d	$r10,$r3,288(0x120)
  20cc14:	50002800 	b	40(0x28) # 20cc3c <rust_main+0x8fc>
  20cc18:	03808c05 	ori	$r5,$r0,0x23
  20cc1c:	1a000124 	pcalau12i	$r4,9(0x9)
  20cc20:	02f0c486 	addi.d	$r6,$r4,-975(0xc31)
  20cc24:	1a0001a4 	pcalau12i	$r4,13(0xd)
  20cc28:	28e9e084 	ld.d	$r4,$r4,-1416(0xa78)
  20cc2c:	1a0001a7 	pcalau12i	$r7,13(0xd)
  20cc30:	28eb20e7 	ld.d	$r7,$r7,-1336(0xac8)
  20cc34:	001190e7 	sub.d	$r7,$r7,$r4
  20cc38:	28c2206a 	ld.d	$r10,$r3,136(0x88)
  20cc3c:	001500cb 	move	$r11,$r6
  20cc40:	0015014c 	move	$r12,$r10
  20cc44:	00150088 	move	$r8,$r4
  20cc48:	001500e9 	move	$r9,$r7
  20cc4c:	001500ad 	move	$r13,$r5
  20cc50:	29c6406d 	st.d	$r13,$r3,400(0x190)
  20cc54:	29c62069 	st.d	$r9,$r3,392(0x188)
  20cc58:	29c60068 	st.d	$r8,$r3,384(0x180)
  20cc5c:	29c5e06c 	st.d	$r12,$r3,376(0x178)
  20cc60:	29c5c06b 	st.d	$r11,$r3,368(0x170)
  20cc64:	28c44064 	ld.d	$r4,$r3,272(0x110)
  20cc68:	28c00084 	ld.d	$r4,$r4,0
  20cc6c:	28c42065 	ld.d	$r5,$r3,264(0x108)
  20cc70:	001290a5 	sltu	$r5,$r5,$r4
  20cc74:	02fff484 	addi.d	$r4,$r4,-3(0xffd)
  20cc78:	00129004 	sltu	$r4,$r0,$r4
  20cc7c:	00139484 	masknez	$r4,$r4,$r5
  20cc80:	28c46066 	ld.d	$r6,$r3,280(0x118)
  20cc84:	001314c5 	maskeqz	$r5,$r6,$r5
  20cc88:	001510a4 	or	$r4,$r5,$r4
  20cc8c:	5bfd0c86 	beq	$r4,$r6,-756(0x3fd0c) # 20c998 <rust_main+0x658>
  20cc90:	0343fc84 	andi	$r4,$r4,0xff
  20cc94:	43fd049f 	beqz	$r4,-764(0x7ffd04) # 20c998 <rust_main+0x658>
  20cc98:	53fe5fff 	b	-420(0xffffe5c) # 20caf4 <rust_main+0x7b4>
  20cc9c:	28c44064 	ld.d	$r4,$r3,272(0x110)
  20cca0:	28c00084 	ld.d	$r4,$r4,0
  20cca4:	28c42065 	ld.d	$r5,$r3,264(0x108)
  20cca8:	001290a5 	sltu	$r5,$r5,$r4
  20ccac:	02fff484 	addi.d	$r4,$r4,-3(0xffd)
  20ccb0:	00129004 	sltu	$r4,$r0,$r4
  20ccb4:	00139484 	masknez	$r4,$r4,$r5
  20ccb8:	28c46066 	ld.d	$r6,$r3,280(0x118)
  20ccbc:	001314c5 	maskeqz	$r5,$r6,$r5
  20ccc0:	001510a4 	or	$r4,$r5,$r4
  20ccc4:	28c3e07b 	ld.d	$r27,$r3,248(0xf8)
  20ccc8:	58000c86 	beq	$r4,$r6,12(0xc) # 20ccd4 <rust_main+0x994>
  20cccc:	0343fc84 	andi	$r4,$r4,0xff
  20ccd0:	4400b880 	bnez	$r4,184(0xb8) # 20cd88 <rust_main+0xa48>
  20ccd4:	28c2e064 	ld.d	$r4,$r3,184(0xb8)
  20ccd8:	28c00084 	ld.d	$r4,$r4,0
  20ccdc:	38720000 	dbar	0x0
  20cce0:	28c34065 	ld.d	$r5,$r3,208(0xd0)
  20cce4:	28c000a5 	ld.d	$r5,$r5,0
  20cce8:	1a000186 	pcalau12i	$r6,12(0xc)
  20ccec:	02f9c0c6 	addi.d	$r6,$r6,-400(0xe70)
  20ccf0:	29cc0066 	st.d	$r6,$r3,768(0x300)
  20ccf4:	03800c06 	ori	$r6,$r0,0x3
  20ccf8:	29cb8066 	st.d	$r6,$r3,736(0x2e0)
  20ccfc:	29cc207b 	st.d	$r27,$r3,776(0x308)
  20cd00:	00150366 	move	$r6,$r27
  20cd04:	16001186 	lu32i.d	$r6,140(0x8c)
  20cd08:	29cbe066 	st.d	$r6,$r3,760(0x2f8)
  20cd0c:	03807006 	ori	$r6,$r0,0x1c
  20cd10:	29cb6066 	st.d	$r6,$r3,728(0x2d8)
  20cd14:	1a000126 	pcalau12i	$r6,9(0x9)
  20cd18:	02c2a4c6 	addi.d	$r6,$r6,169(0xa9)
  20cd1c:	29cb4066 	st.d	$r6,$r3,720(0x2d0)
  20cd20:	29cbc061 	st.d	$r1,$r3,752(0x2f0)
  20cd24:	29cb0061 	st.d	$r1,$r3,704(0x2c0)
  20cd28:	1a000126 	pcalau12i	$r6,9(0x9)
  20cd2c:	02c280c6 	addi.d	$r6,$r6,160(0xa0)
  20cd30:	29cba066 	st.d	$r6,$r3,744(0x2e8)
  20cd34:	29cae066 	st.d	$r6,$r3,696(0x2b8)
  20cd38:	29cc6060 	st.d	$r0,$r3,792(0x318)
  20cd3c:	29cc8060 	st.d	$r0,$r3,800(0x320)
  20cd40:	29cb2060 	st.d	$r0,$r3,712(0x2c8)
  20cd44:	29cac060 	st.d	$r0,$r3,688(0x2b0)
  20cd48:	02fff884 	addi.d	$r4,$r4,-2(0xffe)
  20cd4c:	02400486 	sltui	$r6,$r4,1(0x1)
  20cd50:	28c3a067 	ld.d	$r7,$r3,232(0xe8)
  20cd54:	29cc4067 	st.d	$r7,$r3,784(0x310)
  20cd58:	28c36064 	ld.d	$r4,$r3,216(0xd8)
  20cd5c:	00139884 	masknez	$r4,$r4,$r6
  20cd60:	001318e7 	maskeqz	$r7,$r7,$r6
  20cd64:	001510e4 	or	$r4,$r7,$r4
  20cd68:	28c38067 	ld.d	$r7,$r3,224(0xe0)
  20cd6c:	001398e7 	masknez	$r7,$r7,$r6
  20cd70:	001318a5 	maskeqz	$r5,$r5,$r6
  20cd74:	00151ca5 	or	$r5,$r5,$r7
  20cd78:	28c0a0a6 	ld.d	$r6,$r5,40(0x28)
  20cd7c:	02cac065 	addi.d	$r5,$r3,688(0x2b0)
  20cd80:	4c0000c1 	jirl	$r1,$r6,0
  20cd84:	28c3c061 	ld.d	$r1,$r3,240(0xf0)
  20cd88:	28c18064 	ld.d	$r4,$r3,96(0x60)
  20cd8c:	02fe8084 	addi.d	$r4,$r4,-96(0xfa0)
  20cd90:	03802805 	ori	$r5,$r0,0xa
  20cd94:	03809406 	ori	$r6,$r0,0x25
  20cd98:	03810c07 	ori	$r7,$r0,0x43
  20cd9c:	0380cc08 	ori	$r8,$r0,0x33
  20cda0:	1a000109 	pcalau12i	$r9,8(0x8)
  20cda4:	02c00129 	addi.d	$r9,$r9,0
  20cda8:	0380840a 	ori	$r10,$r0,0x21
  20cdac:	03808c0b 	ori	$r11,$r0,0x23
  20cdb0:	0015000c 	move	$r12,$r0
  20cdb4:	00150019 	move	$r25,$r0
  20cdb8:	0015000d 	move	$r13,$r0
  20cdbc:	28c1407d 	ld.d	$r29,$r3,80(0x50)
  20cdc0:	28c2a07f 	ld.d	$r31,$r3,168(0xa8)
  20cdc4:	50005400 	b	84(0x54) # 20ce18 <rust_main+0xad8>
  20cdc8:	1a0001ae 	pcalau12i	$r14,13(0xd)
  20cdcc:	28eaa1ce 	ld.d	$r14,$r14,-1368(0xaa8)
  20cdd0:	1a0001af 	pcalau12i	$r15,13(0xd)
  20cdd4:	28eac1ef 	ld.d	$r15,$r15,-1360(0xab0)
  20cdd8:	0011b9ef 	sub.d	$r15,$r15,$r14
  20cddc:	00150172 	move	$r18,$r11
  20cde0:	001501d0 	move	$r16,$r14
  20cde4:	001501f1 	move	$r17,$r15
  20cde8:	00150253 	move	$r19,$r18
  20cdec:	00451a6e 	srli.d	$r14,$r19,0x6
  20cdf0:	0012c5af 	sltu	$r15,$r13,$r17
  20cdf4:	0014bdce 	and	$r14,$r14,$r15
  20cdf8:	0013bb2f 	masknez	$r15,$r25,$r14
  20cdfc:	00133a10 	maskeqz	$r16,$r16,$r14
  20ce00:	0013b9ad 	masknez	$r13,$r13,$r14
  20ce04:	00133a2e 	maskeqz	$r14,$r17,$r14
  20ce08:	001535cd 	or	$r13,$r14,$r13
  20ce0c:	00153e19 	or	$r25,$r16,$r15
  20ce10:	02c04084 	addi.d	$r4,$r4,16(0x10)
  20ce14:	02c0058c 	addi.d	$r12,$r12,1(0x1)
  20ce18:	6c00bd85 	bgeu	$r12,$r5,188(0xbc) # 20ced4 <rust_main+0xb94>
  20ce1c:	1a0001ae 	pcalau12i	$r14,13(0xd)
  20ce20:	28ea01cf 	ld.d	$r15,$r14,-1408(0xa80)
  20ce24:	15fffff0 	lu12i.w	$r16,-1(0xfffff)
  20ce28:	1a0001ae 	pcalau12i	$r14,13(0xd)
  20ce2c:	28ea21ce 	ld.d	$r14,$r14,-1400(0xa88)
  20ce30:	1a0001b1 	pcalau12i	$r17,13(0xd)
  20ce34:	28ea4231 	ld.d	$r17,$r17,-1392(0xa90)
  20ce38:	14100012 	lu12i.w	$r18,32768(0x8000)
  20ce3c:	68004c2c 	bltu	$r1,$r12,76(0x4c) # 20ce88 <rust_main+0xb48>
  20ce40:	28c4a073 	ld.d	$r19,$r3,296(0x128)
  20ce44:	0010cdef 	add.d	$r15,$r15,$r19
  20ce48:	0014c1f0 	and	$r16,$r15,$r16
  20ce4c:	0011ba2f 	sub.d	$r15,$r17,$r14
  20ce50:	0011c251 	sub.d	$r17,$r18,$r16
  20ce54:	00410992 	slli.d	$r18,$r12,0x2
  20ce58:	38082652 	ldx.w	$r18,$r18,$r9
  20ce5c:	0010a654 	add.d	$r20,$r18,$r9
  20ce60:	001500d2 	move	$r18,$r6
  20ce64:	001500f3 	move	$r19,$r7
  20ce68:	4c000280 	jirl	$r0,$r20,0
  20ce6c:	1a0001ae 	pcalau12i	$r14,13(0xd)
  20ce70:	28ea61ce 	ld.d	$r14,$r14,-1384(0xa98)
  20ce74:	1a0001af 	pcalau12i	$r15,13(0xd)
  20ce78:	28ea81ef 	ld.d	$r15,$r15,-1376(0xaa0)
  20ce7c:	0011b9ef 	sub.d	$r15,$r15,$r14
  20ce80:	00150152 	move	$r18,$r10
  20ce84:	53ff5fff 	b	-164(0xfffff5c) # 20cde0 <rust_main+0xaa0>
  20ce88:	28c0208f 	ld.d	$r15,$r4,8(0x8)
  20ce8c:	28c0008e 	ld.d	$r14,$r4,0
  20ce90:	00150112 	move	$r18,$r8
  20ce94:	53ff4fff 	b	-180(0xfffff4c) # 20cde0 <rust_main+0xaa0>
  20ce98:	1a0001ae 	pcalau12i	$r14,13(0xd)
  20ce9c:	28e961ce 	ld.d	$r14,$r14,-1448(0xa58)
  20cea0:	1a0001af 	pcalau12i	$r15,13(0xd)
  20cea4:	28e981ef 	ld.d	$r15,$r15,-1440(0xa60)
  20cea8:	53ff33ff 	b	-208(0xfffff30) # 20cdd8 <rust_main+0xa98>
  20ceac:	1a0001ae 	pcalau12i	$r14,13(0xd)
  20ceb0:	28eae1ce 	ld.d	$r14,$r14,-1352(0xab8)
  20ceb4:	1a0001af 	pcalau12i	$r15,13(0xd)
  20ceb8:	28eb01ef 	ld.d	$r15,$r15,-1344(0xac0)
  20cebc:	53ff1fff 	b	-228(0xfffff1c) # 20cdd8 <rust_main+0xa98>
  20cec0:	1a0001ae 	pcalau12i	$r14,13(0xd)
  20cec4:	28e9e1ce 	ld.d	$r14,$r14,-1416(0xa78)
  20cec8:	1a0001af 	pcalau12i	$r15,13(0xd)
  20cecc:	28eb21ef 	ld.d	$r15,$r15,-1336(0xac8)
  20ced0:	53ff0bff 	b	-248(0xfffff08) # 20cdd8 <rust_main+0xa98>
  20ced4:	28c18064 	ld.d	$r4,$r3,96(0x60)
  20ced8:	02fe8084 	addi.d	$r4,$r4,-96(0xfa0)
  20cedc:	03809405 	ori	$r5,$r0,0x25
  20cee0:	03810c06 	ori	$r6,$r0,0x43
  20cee4:	0380cc07 	ori	$r7,$r0,0x33
  20cee8:	1a000108 	pcalau12i	$r8,8(0x8)
  20ceec:	02c0a108 	addi.d	$r8,$r8,40(0x28)
  20cef0:	03808409 	ori	$r9,$r0,0x21
  20cef4:	03808c0a 	ori	$r10,$r0,0x23
  20cef8:	0015000b 	move	$r11,$r0
  20cefc:	6808a42b 	bltu	$r1,$r11,2212(0x8a4) # 20d7a0 <rust_main+0x1460>
  20cf00:	1a0001ac 	pcalau12i	$r12,13(0xd)
  20cf04:	28ea018d 	ld.d	$r13,$r12,-1408(0xa80)
  20cf08:	15ffffee 	lu12i.w	$r14,-1(0xfffff)
  20cf0c:	1a0001ac 	pcalau12i	$r12,13(0xd)
  20cf10:	28ea218c 	ld.d	$r12,$r12,-1400(0xa88)
  20cf14:	1a0001af 	pcalau12i	$r15,13(0xd)
  20cf18:	28ea41ef 	ld.d	$r15,$r15,-1392(0xa90)
  20cf1c:	14100010 	lu12i.w	$r16,32768(0x8000)
  20cf20:	68004c2b 	bltu	$r1,$r11,76(0x4c) # 20cf6c <rust_main+0xc2c>
  20cf24:	28c4a071 	ld.d	$r17,$r3,296(0x128)
  20cf28:	0010c5ad 	add.d	$r13,$r13,$r17
  20cf2c:	0014b9ae 	and	$r14,$r13,$r14
  20cf30:	0011b1ed 	sub.d	$r13,$r15,$r12
  20cf34:	0011ba17 	sub.d	$r23,$r16,$r14
  20cf38:	0041096f 	slli.d	$r15,$r11,0x2
  20cf3c:	380821ef 	ldx.w	$r15,$r15,$r8
  20cf40:	0010a1f1 	add.d	$r17,$r15,$r8
  20cf44:	001500af 	move	$r15,$r5
  20cf48:	001500d0 	move	$r16,$r6
  20cf4c:	4c000220 	jirl	$r0,$r17,0
  20cf50:	1a0001ac 	pcalau12i	$r12,13(0xd)
  20cf54:	28ea618c 	ld.d	$r12,$r12,-1384(0xa98)
  20cf58:	1a0001ad 	pcalau12i	$r13,13(0xd)
  20cf5c:	28ea81ad 	ld.d	$r13,$r13,-1376(0xaa0)
  20cf60:	0011b1ad 	sub.d	$r13,$r13,$r12
  20cf64:	0015012f 	move	$r15,$r9
  20cf68:	50006800 	b	104(0x68) # 20cfd0 <rust_main+0xc90>
  20cf6c:	28c0208d 	ld.d	$r13,$r4,8(0x8)
  20cf70:	28c0008c 	ld.d	$r12,$r4,0
  20cf74:	001500ef 	move	$r15,$r7
  20cf78:	50005800 	b	88(0x58) # 20cfd0 <rust_main+0xc90>
  20cf7c:	1a0001ac 	pcalau12i	$r12,13(0xd)
  20cf80:	28eaa18c 	ld.d	$r12,$r12,-1368(0xaa8)
  20cf84:	1a0001ad 	pcalau12i	$r13,13(0xd)
  20cf88:	28eac1ad 	ld.d	$r13,$r13,-1360(0xab0)
  20cf8c:	50003c00 	b	60(0x3c) # 20cfc8 <rust_main+0xc88>
  20cf90:	1a0001ac 	pcalau12i	$r12,13(0xd)
  20cf94:	28e9618c 	ld.d	$r12,$r12,-1448(0xa58)
  20cf98:	1a0001ad 	pcalau12i	$r13,13(0xd)
  20cf9c:	28e981ad 	ld.d	$r13,$r13,-1440(0xa60)
  20cfa0:	50002800 	b	40(0x28) # 20cfc8 <rust_main+0xc88>
  20cfa4:	1a0001ac 	pcalau12i	$r12,13(0xd)
  20cfa8:	28eae18c 	ld.d	$r12,$r12,-1352(0xab8)
  20cfac:	1a0001ad 	pcalau12i	$r13,13(0xd)
  20cfb0:	28eb01ad 	ld.d	$r13,$r13,-1344(0xac0)
  20cfb4:	50001400 	b	20(0x14) # 20cfc8 <rust_main+0xc88>
  20cfb8:	1a0001ac 	pcalau12i	$r12,13(0xd)
  20cfbc:	28e9e18c 	ld.d	$r12,$r12,-1416(0xa78)
  20cfc0:	1a0001ad 	pcalau12i	$r13,13(0xd)
  20cfc4:	28eb21ad 	ld.d	$r13,$r13,-1336(0xac8)
  20cfc8:	0011b1ad 	sub.d	$r13,$r13,$r12
  20cfcc:	0015014f 	move	$r15,$r10
  20cfd0:	0015018e 	move	$r14,$r12
  20cfd4:	001501b7 	move	$r23,$r13
  20cfd8:	001501f0 	move	$r16,$r15
  20cfdc:	02c04084 	addi.d	$r4,$r4,16(0x10)
  20cfe0:	02c0056b 	addi.d	$r11,$r11,1(0x1)
  20cfe4:	0341020c 	andi	$r12,$r16,0x40
  20cfe8:	43ff159f 	beqz	$r12,-236(0x7fff14) # 20cefc <rust_main+0xbbc>
  20cfec:	5fff11d9 	bne	$r14,$r25,-240(0x3ff10) # 20cefc <rust_main+0xbbc>
  20cff0:	29c58079 	st.d	$r25,$r3,352(0x160)
  20cff4:	28c44064 	ld.d	$r4,$r3,272(0x110)
  20cff8:	28c00084 	ld.d	$r4,$r4,0
  20cffc:	03801016 	ori	$r22,$r0,0x4
  20d000:	001292c5 	sltu	$r5,$r22,$r4
  20d004:	02fff084 	addi.d	$r4,$r4,-4(0xffc)
  20d008:	00129004 	sltu	$r4,$r0,$r4
  20d00c:	00139484 	masknez	$r4,$r4,$r5
  20d010:	28c46066 	ld.d	$r6,$r3,280(0x118)
  20d014:	001314c5 	maskeqz	$r5,$r6,$r5
  20d018:	001510a4 	or	$r4,$r5,$r4
  20d01c:	58001086 	beq	$r4,$r6,16(0x10) # 20d02c <rust_main+0xcec>
  20d020:	0343fc85 	andi	$r5,$r4,0xff
  20d024:	00150324 	move	$r4,$r25
  20d028:	440114a0 	bnez	$r5,276(0x114) # 20d13c <rust_main+0xdfc>
  20d02c:	28c2c064 	ld.d	$r4,$r3,176(0xb0)
  20d030:	29cfe064 	st.d	$r4,$r3,1016(0x3f8)
  20d034:	28c1a064 	ld.d	$r4,$r3,104(0x68)
  20d038:	29d00064 	st.d	$r4,$r3,1024(0x400)
  20d03c:	29cfc064 	st.d	$r4,$r3,1008(0x3f0)
  20d040:	28c30064 	ld.d	$r4,$r3,192(0xc0)
  20d044:	29cfa064 	st.d	$r4,$r3,1000(0x3e8)
  20d048:	0010e6e4 	add.d	$r4,$r23,$r25
  20d04c:	29c5c064 	st.d	$r4,$r3,368(0x170)
  20d050:	28c32064 	ld.d	$r4,$r3,200(0xc8)
  20d054:	16000084 	lu32i.d	$r4,4(0x4)
  20d058:	29c7e064 	st.d	$r4,$r3,504(0x1f8)
  20d05c:	29c70064 	st.d	$r4,$r3,448(0x1c0)
  20d060:	28c42066 	ld.d	$r6,$r3,264(0x108)
  20d064:	29080066 	st.b	$r6,$r3,512(0x200)
  20d068:	29c7c07b 	st.d	$r27,$r3,496(0x1f0)
  20d06c:	29c78078 	st.d	$r24,$r3,480(0x1e0)
  20d070:	29c74078 	st.d	$r24,$r3,464(0x1d0)
  20d074:	29072066 	st.b	$r6,$r3,456(0x1c8)
  20d078:	29c6e060 	st.d	$r0,$r3,440(0x1b8)
  20d07c:	29c6a078 	st.d	$r24,$r3,424(0x1a8)
  20d080:	29c66078 	st.d	$r24,$r3,408(0x198)
  20d084:	28c2e064 	ld.d	$r4,$r3,184(0xb8)
  20d088:	28c00084 	ld.d	$r4,$r4,0
  20d08c:	38720000 	dbar	0x0
  20d090:	28c34065 	ld.d	$r5,$r3,208(0xd0)
  20d094:	28c000a5 	ld.d	$r5,$r5,0
  20d098:	29cc807d 	st.d	$r29,$r3,800(0x320)
  20d09c:	29cca078 	st.d	$r24,$r3,808(0x328)
  20d0a0:	29cc6078 	st.d	$r24,$r3,792(0x318)
  20d0a4:	29cc407f 	st.d	$r31,$r3,784(0x310)
  20d0a8:	29cc2066 	st.d	$r6,$r3,776(0x308)
  20d0ac:	1a000146 	pcalau12i	$r6,10(0xa)
  20d0b0:	02d5a0c6 	addi.d	$r6,$r6,1384(0x568)
  20d0b4:	29cc0066 	st.d	$r6,$r3,768(0x300)
  20d0b8:	29cb8076 	st.d	$r22,$r3,736(0x2e0)
  20d0bc:	00150366 	move	$r6,$r27
  20d0c0:	16001706 	lu32i.d	$r6,184(0xb8)
  20d0c4:	29cbe066 	st.d	$r6,$r3,760(0x2f8)
  20d0c8:	03806806 	ori	$r6,$r0,0x1a
  20d0cc:	29cb6066 	st.d	$r6,$r3,728(0x2d8)
  20d0d0:	1a0000e6 	pcalau12i	$r6,7(0x7)
  20d0d4:	02d978c6 	addi.d	$r6,$r6,1630(0x65e)
  20d0d8:	29cb4066 	st.d	$r6,$r3,720(0x2d0)
  20d0dc:	28c22066 	ld.d	$r6,$r3,136(0x88)
  20d0e0:	29cbc066 	st.d	$r6,$r3,752(0x2f0)
  20d0e4:	29cb0066 	st.d	$r6,$r3,704(0x2c0)
  20d0e8:	1a0000e6 	pcalau12i	$r6,7(0x7)
  20d0ec:	02daccc6 	addi.d	$r6,$r6,1715(0x6b3)
  20d0f0:	29cba066 	st.d	$r6,$r3,744(0x2e8)
  20d0f4:	29cae066 	st.d	$r6,$r3,696(0x2b8)
  20d0f8:	29cb2060 	st.d	$r0,$r3,712(0x2c8)
  20d0fc:	29cac060 	st.d	$r0,$r3,688(0x2b0)
  20d100:	02fff884 	addi.d	$r4,$r4,-2(0xffe)
  20d104:	02400486 	sltui	$r6,$r4,1(0x1)
  20d108:	28c36064 	ld.d	$r4,$r3,216(0xd8)
  20d10c:	00139884 	masknez	$r4,$r4,$r6
  20d110:	28c3a067 	ld.d	$r7,$r3,232(0xe8)
  20d114:	001318e7 	maskeqz	$r7,$r7,$r6
  20d118:	001510e4 	or	$r4,$r7,$r4
  20d11c:	28c38067 	ld.d	$r7,$r3,224(0xe0)
  20d120:	001398e7 	masknez	$r7,$r7,$r6
  20d124:	001318a5 	maskeqz	$r5,$r5,$r6
  20d128:	00151ca5 	or	$r5,$r5,$r7
  20d12c:	28c0a0a6 	ld.d	$r6,$r5,40(0x28)
  20d130:	02cac065 	addi.d	$r5,$r3,688(0x2b0)
  20d134:	4c0000c1 	jirl	$r1,$r6,0
  20d138:	28c58064 	ld.d	$r4,$r3,352(0x160)
  20d13c:	14000105 	lu12i.w	$r5,8(0x8)
  20d140:	038004a5 	ori	$r5,$r5,0x1
  20d144:	6c0022e5 	bgeu	$r23,$r5,32(0x20) # 20d164 <rust_main+0xe24>
  20d148:	1a0000e4 	pcalau12i	$r4,7(0x7)
  20d14c:	02d9e084 	addi.d	$r4,$r4,1656(0x678)
  20d150:	03809805 	ori	$r5,$r0,0x26
  20d154:	1a000146 	pcalau12i	$r6,10(0xa)
  20d158:	02d480c6 	addi.d	$r6,$r6,1312(0x520)
  20d15c:	54312c00 	bl	12588(0x312c) # 210288 <_ZN4core9panicking5panic17hd6bc259b6eb19bb3E>
  20d160:	38600400 	amswap.w	$r0,$r1,$r0
  20d164:	00150005 	move	$r5,$r0
  20d168:	040002c5 	csrxchg	$r5,$r22,0x0
  20d16c:	001092e5 	add.d	$r5,$r23,$r4
  20d170:	28c4a067 	ld.d	$r7,$r3,296(0x128)
  20d174:	00109c84 	add.d	$r4,$r4,$r7
  20d178:	15ffffe6 	lu12i.w	$r6,-1(0xfffff)
  20d17c:	00149884 	and	$r4,$r4,$r6
  20d180:	1a0009a6 	pcalau12i	$r6,77(0x4d)
  20d184:	02c000c9 	addi.d	$r9,$r6,0
  20d188:	29c00124 	st.d	$r4,$r9,0
  20d18c:	001190a4 	sub.d	$r4,$r5,$r4
  20d190:	00453085 	srli.d	$r5,$r4,0xc
  20d194:	29c02125 	st.d	$r5,$r9,8(0x8)
  20d198:	001500e6 	move	$r6,$r7
  20d19c:	16000026 	lu32i.d	$r6,1(0x1)
  20d1a0:	6c0020c4 	bgeu	$r6,$r4,32(0x20) # 20d1c0 <rust_main+0xe80>
  20d1a4:	1a0000e4 	pcalau12i	$r4,7(0x7)
  20d1a8:	02d8f084 	addi.d	$r4,$r4,1596(0x63c)
  20d1ac:	03808805 	ori	$r5,$r0,0x22
  20d1b0:	1a000146 	pcalau12i	$r6,10(0xa)
  20d1b4:	02d220c6 	addi.d	$r6,$r6,1160(0x488)
  20d1b8:	5430d000 	bl	12496(0x30d0) # 210288 <_ZN4core9panicking5panic17hd6bc259b6eb19bb3E>
  20d1bc:	38600400 	amswap.w	$r0,$r1,$r0
  20d1c0:	00cf00aa 	bstrpick.d	$r10,$r5,0xf,0x0
  20d1c4:	00457086 	srli.d	$r6,$r4,0x1c
  20d1c8:	02fffca4 	addi.d	$r4,$r5,-1(0xfff)
  20d1cc:	00454085 	srli.d	$r5,$r4,0x10
  20d1d0:	03803c0b 	ori	$r11,$r0,0xf
  20d1d4:	0388880c 	ori	$r12,$r0,0x222
  20d1d8:	00150004 	move	$r4,$r0
  20d1dc:	29c40076 	st.d	$r22,$r3,256(0x100)
  20d1e0:	29c26069 	st.d	$r9,$r3,152(0x98)
  20d1e4:	29c2406a 	st.d	$r10,$r3,144(0x90)
  20d1e8:	29c20066 	st.d	$r6,$r3,128(0x80)
  20d1ec:	29c1e065 	st.d	$r5,$r3,120(0x78)
  20d1f0:	6802c564 	bltu	$r11,$r4,708(0x2c4) # 20d4b4 <rust_main+0x1174>
  20d1f4:	00129485 	sltu	$r5,$r4,$r5
  20d1f8:	00109485 	add.d	$r5,$r4,$r5
  20d1fc:	29c48065 	st.d	$r5,$r3,288(0x120)
  20d200:	001590c5 	xor	$r5,$r6,$r4
  20d204:	14000046 	lu12i.w	$r6,2(0x2)
  20d208:	038888c7 	ori	$r7,$r6,0x222
  20d20c:	001d9c87 	mul.d	$r7,$r4,$r7
  20d210:	024004a5 	sltui	$r5,$r5,1(0x1)
  20d214:	14000208 	lu12i.w	$r8,16(0x10)
  20d218:	00139508 	masknez	$r8,$r8,$r5
  20d21c:	00131545 	maskeqz	$r5,$r10,$r5
  20d220:	001520a5 	or	$r5,$r5,$r8
  20d224:	00109d27 	add.d	$r7,$r9,$r7
  20d228:	0388e0c6 	ori	$r6,$r6,0x238
  20d22c:	001098ee 	add.d	$r14,$r7,$r6
  20d230:	02c060ef 	addi.d	$r15,$r7,24(0x18)
  20d234:	037ffcb0 	andi	$r16,$r5,0xfff
  20d238:	004530b1 	srli.d	$r17,$r5,0xc
  20d23c:	02fffca5 	addi.d	$r5,$r5,-1(0xfff)
  20d240:	004530b2 	srli.d	$r18,$r5,0xc
  20d244:	00150009 	move	$r9,$r0
  20d248:	68025569 	bltu	$r11,$r9,596(0x254) # 20d49c <rust_main+0x115c>
  20d24c:	0012c925 	sltu	$r5,$r9,$r18
  20d250:	00109533 	add.d	$r19,$r9,$r5
  20d254:	0015a625 	xor	$r5,$r17,$r9
  20d258:	024004a5 	sltui	$r5,$r5,1(0x1)
  20d25c:	14000026 	lu12i.w	$r6,1(0x1)
  20d260:	001394c6 	masknez	$r6,$r6,$r5
  20d264:	00131605 	maskeqz	$r5,$r16,$r5
  20d268:	001518a5 	or	$r5,$r5,$r6
  20d26c:	001db126 	mul.d	$r6,$r9,$r12
  20d270:	001099f4 	add.d	$r20,$r15,$r6
  20d274:	02c88297 	addi.d	$r23,$r20,544(0x220)
  20d278:	0343fcbb 	andi	$r27,$r5,0xff
  20d27c:	004520bc 	srli.d	$r28,$r5,0x8
  20d280:	02fffca5 	addi.d	$r5,$r5,-1(0xfff)
  20d284:	004520bd 	srli.d	$r29,$r5,0x8
  20d288:	00150008 	move	$r8,$r0
  20d28c:	6801dd68 	bltu	$r11,$r8,476(0x1dc) # 20d468 <rust_main+0x1128>
  20d290:	0012f505 	sltu	$r5,$r8,$r29
  20d294:	0010951e 	add.d	$r30,$r8,$r5
  20d298:	0015a385 	xor	$r5,$r28,$r8
  20d29c:	024004a5 	sltui	$r5,$r5,1(0x1)
  20d2a0:	03840006 	ori	$r6,$r0,0x100
  20d2a4:	001394c6 	masknez	$r6,$r6,$r5
  20d2a8:	00131765 	maskeqz	$r5,$r27,$r5
  20d2ac:	001518a6 	or	$r6,$r5,$r6
  20d2b0:	03808805 	ori	$r5,$r0,0x22
  20d2b4:	001d9505 	mul.d	$r5,$r8,$r5
  20d2b8:	0010969f 	add.d	$r31,$r20,$r5
  20d2bc:	02c083e1 	addi.d	$r1,$r31,32(0x20)
  20d2c0:	03403ccd 	andi	$r13,$r6,0xf
  20d2c4:	004510c5 	srli.d	$r5,$r6,0x4
  20d2c8:	02fffcc6 	addi.d	$r6,$r6,-1(0xfff)
  20d2cc:	004510c6 	srli.d	$r6,$r6,0x4
  20d2d0:	00150007 	move	$r7,$r0
  20d2d4:	68017d67 	bltu	$r11,$r7,380(0x17c) # 20d450 <rust_main+0x1110>
  20d2d8:	00159caa 	xor	$r10,$r5,$r7
  20d2dc:	0240054a 	sltui	$r10,$r10,1(0x1)
  20d2e0:	0380401a 	ori	$r26,$r0,0x10
  20d2e4:	0013ab5a 	masknez	$r26,$r26,$r10
  20d2e8:	001329aa 	maskeqz	$r10,$r13,$r10
  20d2ec:	0015694a 	or	$r10,$r10,$r26
  20d2f0:	40019140 	beqz	$r10,400(0x190) # 20d480 <rust_main+0x1140>
  20d2f4:	0011a80a 	sub.d	$r10,$r0,$r10
  20d2f8:	03403d4a 	andi	$r10,$r10,0xf
  20d2fc:	140001fa 	lu12i.w	$r26,15(0xf)
  20d300:	03bfff5a 	ori	$r26,$r26,0xfff
  20d304:	00192b4a 	srl.d	$r10,$r26,$r10
  20d308:	004104fa 	slli.d	$r26,$r7,0x1
  20d30c:	38046bf6 	ldx.h	$r22,$r31,$r26
  20d310:	00152aca 	or	$r10,$r22,$r10
  20d314:	38146bea 	stx.h	$r10,$r31,$r26
  20d318:	28c3e06a 	ld.d	$r10,$r3,248(0xf8)
  20d31c:	00189d4a 	sll.d	$r10,$r10,$r7
  20d320:	28400036 	ld.h	$r22,$r1,0
  20d324:	00152aca 	or	$r10,$r22,$r10
  20d328:	2940002a 	st.h	$r10,$r1,0
  20d32c:	6c0010e6 	bgeu	$r7,$r6,16(0x10) # 20d33c <rust_main+0xffc>
  20d330:	001298ea 	sltu	$r10,$r7,$r6
  20d334:	0010a8e7 	add.d	$r7,$r7,$r10
  20d338:	6fff9cc7 	bgeu	$r6,$r7,-100(0x3ff9c) # 20d2d4 <rust_main+0xf94>
  20d33c:	03403d05 	andi	$r5,$r8,0xf
  20d340:	28c3e067 	ld.d	$r7,$r3,248(0xf8)
  20d344:	001894e5 	sll.d	$r5,$r7,$r5
  20d348:	284002e6 	ld.h	$r6,$r23,0
  20d34c:	001514c5 	or	$r5,$r6,$r5
  20d350:	294002e5 	st.h	$r5,$r23,0
  20d354:	6c000d1d 	bgeu	$r8,$r29,12(0xc) # 20d360 <rust_main+0x1020>
  20d358:	001503c8 	move	$r8,$r30
  20d35c:	6fff33be 	bgeu	$r29,$r30,-208(0x3ff30) # 20d28c <rust_main+0xf4c>
  20d360:	03403d25 	andi	$r5,$r9,0xf
  20d364:	001894e5 	sll.d	$r5,$r7,$r5
  20d368:	284001c6 	ld.h	$r6,$r14,0
  20d36c:	001514c5 	or	$r5,$r6,$r5
  20d370:	294001c5 	st.h	$r5,$r14,0
  20d374:	6c000d32 	bgeu	$r9,$r18,12(0xc) # 20d380 <rust_main+0x1040>
  20d378:	00150269 	move	$r9,$r19
  20d37c:	6ffece53 	bgeu	$r18,$r19,-308(0x3fecc) # 20d248 <rust_main+0xf08>
  20d380:	03403c85 	andi	$r5,$r4,0xf
  20d384:	001894e5 	sll.d	$r5,$r7,$r5
  20d388:	14000446 	lu12i.w	$r6,34(0x22)
  20d38c:	0388e0c6 	ori	$r6,$r6,0x238
  20d390:	28c26069 	ld.d	$r9,$r3,152(0x98)
  20d394:	38041927 	ldx.h	$r7,$r9,$r6
  20d398:	001514e5 	or	$r5,$r7,$r5
  20d39c:	38141925 	stx.h	$r5,$r9,$r6
  20d3a0:	28c40076 	ld.d	$r22,$r3,256(0x100)
  20d3a4:	28c2406a 	ld.d	$r10,$r3,144(0x90)
  20d3a8:	28c20066 	ld.d	$r6,$r3,128(0x80)
  20d3ac:	28c1e065 	ld.d	$r5,$r3,120(0x78)
  20d3b0:	6c001085 	bgeu	$r4,$r5,16(0x10) # 20d3c0 <rust_main+0x1080>
  20d3b4:	28c48067 	ld.d	$r7,$r3,288(0x120)
  20d3b8:	001500e4 	move	$r4,$r7
  20d3bc:	6ffe34a7 	bgeu	$r5,$r7,-460(0x3fe34) # 20d1f0 <rust_main+0xeb0>
  20d3c0:	001502c4 	move	$r4,$r22
  20d3c4:	040002c4 	csrxchg	$r4,$r22,0x0
  20d3c8:	00150004 	move	$r4,$r0
  20d3cc:	040002c4 	csrxchg	$r4,$r22,0x0
  20d3d0:	02cac064 	addi.d	$r4,$r3,688(0x2b0)
  20d3d4:	03802005 	ori	$r5,$r0,0x8
  20d3d8:	5773d7ff 	bl	-35884(0xfff73d4) # 2047ac <_ZN92_$LT$allocator..bitmap..BitmapPageAllocator$LT$_$GT$$u20$as$u20$allocator..PageAllocator$GT$11alloc_pages17hf34805857cf55369E>
  20d3dc:	001502c4 	move	$r4,$r22
  20d3e0:	040002c4 	csrxchg	$r4,$r22,0x0
  20d3e4:	2a0ac064 	ld.bu	$r4,$r3,688(0x2b0)
  20d3e8:	4400e080 	bnez	$r4,224(0xe0) # 20d4c8 <rust_main+0x1188>
  20d3ec:	28cae077 	ld.d	$r23,$r3,696(0x2b8)
  20d3f0:	00150004 	move	$r4,$r0
  20d3f4:	28c40065 	ld.d	$r5,$r3,256(0x100)
  20d3f8:	040000a4 	csrxchg	$r4,$r5,0x0
  20d3fc:	037ffee4 	andi	$r4,$r23,0xfff
  20d400:	4400f880 	bnez	$r4,248(0xf8) # 20d4f8 <rust_main+0x11b8>
  20d404:	02cac076 	addi.d	$r22,$r3,688(0x2b0)
  20d408:	03846006 	ori	$r6,$r0,0x118
  20d40c:	001502c4 	move	$r4,$r22
  20d410:	00150005 	move	$r5,$r0
  20d414:	5464b000 	bl	25776(0x64b0) # 2138c4 <memset>
  20d418:	02bfe004 	addi.w	$r4,$r0,-8(0xff8)
  20d41c:	001492e5 	and	$r5,$r23,$r4
  20d420:	14000106 	lu12i.w	$r6,8(0x8)
  20d424:	001098a5 	add.d	$r5,$r5,$r6
  20d428:	02c01ee6 	addi.d	$r6,$r23,7(0x7)
  20d42c:	001490c6 	and	$r6,$r6,$r4
  20d430:	6c00e4a6 	bgeu	$r5,$r6,228(0xe4) # 20d514 <rust_main+0x11d4>
  20d434:	1a000124 	pcalau12i	$r4,9(0x9)
  20d438:	02c75c84 	addi.d	$r4,$r4,471(0x1d7)
  20d43c:	03807805 	ori	$r5,$r0,0x1e
  20d440:	1a000166 	pcalau12i	$r6,11(0xb)
  20d444:	02dd40c6 	addi.d	$r6,$r6,1872(0x750)
  20d448:	542e4000 	bl	11840(0x2e40) # 210288 <_ZN4core9panicking5panic17hd6bc259b6eb19bb3E>
  20d44c:	38600400 	amswap.w	$r0,$r1,$r0
  20d450:	03804005 	ori	$r5,$r0,0x10
  20d454:	1a000144 	pcalau12i	$r4,10(0xa)
  20d458:	02d1c086 	addi.d	$r6,$r4,1136(0x470)
  20d45c:	001500e4 	move	$r4,$r7
  20d460:	54307400 	bl	12404(0x3074) # 2104d4 <_ZN4core9panicking18panic_bounds_check17h5afa83c7f9faa757E>
  20d464:	38600400 	amswap.w	$r0,$r1,$r0
  20d468:	03804005 	ori	$r5,$r0,0x10
  20d46c:	1a000144 	pcalau12i	$r4,10(0xa)
  20d470:	02d1c086 	addi.d	$r6,$r4,1136(0x470)
  20d474:	00150104 	move	$r4,$r8
  20d478:	54305c00 	bl	12380(0x305c) # 2104d4 <_ZN4core9panicking18panic_bounds_check17h5afa83c7f9faa757E>
  20d47c:	38600400 	amswap.w	$r0,$r1,$r0
  20d480:	1a000124 	pcalau12i	$r4,9(0x9)
  20d484:	02c27084 	addi.d	$r4,$r4,156(0x9c)
  20d488:	0380a405 	ori	$r5,$r0,0x29
  20d48c:	1a000166 	pcalau12i	$r6,11(0xb)
  20d490:	02fdc0c6 	addi.d	$r6,$r6,-144(0xf70)
  20d494:	542df400 	bl	11764(0x2df4) # 210288 <_ZN4core9panicking5panic17hd6bc259b6eb19bb3E>
  20d498:	38600400 	amswap.w	$r0,$r1,$r0
  20d49c:	03804005 	ori	$r5,$r0,0x10
  20d4a0:	1a000144 	pcalau12i	$r4,10(0xa)
  20d4a4:	02d1c086 	addi.d	$r6,$r4,1136(0x470)
  20d4a8:	00150124 	move	$r4,$r9
  20d4ac:	54302800 	bl	12328(0x3028) # 2104d4 <_ZN4core9panicking18panic_bounds_check17h5afa83c7f9faa757E>
  20d4b0:	38600400 	amswap.w	$r0,$r1,$r0
  20d4b4:	03804005 	ori	$r5,$r0,0x10
  20d4b8:	1a000146 	pcalau12i	$r6,10(0xa)
  20d4bc:	02d1c0c6 	addi.d	$r6,$r6,1136(0x470)
  20d4c0:	54301400 	bl	12308(0x3014) # 2104d4 <_ZN4core9panicking18panic_bounds_check17h5afa83c7f9faa757E>
  20d4c4:	38600400 	amswap.w	$r0,$r1,$r0
  20d4c8:	280ac464 	ld.b	$r4,$r3,689(0x2b1)
  20d4cc:	29066064 	st.b	$r4,$r3,408(0x198)
  20d4d0:	1a000124 	pcalau12i	$r4,9(0x9)
  20d4d4:	02f96884 	addi.d	$r4,$r4,-422(0xe5a)
  20d4d8:	0380ac05 	ori	$r5,$r0,0x2b
  20d4dc:	02c66066 	addi.d	$r6,$r3,408(0x198)
  20d4e0:	1a000147 	pcalau12i	$r7,10(0xa)
  20d4e4:	02d3a0e7 	addi.d	$r7,$r7,1256(0x4e8)
  20d4e8:	1a000148 	pcalau12i	$r8,10(0xa)
  20d4ec:	02d42108 	addi.d	$r8,$r8,1288(0x508)
  20d4f0:	542d2800 	bl	11560(0x2d28) # 210218 <_ZN4core6result13unwrap_failed17h1feb0e9befb8d2f9E>
  20d4f4:	38600400 	amswap.w	$r0,$r1,$r0
  20d4f8:	1a000124 	pcalau12i	$r4,9(0x9)
  20d4fc:	02c87484 	addi.d	$r4,$r4,541(0x21d)
  20d500:	03809005 	ori	$r5,$r0,0x24
  20d504:	1a000166 	pcalau12i	$r6,11(0xb)
  20d508:	02df80c6 	addi.d	$r6,$r6,2016(0x7e0)
  20d50c:	542d7c00 	bl	11644(0x2d7c) # 210288 <_ZN4core9panicking5panic17hd6bc259b6eb19bb3E>
  20d510:	38600400 	amswap.w	$r0,$r1,$r0
  20d514:	02c020c4 	addi.d	$r4,$r6,8(0x8)
  20d518:	6c19b8a4 	bgeu	$r5,$r4,6584(0x19b8) # 20eed0 <rust_main+0x2b90>
  20d51c:	00150004 	move	$r4,$r0
  20d520:	29cf0064 	st.d	$r4,$r3,960(0x3c0)
  20d524:	02c66064 	addi.d	$r4,$r3,408(0x198)
  20d528:	02cac065 	addi.d	$r5,$r3,688(0x2b0)
  20d52c:	03846006 	ori	$r6,$r0,0x118
  20d530:	54639c00 	bl	25500(0x639c) # 2138cc <memcpy>
  20d534:	14000444 	lu12i.w	$r4,34(0x22)
  20d538:	03890084 	ori	$r4,$r4,0x240
  20d53c:	28c26065 	ld.d	$r5,$r3,152(0x98)
  20d540:	380c10a4 	ldx.d	$r4,$r5,$r4
  20d544:	40020880 	beqz	$r4,520(0x208) # 20d74c <rust_main+0x140c>
  20d548:	14000444 	lu12i.w	$r4,34(0x22)
  20d54c:	03894084 	ori	$r4,$r4,0x250
  20d550:	28c26065 	ld.d	$r5,$r3,152(0x98)
  20d554:	380c10a4 	ldx.d	$r4,$r5,$r4
  20d558:	40003880 	beqz	$r4,56(0x38) # 20d590 <rust_main+0x1250>
  20d55c:	14000445 	lu12i.w	$r5,34(0x22)
  20d560:	038920a5 	ori	$r5,$r5,0x248
  20d564:	28c26066 	ld.d	$r6,$r3,152(0x98)
  20d568:	380c14c5 	ldx.d	$r5,$r6,$r5
  20d56c:	28c00086 	ld.d	$r6,$r4,0
  20d570:	29c00080 	st.d	$r0,$r4,0
  20d574:	02fffca5 	addi.d	$r5,$r5,-1(0xfff)
  20d578:	001500c4 	move	$r4,$r6
  20d57c:	47fff0df 	bnez	$r6,-16(0x7ffff0) # 20d56c <rust_main+0x122c>
  20d580:	14000444 	lu12i.w	$r4,34(0x22)
  20d584:	03892084 	ori	$r4,$r4,0x248
  20d588:	28c26066 	ld.d	$r6,$r3,152(0x98)
  20d58c:	381c10c5 	stx.d	$r5,$r6,$r4
  20d590:	14000444 	lu12i.w	$r4,34(0x22)
  20d594:	03892084 	ori	$r4,$r4,0x248
  20d598:	28c26065 	ld.d	$r5,$r3,152(0x98)
  20d59c:	001090a4 	add.d	$r4,$r5,$r4
  20d5a0:	29c02080 	st.d	$r0,$r4,8(0x8)
  20d5a4:	28c08084 	ld.d	$r4,$r4,32(0x20)
  20d5a8:	40003880 	beqz	$r4,56(0x38) # 20d5e0 <rust_main+0x12a0>
  20d5ac:	14000445 	lu12i.w	$r5,34(0x22)
  20d5b0:	038980a5 	ori	$r5,$r5,0x260
  20d5b4:	28c26066 	ld.d	$r6,$r3,152(0x98)
  20d5b8:	380c14c5 	ldx.d	$r5,$r6,$r5
  20d5bc:	28c00086 	ld.d	$r6,$r4,0
  20d5c0:	29c00080 	st.d	$r0,$r4,0
  20d5c4:	02fffca5 	addi.d	$r5,$r5,-1(0xfff)
  20d5c8:	001500c4 	move	$r4,$r6
  20d5cc:	47fff0df 	bnez	$r6,-16(0x7ffff0) # 20d5bc <rust_main+0x127c>
  20d5d0:	14000444 	lu12i.w	$r4,34(0x22)
  20d5d4:	03898084 	ori	$r4,$r4,0x260
  20d5d8:	28c26066 	ld.d	$r6,$r3,152(0x98)
  20d5dc:	381c10c5 	stx.d	$r5,$r6,$r4
  20d5e0:	14000444 	lu12i.w	$r4,34(0x22)
  20d5e4:	03892084 	ori	$r4,$r4,0x248
  20d5e8:	28c26065 	ld.d	$r5,$r3,152(0x98)
  20d5ec:	001090a4 	add.d	$r4,$r5,$r4
  20d5f0:	29c08080 	st.d	$r0,$r4,32(0x20)
  20d5f4:	28c0e084 	ld.d	$r4,$r4,56(0x38)
  20d5f8:	40003880 	beqz	$r4,56(0x38) # 20d630 <rust_main+0x12f0>
  20d5fc:	14000445 	lu12i.w	$r5,34(0x22)
  20d600:	0389e0a5 	ori	$r5,$r5,0x278
  20d604:	28c26066 	ld.d	$r6,$r3,152(0x98)
  20d608:	380c14c5 	ldx.d	$r5,$r6,$r5
  20d60c:	28c00086 	ld.d	$r6,$r4,0
  20d610:	29c00080 	st.d	$r0,$r4,0
  20d614:	02fffca5 	addi.d	$r5,$r5,-1(0xfff)
  20d618:	001500c4 	move	$r4,$r6
  20d61c:	47fff0df 	bnez	$r6,-16(0x7ffff0) # 20d60c <rust_main+0x12cc>
  20d620:	14000444 	lu12i.w	$r4,34(0x22)
  20d624:	0389e084 	ori	$r4,$r4,0x278
  20d628:	28c26066 	ld.d	$r6,$r3,152(0x98)
  20d62c:	381c10c5 	stx.d	$r5,$r6,$r4
  20d630:	14000444 	lu12i.w	$r4,34(0x22)
  20d634:	03892084 	ori	$r4,$r4,0x248
  20d638:	28c26065 	ld.d	$r5,$r3,152(0x98)
  20d63c:	001090a4 	add.d	$r4,$r5,$r4
  20d640:	29c0e080 	st.d	$r0,$r4,56(0x38)
  20d644:	28c14084 	ld.d	$r4,$r4,80(0x50)
  20d648:	40003880 	beqz	$r4,56(0x38) # 20d680 <rust_main+0x1340>
  20d64c:	14000445 	lu12i.w	$r5,34(0x22)
  20d650:	038a40a5 	ori	$r5,$r5,0x290
  20d654:	28c26066 	ld.d	$r6,$r3,152(0x98)
  20d658:	380c14c5 	ldx.d	$r5,$r6,$r5
  20d65c:	28c00086 	ld.d	$r6,$r4,0
  20d660:	29c00080 	st.d	$r0,$r4,0
  20d664:	02fffca5 	addi.d	$r5,$r5,-1(0xfff)
  20d668:	001500c4 	move	$r4,$r6
  20d66c:	47fff0df 	bnez	$r6,-16(0x7ffff0) # 20d65c <rust_main+0x131c>
  20d670:	14000444 	lu12i.w	$r4,34(0x22)
  20d674:	038a4084 	ori	$r4,$r4,0x290
  20d678:	28c26066 	ld.d	$r6,$r3,152(0x98)
  20d67c:	381c10c5 	stx.d	$r5,$r6,$r4
  20d680:	14000444 	lu12i.w	$r4,34(0x22)
  20d684:	03892084 	ori	$r4,$r4,0x248
  20d688:	28c26065 	ld.d	$r5,$r3,152(0x98)
  20d68c:	001090a4 	add.d	$r4,$r5,$r4
  20d690:	29c14080 	st.d	$r0,$r4,80(0x50)
  20d694:	28c1a084 	ld.d	$r4,$r4,104(0x68)
  20d698:	40003880 	beqz	$r4,56(0x38) # 20d6d0 <rust_main+0x1390>
  20d69c:	14000445 	lu12i.w	$r5,34(0x22)
  20d6a0:	038aa0a5 	ori	$r5,$r5,0x2a8
  20d6a4:	28c26066 	ld.d	$r6,$r3,152(0x98)
  20d6a8:	380c14c5 	ldx.d	$r5,$r6,$r5
  20d6ac:	28c00086 	ld.d	$r6,$r4,0
  20d6b0:	29c00080 	st.d	$r0,$r4,0
  20d6b4:	02fffca5 	addi.d	$r5,$r5,-1(0xfff)
  20d6b8:	001500c4 	move	$r4,$r6
  20d6bc:	47fff0df 	bnez	$r6,-16(0x7ffff0) # 20d6ac <rust_main+0x136c>
  20d6c0:	14000444 	lu12i.w	$r4,34(0x22)
  20d6c4:	038aa084 	ori	$r4,$r4,0x2a8
  20d6c8:	28c26066 	ld.d	$r6,$r3,152(0x98)
  20d6cc:	381c10c5 	stx.d	$r5,$r6,$r4
  20d6d0:	14000444 	lu12i.w	$r4,34(0x22)
  20d6d4:	03892084 	ori	$r4,$r4,0x248
  20d6d8:	28c26065 	ld.d	$r5,$r3,152(0x98)
  20d6dc:	001090a4 	add.d	$r4,$r5,$r4
  20d6e0:	29c1a080 	st.d	$r0,$r4,104(0x68)
  20d6e4:	28c20084 	ld.d	$r4,$r4,128(0x80)
  20d6e8:	40003880 	beqz	$r4,56(0x38) # 20d720 <rust_main+0x13e0>
  20d6ec:	14000445 	lu12i.w	$r5,34(0x22)
  20d6f0:	038b00a5 	ori	$r5,$r5,0x2c0
  20d6f4:	28c26066 	ld.d	$r6,$r3,152(0x98)
  20d6f8:	380c14c5 	ldx.d	$r5,$r6,$r5
  20d6fc:	28c00086 	ld.d	$r6,$r4,0
  20d700:	29c00080 	st.d	$r0,$r4,0
  20d704:	02fffca5 	addi.d	$r5,$r5,-1(0xfff)
  20d708:	001500c4 	move	$r4,$r6
  20d70c:	47fff0df 	bnez	$r6,-16(0x7ffff0) # 20d6fc <rust_main+0x13bc>
  20d710:	14000444 	lu12i.w	$r4,34(0x22)
  20d714:	038b0084 	ori	$r4,$r4,0x2c0
  20d718:	28c26066 	ld.d	$r6,$r3,152(0x98)
  20d71c:	381c10c5 	stx.d	$r5,$r6,$r4
  20d720:	14000444 	lu12i.w	$r4,34(0x22)
  20d724:	03892084 	ori	$r4,$r4,0x248
  20d728:	28c26065 	ld.d	$r5,$r3,152(0x98)
  20d72c:	001090a4 	add.d	$r4,$r5,$r4
  20d730:	29c20080 	st.d	$r0,$r4,128(0x80)
  20d734:	28c26084 	ld.d	$r4,$r4,152(0x98)
  20d738:	40001480 	beqz	$r4,20(0x14) # 20d74c <rust_main+0x140c>
  20d73c:	28c00085 	ld.d	$r5,$r4,0
  20d740:	29c00080 	st.d	$r0,$r4,0
  20d744:	001500a4 	move	$r4,$r5
  20d748:	47fff4bf 	bnez	$r5,-12(0x7ffff4) # 20d73c <rust_main+0x13fc>
  20d74c:	14000456 	lu12i.w	$r22,34(0x22)
  20d750:	038902c4 	ori	$r4,$r22,0x240
  20d754:	28c3e07b 	ld.d	$r27,$r3,248(0xf8)
  20d758:	28c26077 	ld.d	$r23,$r3,152(0x98)
  20d75c:	381c12fb 	stx.d	$r27,$r23,$r4
  20d760:	038922c4 	ori	$r4,$r22,0x248
  20d764:	001092e4 	add.d	$r4,$r23,$r4
  20d768:	0382a006 	ori	$r6,$r0,0xa8
  20d76c:	00150005 	move	$r5,$r0
  20d770:	54615400 	bl	24916(0x6154) # 2138c4 <memset>
  20d774:	038bc2c4 	ori	$r4,$r22,0x2f0
  20d778:	001092e4 	add.d	$r4,$r23,$r4
  20d77c:	02c66065 	addi.d	$r5,$r3,408(0x198)
  20d780:	03846006 	ori	$r6,$r0,0x118
  20d784:	54614800 	bl	24904(0x6148) # 2138cc <memcpy>
  20d788:	28c40065 	ld.d	$r5,$r3,256(0x100)
  20d78c:	001500a4 	move	$r4,$r5
  20d790:	040000a4 	csrxchg	$r4,$r5,0x0
  20d794:	28c1407d 	ld.d	$r29,$r3,80(0x50)
  20d798:	28c2a07f 	ld.d	$r31,$r3,168(0xa8)
  20d79c:	28c3c061 	ld.d	$r1,$r3,240(0xf0)
  20d7a0:	03809416 	ori	$r22,$r0,0x25
  20d7a4:	03810c1a 	ori	$r26,$r0,0x43
  20d7a8:	0380cc04 	ori	$r4,$r0,0x33
  20d7ac:	29c40064 	st.d	$r4,$r3,256(0x100)
  20d7b0:	0380100b 	ori	$r11,$r0,0x4
  20d7b4:	1a0009a4 	pcalau12i	$r4,77(0x4d)
  20d7b8:	02c0009c 	addi.d	$r28,$r4,0
  20d7bc:	0015001e 	move	$r30,$r0
  20d7c0:	29c4806b 	st.d	$r11,$r3,288(0x120)
  20d7c4:	50002000 	b	32(0x20) # 20d7e4 <rust_main+0x14a4>
  20d7c8:	14000444 	lu12i.w	$r4,34(0x22)
  20d7cc:	03900084 	ori	$r4,$r4,0x400
  20d7d0:	380c1385 	ldx.d	$r5,$r28,$r4
  20d7d4:	00109ca5 	add.d	$r5,$r5,$r7
  20d7d8:	381c1385 	stx.d	$r5,$r28,$r4
  20d7dc:	00150164 	move	$r4,$r11
  20d7e0:	04000164 	csrxchg	$r4,$r11,0x0
  20d7e4:	6803043e 	bltu	$r1,$r30,772(0x304) # 20dae8 <rust_main+0x17a8>
  20d7e8:	1a000184 	pcalau12i	$r4,12(0xc)
  20d7ec:	28ea0084 	ld.d	$r4,$r4,-1408(0xa80)
  20d7f0:	15ffffe6 	lu12i.w	$r6,-1(0xfffff)
  20d7f4:	1a000185 	pcalau12i	$r5,12(0xc)
  20d7f8:	28ea20a5 	ld.d	$r5,$r5,-1400(0xa88)
  20d7fc:	1a000187 	pcalau12i	$r7,12(0xc)
  20d800:	28ea40e7 	ld.d	$r7,$r7,-1392(0xa90)
  20d804:	14100008 	lu12i.w	$r8,32768(0x8000)
  20d808:	6800503e 	bltu	$r1,$r30,80(0x50) # 20d858 <rust_main+0x1518>
  20d80c:	28c4a069 	ld.d	$r9,$r3,296(0x128)
  20d810:	0010a484 	add.d	$r4,$r4,$r9
  20d814:	00149884 	and	$r4,$r4,$r6
  20d818:	001194e7 	sub.d	$r7,$r7,$r5
  20d81c:	00119117 	sub.d	$r23,$r8,$r4
  20d820:	00410bc6 	slli.d	$r6,$r30,0x2
  20d824:	1a0000e8 	pcalau12i	$r8,7(0x7)
  20d828:	02c14108 	addi.d	$r8,$r8,80(0x50)
  20d82c:	380820c6 	ldx.w	$r6,$r6,$r8
  20d830:	0010a0c9 	add.d	$r9,$r6,$r8
  20d834:	001502c6 	move	$r6,$r22
  20d838:	00150348 	move	$r8,$r26
  20d83c:	4c000120 	jirl	$r0,$r9,0
  20d840:	03808406 	ori	$r6,$r0,0x21
  20d844:	1a000184 	pcalau12i	$r4,12(0xc)
  20d848:	28ea6085 	ld.d	$r5,$r4,-1384(0xa98)
  20d84c:	1a000184 	pcalau12i	$r4,12(0xc)
  20d850:	28ea8084 	ld.d	$r4,$r4,-1376(0xaa0)
  20d854:	50007800 	b	120(0x78) # 20d8cc <rust_main+0x158c>
  20d858:	28c18064 	ld.d	$r4,$r3,96(0x60)
  20d85c:	002d93c4 	alsl.d	$r4,$r30,$r4,0x4
  20d860:	28fea087 	ld.d	$r7,$r4,-88(0xfa8)
  20d864:	28fe8085 	ld.d	$r5,$r4,-96(0xfa0)
  20d868:	28c40066 	ld.d	$r6,$r3,256(0x100)
  20d86c:	50006400 	b	100(0x64) # 20d8d0 <rust_main+0x1590>
  20d870:	03808c06 	ori	$r6,$r0,0x23
  20d874:	1a000184 	pcalau12i	$r4,12(0xc)
  20d878:	28eaa085 	ld.d	$r5,$r4,-1368(0xaa8)
  20d87c:	1a000184 	pcalau12i	$r4,12(0xc)
  20d880:	28eac084 	ld.d	$r4,$r4,-1360(0xab0)
  20d884:	50004800 	b	72(0x48) # 20d8cc <rust_main+0x158c>
  20d888:	03808c06 	ori	$r6,$r0,0x23
  20d88c:	1a000184 	pcalau12i	$r4,12(0xc)
  20d890:	28e96085 	ld.d	$r5,$r4,-1448(0xa58)
  20d894:	1a000184 	pcalau12i	$r4,12(0xc)
  20d898:	28e98084 	ld.d	$r4,$r4,-1440(0xa60)
  20d89c:	50003000 	b	48(0x30) # 20d8cc <rust_main+0x158c>
  20d8a0:	03808c06 	ori	$r6,$r0,0x23
  20d8a4:	1a000184 	pcalau12i	$r4,12(0xc)
  20d8a8:	28eae085 	ld.d	$r5,$r4,-1352(0xab8)
  20d8ac:	1a000184 	pcalau12i	$r4,12(0xc)
  20d8b0:	28eb0084 	ld.d	$r4,$r4,-1344(0xac0)
  20d8b4:	50001800 	b	24(0x18) # 20d8cc <rust_main+0x158c>
  20d8b8:	03808c06 	ori	$r6,$r0,0x23
  20d8bc:	1a000184 	pcalau12i	$r4,12(0xc)
  20d8c0:	28e9e085 	ld.d	$r5,$r4,-1416(0xa78)
  20d8c4:	1a000184 	pcalau12i	$r4,12(0xc)
  20d8c8:	28eb2084 	ld.d	$r4,$r4,-1336(0xac8)
  20d8cc:	00119487 	sub.d	$r7,$r4,$r5
  20d8d0:	001500a4 	move	$r4,$r5
  20d8d4:	001500f7 	move	$r23,$r7
  20d8d8:	001500c8 	move	$r8,$r6
  20d8dc:	02c007de 	addi.d	$r30,$r30,1(0x1)
  20d8e0:	03410105 	andi	$r5,$r8,0x40
  20d8e4:	43ff00bf 	beqz	$r5,-256(0x7fff00) # 20d7e4 <rust_main+0x14a4>
  20d8e8:	5bfefc99 	beq	$r4,$r25,-260(0x3fefc) # 20d7e4 <rust_main+0x14a4>
  20d8ec:	29c58064 	st.d	$r4,$r3,352(0x160)
  20d8f0:	28c44065 	ld.d	$r5,$r3,272(0x110)
  20d8f4:	28c000a5 	ld.d	$r5,$r5,0
  20d8f8:	00129566 	sltu	$r6,$r11,$r5
  20d8fc:	02fff0a5 	addi.d	$r5,$r5,-4(0xffc)
  20d900:	00129405 	sltu	$r5,$r0,$r5
  20d904:	001398a5 	masknez	$r5,$r5,$r6
  20d908:	28c46067 	ld.d	$r7,$r3,280(0x118)
  20d90c:	001318e6 	maskeqz	$r6,$r7,$r6
  20d910:	001514c5 	or	$r5,$r6,$r5
  20d914:	58000ca7 	beq	$r5,$r7,12(0xc) # 20d920 <rust_main+0x15e0>
  20d918:	0343fca5 	andi	$r5,$r5,0xff
  20d91c:	440118a0 	bnez	$r5,280(0x118) # 20da34 <rust_main+0x16f4>
  20d920:	28c2c065 	ld.d	$r5,$r3,176(0xb0)
  20d924:	29cfe065 	st.d	$r5,$r3,1016(0x3f8)
  20d928:	28c1a065 	ld.d	$r5,$r3,104(0x68)
  20d92c:	29d00065 	st.d	$r5,$r3,1024(0x400)
  20d930:	29cfc065 	st.d	$r5,$r3,1008(0x3f0)
  20d934:	28c30065 	ld.d	$r5,$r3,192(0xc0)
  20d938:	29cfa065 	st.d	$r5,$r3,1000(0x3e8)
  20d93c:	001092e4 	add.d	$r4,$r23,$r4
  20d940:	29c5c064 	st.d	$r4,$r3,368(0x170)
  20d944:	28c32064 	ld.d	$r4,$r3,200(0xc8)
  20d948:	16000084 	lu32i.d	$r4,4(0x4)
  20d94c:	29c7e064 	st.d	$r4,$r3,504(0x1f8)
  20d950:	29c70064 	st.d	$r4,$r3,448(0x1c0)
  20d954:	28c42066 	ld.d	$r6,$r3,264(0x108)
  20d958:	29080066 	st.b	$r6,$r3,512(0x200)
  20d95c:	29c7c07b 	st.d	$r27,$r3,496(0x1f0)
  20d960:	29c78078 	st.d	$r24,$r3,480(0x1e0)
  20d964:	29c74078 	st.d	$r24,$r3,464(0x1d0)
  20d968:	29072066 	st.b	$r6,$r3,456(0x1c8)
  20d96c:	29c6e060 	st.d	$r0,$r3,440(0x1b8)
  20d970:	29c6a078 	st.d	$r24,$r3,424(0x1a8)
  20d974:	29c66078 	st.d	$r24,$r3,408(0x198)
  20d978:	28c2e064 	ld.d	$r4,$r3,184(0xb8)
  20d97c:	28c00084 	ld.d	$r4,$r4,0
  20d980:	38720000 	dbar	0x0
  20d984:	28c34065 	ld.d	$r5,$r3,208(0xd0)
  20d988:	28c000a5 	ld.d	$r5,$r5,0
  20d98c:	29cc807d 	st.d	$r29,$r3,800(0x320)
  20d990:	29cca078 	st.d	$r24,$r3,808(0x328)
  20d994:	29cc6078 	st.d	$r24,$r3,792(0x318)
  20d998:	29cc407f 	st.d	$r31,$r3,784(0x310)
  20d99c:	29cc2066 	st.d	$r6,$r3,776(0x308)
  20d9a0:	1a000146 	pcalau12i	$r6,10(0xa)
  20d9a4:	02d660c6 	addi.d	$r6,$r6,1432(0x598)
  20d9a8:	29cc0066 	st.d	$r6,$r3,768(0x300)
  20d9ac:	29cb806b 	st.d	$r11,$r3,736(0x2e0)
  20d9b0:	00150366 	move	$r6,$r27
  20d9b4:	160018e6 	lu32i.d	$r6,199(0xc7)
  20d9b8:	29cbe066 	st.d	$r6,$r3,760(0x2f8)
  20d9bc:	03806806 	ori	$r6,$r0,0x1a
  20d9c0:	29cb6066 	st.d	$r6,$r3,728(0x2d8)
  20d9c4:	1a0000e6 	pcalau12i	$r6,7(0x7)
  20d9c8:	02d978c6 	addi.d	$r6,$r6,1630(0x65e)
  20d9cc:	29cb4066 	st.d	$r6,$r3,720(0x2d0)
  20d9d0:	28c22066 	ld.d	$r6,$r3,136(0x88)
  20d9d4:	29cbc066 	st.d	$r6,$r3,752(0x2f0)
  20d9d8:	29cb0066 	st.d	$r6,$r3,704(0x2c0)
  20d9dc:	1a0000e6 	pcalau12i	$r6,7(0x7)
  20d9e0:	02daccc6 	addi.d	$r6,$r6,1715(0x6b3)
  20d9e4:	29cba066 	st.d	$r6,$r3,744(0x2e8)
  20d9e8:	29cae066 	st.d	$r6,$r3,696(0x2b8)
  20d9ec:	29cb2060 	st.d	$r0,$r3,712(0x2c8)
  20d9f0:	29cac060 	st.d	$r0,$r3,688(0x2b0)
  20d9f4:	02fff884 	addi.d	$r4,$r4,-2(0xffe)
  20d9f8:	02400486 	sltui	$r6,$r4,1(0x1)
  20d9fc:	28c36064 	ld.d	$r4,$r3,216(0xd8)
  20da00:	00139884 	masknez	$r4,$r4,$r6
  20da04:	28c3a067 	ld.d	$r7,$r3,232(0xe8)
  20da08:	001318e7 	maskeqz	$r7,$r7,$r6
  20da0c:	001510e4 	or	$r4,$r7,$r4
  20da10:	28c38067 	ld.d	$r7,$r3,224(0xe0)
  20da14:	001398e7 	masknez	$r7,$r7,$r6
  20da18:	001318a5 	maskeqz	$r5,$r5,$r6
  20da1c:	00151ca5 	or	$r5,$r5,$r7
  20da20:	28c0a0a6 	ld.d	$r6,$r5,40(0x28)
  20da24:	02cac065 	addi.d	$r5,$r3,688(0x2b0)
  20da28:	4c0000c1 	jirl	$r1,$r6,0
  20da2c:	28c4806b 	ld.d	$r11,$r3,288(0x120)
  20da30:	28c58064 	ld.d	$r4,$r3,352(0x160)
  20da34:	00150005 	move	$r5,$r0
  20da38:	04000165 	csrxchg	$r5,$r11,0x0
  20da3c:	14000445 	lu12i.w	$r5,34(0x22)
  20da40:	038900a5 	ori	$r5,$r5,0x240
  20da44:	380c1785 	ldx.d	$r5,$r28,$r5
  20da48:	400230a0 	beqz	$r5,560(0x230) # 20dc78 <rust_main+0x1938>
  20da4c:	037ffc85 	andi	$r5,$r4,0xfff
  20da50:	28c3c061 	ld.d	$r1,$r3,240(0xf0)
  20da54:	4402c0a0 	bnez	$r5,704(0x2c0) # 20dd14 <rust_main+0x19d4>
  20da58:	037ffee5 	andi	$r5,$r23,0xfff
  20da5c:	440200a0 	bnez	$r5,512(0x200) # 20dc5c <rust_main+0x191c>
  20da60:	001092e5 	add.d	$r5,$r23,$r4
  20da64:	02bfe006 	addi.w	$r6,$r0,-8(0xff8)
  20da68:	001498a5 	and	$r5,$r5,$r6
  20da6c:	02c01c84 	addi.d	$r4,$r4,7(0x7)
  20da70:	00149886 	and	$r6,$r4,$r6
  20da74:	6bf9c0a6 	bltu	$r5,$r6,-1600(0x3f9c0) # 20d434 <rust_main+0x10f4>
  20da78:	00150007 	move	$r7,$r0
  20da7c:	02c020c4 	addi.d	$r4,$r6,8(0x8)
  20da80:	6bfd48a4 	bltu	$r5,$r4,-696(0x3fd48) # 20d7c8 <rust_main+0x1488>
  20da84:	00119804 	sub.d	$r4,$r0,$r6
  20da88:	001490c4 	and	$r4,$r6,$r4
  20da8c:	001198a8 	sub.d	$r8,$r5,$r6
  20da90:	00002508 	clz.d	$r8,$r8
  20da94:	0380fc09 	ori	$r9,$r0,0x3f
  20da98:	0011a128 	sub.d	$r8,$r9,$r8
  20da9c:	0018a368 	sll.d	$r8,$r27,$r8
  20daa0:	0012a089 	sltu	$r9,$r4,$r8
  20daa4:	0013a508 	masknez	$r8,$r8,$r9
  20daa8:	00132484 	maskeqz	$r4,$r4,$r9
  20daac:	00152088 	or	$r8,$r4,$r8
  20dab0:	00002d04 	ctz.d	$r4,$r8
  20dab4:	03807c09 	ori	$r9,$r0,0x1f
  20dab8:	68148524 	bltu	$r9,$r4,5252(0x1484) # 20ef3c <rust_main+0x2bfc>
  20dabc:	002d7084 	alsl.d	$r4,$r4,$r28,0x3
  20dac0:	14000449 	lu12i.w	$r9,34(0x22)
  20dac4:	038bc129 	ori	$r9,$r9,0x2f0
  20dac8:	380c248a 	ldx.d	$r10,$r4,$r9
  20dacc:	29c000ca 	st.d	$r10,$r6,0
  20dad0:	381c2486 	stx.d	$r6,$r4,$r9
  20dad4:	00109d07 	add.d	$r7,$r8,$r7
  20dad8:	00109906 	add.d	$r6,$r8,$r6
  20dadc:	02c020c4 	addi.d	$r4,$r6,8(0x8)
  20dae0:	6fffa4a4 	bgeu	$r5,$r4,-92(0x3ffa4) # 20da84 <rust_main+0x1744>
  20dae4:	53fce7ff 	b	-796(0xffffce4) # 20d7c8 <rust_main+0x1488>
  20dae8:	29c0407c 	st.d	$r28,$r3,16(0x10)
  20daec:	28c44064 	ld.d	$r4,$r3,272(0x110)
  20daf0:	28c00084 	ld.d	$r4,$r4,0
  20daf4:	28c42065 	ld.d	$r5,$r3,264(0x108)
  20daf8:	001290a5 	sltu	$r5,$r5,$r4
  20dafc:	02fff484 	addi.d	$r4,$r4,-3(0xffd)
  20db00:	00129004 	sltu	$r4,$r0,$r4
  20db04:	00139484 	masknez	$r4,$r4,$r5
  20db08:	28c46066 	ld.d	$r6,$r3,280(0x118)
  20db0c:	001314c5 	maskeqz	$r5,$r6,$r5
  20db10:	001510a4 	or	$r4,$r5,$r4
  20db14:	58000c86 	beq	$r4,$r6,12(0xc) # 20db20 <rust_main+0x17e0>
  20db18:	0343fc84 	andi	$r4,$r4,0xff
  20db1c:	4400b880 	bnez	$r4,184(0xb8) # 20dbd4 <rust_main+0x1894>
  20db20:	28c2e064 	ld.d	$r4,$r3,184(0xb8)
  20db24:	28c00084 	ld.d	$r4,$r4,0
  20db28:	38720000 	dbar	0x0
  20db2c:	28c34065 	ld.d	$r5,$r3,208(0xd0)
  20db30:	28c000a5 	ld.d	$r5,$r5,0
  20db34:	1a000166 	pcalau12i	$r6,11(0xb)
  20db38:	02fa00c6 	addi.d	$r6,$r6,-384(0xe80)
  20db3c:	29cc0066 	st.d	$r6,$r3,768(0x300)
  20db40:	03800c06 	ori	$r6,$r0,0x3
  20db44:	29cb8066 	st.d	$r6,$r3,736(0x2e0)
  20db48:	28c3e066 	ld.d	$r6,$r3,248(0xf8)
  20db4c:	29cc2066 	st.d	$r6,$r3,776(0x308)
  20db50:	16001246 	lu32i.d	$r6,146(0x92)
  20db54:	29cbe066 	st.d	$r6,$r3,760(0x2f8)
  20db58:	03807006 	ori	$r6,$r0,0x1c
  20db5c:	29cb6066 	st.d	$r6,$r3,728(0x2d8)
  20db60:	1a000106 	pcalau12i	$r6,8(0x8)
  20db64:	02c2a4c6 	addi.d	$r6,$r6,169(0xa9)
  20db68:	29cb4066 	st.d	$r6,$r3,720(0x2d0)
  20db6c:	28c3c066 	ld.d	$r6,$r3,240(0xf0)
  20db70:	29cbc066 	st.d	$r6,$r3,752(0x2f0)
  20db74:	29cb0066 	st.d	$r6,$r3,704(0x2c0)
  20db78:	1a000106 	pcalau12i	$r6,8(0x8)
  20db7c:	02c280c6 	addi.d	$r6,$r6,160(0xa0)
  20db80:	29cba066 	st.d	$r6,$r3,744(0x2e8)
  20db84:	29cae066 	st.d	$r6,$r3,696(0x2b8)
  20db88:	29cc6060 	st.d	$r0,$r3,792(0x318)
  20db8c:	29cc8060 	st.d	$r0,$r3,800(0x320)
  20db90:	29cb2060 	st.d	$r0,$r3,712(0x2c8)
  20db94:	29cac060 	st.d	$r0,$r3,688(0x2b0)
  20db98:	02fff884 	addi.d	$r4,$r4,-2(0xffe)
  20db9c:	02400486 	sltui	$r6,$r4,1(0x1)
  20dba0:	28c3a067 	ld.d	$r7,$r3,232(0xe8)
  20dba4:	29cc4067 	st.d	$r7,$r3,784(0x310)
  20dba8:	28c36064 	ld.d	$r4,$r3,216(0xd8)
  20dbac:	00139884 	masknez	$r4,$r4,$r6
  20dbb0:	001318e7 	maskeqz	$r7,$r7,$r6
  20dbb4:	001510e4 	or	$r4,$r7,$r4
  20dbb8:	28c38067 	ld.d	$r7,$r3,224(0xe0)
  20dbbc:	001398e7 	masknez	$r7,$r7,$r6
  20dbc0:	001318a5 	maskeqz	$r5,$r5,$r6
  20dbc4:	00151ca5 	or	$r5,$r5,$r7
  20dbc8:	28c0a0a6 	ld.d	$r6,$r5,40(0x28)
  20dbcc:	02cac065 	addi.d	$r5,$r3,688(0x2b0)
  20dbd0:	4c0000c1 	jirl	$r1,$r6,0
  20dbd4:	00150044 	move	$r4,$r2
  20dbd8:	1a000185 	pcalau12i	$r5,12(0xc)
  20dbdc:	28eb60a5 	ld.d	$r5,$r5,-1320(0xad8)
  20dbe0:	382010a4 	ldx.bu	$r4,$r5,$r4
  20dbe4:	4400b080 	bnez	$r4,176(0xb0) # 20dc94 <rust_main+0x1954>
  20dbe8:	1a000de4 	pcalau12i	$r4,111(0x6f)
  20dbec:	02d04084 	addi.d	$r4,$r4,1040(0x410)
  20dbf0:	28008085 	ld.b	$r5,$r4,32(0x20)
  20dbf4:	38720000 	dbar	0x0
  20dbf8:	440138a0 	bnez	$r5,312(0x138) # 20dd30 <rust_main+0x19f0>
  20dbfc:	29cb4060 	st.d	$r0,$r3,720(0x2d0)
  20dc00:	1a000164 	pcalau12i	$r4,11(0xb)
  20dc04:	02f3c084 	addi.d	$r4,$r4,-784(0xcf0)
  20dc08:	29cac064 	st.d	$r4,$r3,688(0x2b0)
  20dc0c:	28c3e064 	ld.d	$r4,$r3,248(0xf8)
  20dc10:	29cae064 	st.d	$r4,$r3,696(0x2b8)
  20dc14:	29cb2064 	st.d	$r4,$r3,712(0x2c8)
  20dc18:	28c2a064 	ld.d	$r4,$r3,168(0xa8)
  20dc1c:	29cb0064 	st.d	$r4,$r3,704(0x2c0)
  20dc20:	1bffffe4 	pcalau12i	$r4,-1(0xfffff)
  20dc24:	02f12084 	addi.d	$r4,$r4,-952(0xc48)
  20dc28:	29cfc064 	st.d	$r4,$r3,1008(0x3f0)
  20dc2c:	28c14064 	ld.d	$r4,$r3,80(0x50)
  20dc30:	29cfa064 	st.d	$r4,$r3,1000(0x3e8)
  20dc34:	0382b004 	ori	$r4,$r0,0xac
  20dc38:	29c68064 	st.d	$r4,$r3,416(0x1a0)
  20dc3c:	1a000104 	pcalau12i	$r4,8(0x8)
  20dc40:	02f2b484 	addi.d	$r4,$r4,-851(0xcad)
  20dc44:	29c66064 	st.d	$r4,$r3,408(0x198)
  20dc48:	02cac064 	addi.d	$r4,$r3,688(0x2b0)
  20dc4c:	1a000165 	pcalau12i	$r5,11(0xb)
  20dc50:	02f400a5 	addi.d	$r5,$r5,-768(0xd00)
  20dc54:	54278800 	bl	10120(0x2788) # 2103dc <_ZN4core9panicking9panic_fmt17ha745c27c594dd0a5E>
  20dc58:	38600400 	amswap.w	$r0,$r1,$r0
  20dc5c:	1a000124 	pcalau12i	$r4,9(0x9)
  20dc60:	02c90484 	addi.d	$r4,$r4,577(0x241)
  20dc64:	0380bc05 	ori	$r5,$r0,0x2f
  20dc68:	1a000166 	pcalau12i	$r6,11(0xb)
  20dc6c:	02dfe0c6 	addi.d	$r6,$r6,2040(0x7f8)
  20dc70:	54261800 	bl	9752(0x2618) # 210288 <_ZN4core9panicking5panic17hd6bc259b6eb19bb3E>
  20dc74:	38600400 	amswap.w	$r0,$r1,$r0
  20dc78:	1a000124 	pcalau12i	$r4,9(0x9)
  20dc7c:	02c9c084 	addi.d	$r4,$r4,624(0x270)
  20dc80:	0380ac05 	ori	$r5,$r0,0x2b
  20dc84:	1a000146 	pcalau12i	$r6,10(0xa)
  20dc88:	02c6e0c6 	addi.d	$r6,$r6,440(0x1b8)
  20dc8c:	5425fc00 	bl	9724(0x25fc) # 210288 <_ZN4core9panicking5panic17hd6bc259b6eb19bb3E>
  20dc90:	38600400 	amswap.w	$r0,$r1,$r0
  20dc94:	00150004 	move	$r4,$r0
  20dc98:	28c48076 	ld.d	$r22,$r3,288(0x120)
  20dc9c:	040002c4 	csrxchg	$r4,$r22,0x0
  20dca0:	02cac064 	addi.d	$r4,$r3,688(0x2b0)
  20dca4:	03800405 	ori	$r5,$r0,0x1
  20dca8:	29c0a065 	st.d	$r5,$r3,40(0x28)
  20dcac:	576b03ff 	bl	-38144(0xfff6b00) # 2047ac <_ZN92_$LT$allocator..bitmap..BitmapPageAllocator$LT$_$GT$$u20$as$u20$allocator..PageAllocator$GT$11alloc_pages17hf34805857cf55369E>
  20dcb0:	001502c4 	move	$r4,$r22
  20dcb4:	040002c4 	csrxchg	$r4,$r22,0x0
  20dcb8:	2a0ac064 	ld.bu	$r4,$r3,688(0x2b0)
  20dcbc:	00150016 	move	$r22,$r0
  20dcc0:	44101c80 	bnez	$r4,4124(0x101c) # 20ecdc <rust_main+0x299c>
  20dcc4:	28cae076 	ld.d	$r22,$r3,696(0x2b8)
  20dcc8:	14000026 	lu12i.w	$r6,1(0x1)
  20dccc:	001502c4 	move	$r4,$r22
  20dcd0:	00150005 	move	$r5,$r0
  20dcd4:	545bf000 	bl	23536(0x5bf0) # 2138c4 <memset>
  20dcd8:	1a000de4 	pcalau12i	$r4,111(0x6f)
  20dcdc:	02d0e084 	addi.d	$r4,$r4,1080(0x438)
  20dce0:	28000084 	ld.b	$r4,$r4,0
  20dce4:	02cac064 	addi.d	$r4,$r3,688(0x2b0)
  20dce8:	03802005 	ori	$r5,$r0,0x8
  20dcec:	29c22064 	st.d	$r4,$r3,136(0x88)
  20dcf0:	001500a6 	move	$r6,$r5
  20dcf4:	5773c7ff 	bl	-35900(0xfff73c4) # 2050b8 <_ZN7axalloc15GlobalAllocator5alloc17hb16ded095c2d389eE>
  20dcf8:	2a0ac064 	ld.bu	$r4,$r3,688(0x2b0)
  20dcfc:	44000c80 	bnez	$r4,12(0xc) # 20dd08 <rust_main+0x19c8>
  20dd00:	28cae064 	ld.d	$r4,$r3,696(0x2b8)
  20dd04:	44034080 	bnez	$r4,832(0x340) # 20e044 <rust_main+0x1d04>
  20dd08:	03802004 	ori	$r4,$r0,0x8
  20dd0c:	574343ff 	bl	-48320(0xfff4340) # 20204c <__rust_alloc_error_handler>
  20dd10:	38600400 	amswap.w	$r0,$r1,$r0
  20dd14:	1a000124 	pcalau12i	$r4,9(0x9)
  20dd18:	02c87484 	addi.d	$r4,$r4,541(0x21d)
  20dd1c:	03809005 	ori	$r5,$r0,0x24
  20dd20:	1a000186 	pcalau12i	$r6,12(0xc)
  20dd24:	02e040c6 	addi.d	$r6,$r6,-2032(0x810)
  20dd28:	54256000 	bl	9568(0x2560) # 210288 <_ZN4core9panicking5panic17hd6bc259b6eb19bb3E>
  20dd2c:	38600400 	amswap.w	$r0,$r1,$r0
  20dd30:	28c06084 	ld.d	$r4,$r4,24(0x18)
  20dd34:	04006c05 	csrrd	$r5,0x1b
  20dd38:	58001ca4 	beq	$r5,$r4,28(0x1c) # 20dd54 <rust_main+0x1a14>
  20dd3c:	04006405 	csrrd	$r5,0x19
  20dd40:	037ffc85 	andi	$r5,$r4,0xfff
  20dd44:	4402e4a0 	bnez	$r5,740(0x2e4) # 20e028 <rust_main+0x1ce8>
  20dd48:	04006424 	csrwr	$r4,0x19
  20dd4c:	04006805 	csrrd	$r5,0x1a
  20dd50:	04006824 	csrwr	$r4,0x1a
  20dd54:	28c44064 	ld.d	$r4,$r3,272(0x110)
  20dd58:	28c00084 	ld.d	$r4,$r4,0
  20dd5c:	03800c18 	ori	$r24,$r0,0x3
  20dd60:	00129305 	sltu	$r5,$r24,$r4
  20dd64:	02fff484 	addi.d	$r4,$r4,-3(0xffd)
  20dd68:	00129004 	sltu	$r4,$r0,$r4
  20dd6c:	00139484 	masknez	$r4,$r4,$r5
  20dd70:	28c46066 	ld.d	$r6,$r3,280(0x118)
  20dd74:	001314c5 	maskeqz	$r5,$r6,$r5
  20dd78:	001510a4 	or	$r4,$r5,$r4
  20dd7c:	1a000105 	pcalau12i	$r5,8(0x8)
  20dd80:	02c2a4b7 	addi.d	$r23,$r5,169(0xa9)
  20dd84:	1a000105 	pcalau12i	$r5,8(0x8)
  20dd88:	02c280b6 	addi.d	$r22,$r5,160(0xa0)
  20dd8c:	58000c86 	beq	$r4,$r6,12(0xc) # 20dd98 <rust_main+0x1a58>
  20dd90:	0343fc84 	andi	$r4,$r4,0xff
  20dd94:	4400a480 	bnez	$r4,164(0xa4) # 20de38 <rust_main+0x1af8>
  20dd98:	28c2e064 	ld.d	$r4,$r3,184(0xb8)
  20dd9c:	28c00084 	ld.d	$r4,$r4,0
  20dda0:	38720000 	dbar	0x0
  20dda4:	28c34065 	ld.d	$r5,$r3,208(0xd0)
  20dda8:	28c000a5 	ld.d	$r5,$r5,0
  20ddac:	1a000166 	pcalau12i	$r6,11(0xb)
  20ddb0:	02fa40c6 	addi.d	$r6,$r6,-368(0xe90)
  20ddb4:	29cc0066 	st.d	$r6,$r3,768(0x300)
  20ddb8:	29cb8078 	st.d	$r24,$r3,736(0x2e0)
  20ddbc:	28c3e066 	ld.d	$r6,$r3,248(0xf8)
  20ddc0:	29cc2066 	st.d	$r6,$r3,776(0x308)
  20ddc4:	160012c6 	lu32i.d	$r6,150(0x96)
  20ddc8:	29cbe066 	st.d	$r6,$r3,760(0x2f8)
  20ddcc:	03807006 	ori	$r6,$r0,0x1c
  20ddd0:	29cb6066 	st.d	$r6,$r3,728(0x2d8)
  20ddd4:	29cb4077 	st.d	$r23,$r3,720(0x2d0)
  20ddd8:	28c3c066 	ld.d	$r6,$r3,240(0xf0)
  20dddc:	29cbc066 	st.d	$r6,$r3,752(0x2f0)
  20dde0:	29cb0066 	st.d	$r6,$r3,704(0x2c0)
  20dde4:	29cba076 	st.d	$r22,$r3,744(0x2e8)
  20dde8:	29cae076 	st.d	$r22,$r3,696(0x2b8)
  20ddec:	29cc6060 	st.d	$r0,$r3,792(0x318)
  20ddf0:	29cc8060 	st.d	$r0,$r3,800(0x320)
  20ddf4:	29cb2060 	st.d	$r0,$r3,712(0x2c8)
  20ddf8:	29cac060 	st.d	$r0,$r3,688(0x2b0)
  20ddfc:	02fff884 	addi.d	$r4,$r4,-2(0xffe)
  20de00:	02400486 	sltui	$r6,$r4,1(0x1)
  20de04:	28c3a067 	ld.d	$r7,$r3,232(0xe8)
  20de08:	29cc4067 	st.d	$r7,$r3,784(0x310)
  20de0c:	28c36064 	ld.d	$r4,$r3,216(0xd8)
  20de10:	00139884 	masknez	$r4,$r4,$r6
  20de14:	001318e7 	maskeqz	$r7,$r7,$r6
  20de18:	001510e4 	or	$r4,$r7,$r4
  20de1c:	28c38067 	ld.d	$r7,$r3,224(0xe0)
  20de20:	001398e7 	masknez	$r7,$r7,$r6
  20de24:	001318a5 	maskeqz	$r5,$r5,$r6
  20de28:	00151ca5 	or	$r5,$r5,$r7
  20de2c:	28c0a0a6 	ld.d	$r6,$r5,40(0x28)
  20de30:	02cac065 	addi.d	$r5,$r3,688(0x2b0)
  20de34:	4c0000c1 	jirl	$r1,$r6,0
  20de38:	28c44064 	ld.d	$r4,$r3,272(0x110)
  20de3c:	28c00084 	ld.d	$r4,$r4,0
  20de40:	00129305 	sltu	$r5,$r24,$r4
  20de44:	02fff484 	addi.d	$r4,$r4,-3(0xffd)
  20de48:	00129004 	sltu	$r4,$r0,$r4
  20de4c:	00139484 	masknez	$r4,$r4,$r5
  20de50:	28c46066 	ld.d	$r6,$r3,280(0x118)
  20de54:	001314c5 	maskeqz	$r5,$r6,$r5
  20de58:	001510a4 	or	$r4,$r5,$r4
  20de5c:	58000c86 	beq	$r4,$r6,12(0xc) # 20de68 <rust_main+0x1b28>
  20de60:	0343fc84 	andi	$r4,$r4,0xff
  20de64:	4400c080 	bnez	$r4,192(0xc0) # 20df24 <rust_main+0x1be4>
  20de68:	1a000044 	pcalau12i	$r4,2(0x2)
  20de6c:	02cf4084 	addi.d	$r4,$r4,976(0x3d0)
  20de70:	29c68064 	st.d	$r4,$r3,416(0x1a0)
  20de74:	02c4c064 	addi.d	$r4,$r3,304(0x130)
  20de78:	29c66064 	st.d	$r4,$r3,408(0x198)
  20de7c:	28c2e064 	ld.d	$r4,$r3,184(0xb8)
  20de80:	28c00084 	ld.d	$r4,$r4,0
  20de84:	38720000 	dbar	0x0
  20de88:	28c34065 	ld.d	$r5,$r3,208(0xd0)
  20de8c:	28c000a5 	ld.d	$r5,$r5,0
  20de90:	28c14066 	ld.d	$r6,$r3,80(0x50)
  20de94:	29cc4066 	st.d	$r6,$r3,784(0x310)
  20de98:	03800806 	ori	$r6,$r0,0x2
  20de9c:	29cc2066 	st.d	$r6,$r3,776(0x308)
  20dea0:	1a000166 	pcalau12i	$r6,11(0xb)
  20dea4:	02fa80c6 	addi.d	$r6,$r6,-352(0xea0)
  20dea8:	29cc0066 	st.d	$r6,$r3,768(0x300)
  20deac:	29cb8078 	st.d	$r24,$r3,736(0x2e0)
  20deb0:	28c3e066 	ld.d	$r6,$r3,248(0xf8)
  20deb4:	29cc6066 	st.d	$r6,$r3,792(0x318)
  20deb8:	16001686 	lu32i.d	$r6,180(0xb4)
  20debc:	29cbe066 	st.d	$r6,$r3,760(0x2f8)
  20dec0:	03807006 	ori	$r6,$r0,0x1c
  20dec4:	29cb6066 	st.d	$r6,$r3,728(0x2d8)
  20dec8:	29cb4077 	st.d	$r23,$r3,720(0x2d0)
  20decc:	28c3c066 	ld.d	$r6,$r3,240(0xf0)
  20ded0:	29cbc066 	st.d	$r6,$r3,752(0x2f0)
  20ded4:	29cb0066 	st.d	$r6,$r3,704(0x2c0)
  20ded8:	29cba076 	st.d	$r22,$r3,744(0x2e8)
  20dedc:	29cae076 	st.d	$r22,$r3,696(0x2b8)
  20dee0:	29cc8060 	st.d	$r0,$r3,800(0x320)
  20dee4:	29cb2060 	st.d	$r0,$r3,712(0x2c8)
  20dee8:	29cac060 	st.d	$r0,$r3,688(0x2b0)
  20deec:	02fff884 	addi.d	$r4,$r4,-2(0xffe)
  20def0:	02400486 	sltui	$r6,$r4,1(0x1)
  20def4:	28c36064 	ld.d	$r4,$r3,216(0xd8)
  20def8:	00139884 	masknez	$r4,$r4,$r6
  20defc:	28c3a067 	ld.d	$r7,$r3,232(0xe8)
  20df00:	001318e7 	maskeqz	$r7,$r7,$r6
  20df04:	001510e4 	or	$r4,$r7,$r4
  20df08:	28c38067 	ld.d	$r7,$r3,224(0xe0)
  20df0c:	001398e7 	masknez	$r7,$r7,$r6
  20df10:	001318a5 	maskeqz	$r5,$r5,$r6
  20df14:	00151ca5 	or	$r5,$r5,$r7
  20df18:	28c0a0a6 	ld.d	$r6,$r5,40(0x28)
  20df1c:	02cac065 	addi.d	$r5,$r3,688(0x2b0)
  20df20:	4c0000c1 	jirl	$r1,$r6,0
  20df24:	1a000de4 	pcalau12i	$r4,111(0x6f)
  20df28:	02d02084 	addi.d	$r4,$r4,1032(0x408)
  20df2c:	28c3e066 	ld.d	$r6,$r3,248(0xf8)
  20df30:	386a9885 	amadd_db.d	$r5,$r6,$r4
  20df34:	28c00085 	ld.d	$r5,$r4,0
  20df38:	38720000 	dbar	0x0
  20df3c:	5ffff8a6 	bne	$r5,$r6,-8(0x3fff8) # 20df34 <rust_main+0x1bf4>
  20df40:	574e37ff 	bl	-45516(0xfff4e34) # 202d74 <main>
  20df44:	28c44064 	ld.d	$r4,$r3,272(0x110)
  20df48:	28c00084 	ld.d	$r4,$r4,0
  20df4c:	28c48065 	ld.d	$r5,$r3,288(0x120)
  20df50:	001290a5 	sltu	$r5,$r5,$r4
  20df54:	02fff084 	addi.d	$r4,$r4,-4(0xffc)
  20df58:	00129004 	sltu	$r4,$r0,$r4
  20df5c:	00139484 	masknez	$r4,$r4,$r5
  20df60:	28c46066 	ld.d	$r6,$r3,280(0x118)
  20df64:	001314c5 	maskeqz	$r5,$r6,$r5
  20df68:	001510a4 	or	$r4,$r5,$r4
  20df6c:	58000c86 	beq	$r4,$r6,12(0xc) # 20df78 <rust_main+0x1c38>
  20df70:	0343fc84 	andi	$r4,$r4,0xff
  20df74:	4400ac80 	bnez	$r4,172(0xac) # 20e020 <rust_main+0x1ce0>
  20df78:	28c2e064 	ld.d	$r4,$r3,184(0xb8)
  20df7c:	28c00084 	ld.d	$r4,$r4,0
  20df80:	38720000 	dbar	0x0
  20df84:	28c34065 	ld.d	$r5,$r3,208(0xd0)
  20df88:	28c000a5 	ld.d	$r5,$r5,0
  20df8c:	28c16066 	ld.d	$r6,$r3,88(0x58)
  20df90:	29cc4066 	st.d	$r6,$r3,784(0x310)
  20df94:	1a000166 	pcalau12i	$r6,11(0xb)
  20df98:	02fb00c6 	addi.d	$r6,$r6,-320(0xec0)
  20df9c:	29cc0066 	st.d	$r6,$r3,768(0x300)
  20dfa0:	28c48066 	ld.d	$r6,$r3,288(0x120)
  20dfa4:	29cb8066 	st.d	$r6,$r3,736(0x2e0)
  20dfa8:	28c3e066 	ld.d	$r6,$r3,248(0xf8)
  20dfac:	29cc2066 	st.d	$r6,$r3,776(0x308)
  20dfb0:	16001826 	lu32i.d	$r6,193(0xc1)
  20dfb4:	29cbe066 	st.d	$r6,$r3,760(0x2f8)
  20dfb8:	03807006 	ori	$r6,$r0,0x1c
  20dfbc:	29cb6066 	st.d	$r6,$r3,728(0x2d8)
  20dfc0:	29cb4077 	st.d	$r23,$r3,720(0x2d0)
  20dfc4:	28c3c066 	ld.d	$r6,$r3,240(0xf0)
  20dfc8:	29cbc066 	st.d	$r6,$r3,752(0x2f0)
  20dfcc:	29cb0066 	st.d	$r6,$r3,704(0x2c0)
  20dfd0:	29cba076 	st.d	$r22,$r3,744(0x2e8)
  20dfd4:	29cae076 	st.d	$r22,$r3,696(0x2b8)
  20dfd8:	29cc6060 	st.d	$r0,$r3,792(0x318)
  20dfdc:	29cc8060 	st.d	$r0,$r3,800(0x320)
  20dfe0:	29cb2060 	st.d	$r0,$r3,712(0x2c8)
  20dfe4:	29cac060 	st.d	$r0,$r3,688(0x2b0)
  20dfe8:	02fff884 	addi.d	$r4,$r4,-2(0xffe)
  20dfec:	02400486 	sltui	$r6,$r4,1(0x1)
  20dff0:	28c36064 	ld.d	$r4,$r3,216(0xd8)
  20dff4:	00139884 	masknez	$r4,$r4,$r6
  20dff8:	28c3a067 	ld.d	$r7,$r3,232(0xe8)
  20dffc:	001318e7 	maskeqz	$r7,$r7,$r6
  20e000:	001510e4 	or	$r4,$r7,$r4
  20e004:	28c38067 	ld.d	$r7,$r3,224(0xe0)
  20e008:	001398e7 	masknez	$r7,$r7,$r6
  20e00c:	001318a5 	maskeqz	$r5,$r5,$r6
  20e010:	00151ca5 	or	$r5,$r5,$r7
  20e014:	28c0a0a6 	ld.d	$r6,$r5,40(0x28)
  20e018:	02cac065 	addi.d	$r5,$r3,688(0x2b0)
  20e01c:	4c0000c1 	jirl	$r1,$r6,0
  20e020:	57d3bfff 	bl	-11332(0xfffd3bc) # 20b3dc <_ZN5axhal8platform21qemu_virt_loongarch644misc9terminate17h49dcca1d25a6ae3fE>
  20e024:	38600400 	amswap.w	$r0,$r1,$r0
  20e028:	1a000104 	pcalau12i	$r4,8(0x8)
  20e02c:	02c14884 	addi.d	$r4,$r4,82(0x52)
  20e030:	03808805 	ori	$r5,$r0,0x22
  20e034:	1a000146 	pcalau12i	$r6,10(0xa)
  20e038:	02d660c6 	addi.d	$r6,$r6,1432(0x598)
  20e03c:	54224c00 	bl	8780(0x224c) # 210288 <_ZN4core9panicking5panic17hd6bc259b6eb19bb3E>
  20e040:	38600400 	amswap.w	$r0,$r1,$r0
  20e044:	29c00096 	st.d	$r22,$r4,0
  20e048:	29c62076 	st.d	$r22,$r3,392(0x188)
  20e04c:	28c0a065 	ld.d	$r5,$r3,40(0x28)
  20e050:	29c60065 	st.d	$r5,$r3,384(0x180)
  20e054:	29c5e065 	st.d	$r5,$r3,376(0x178)
  20e058:	29c5c064 	st.d	$r4,$r3,368(0x170)
  20e05c:	03809404 	ori	$r4,$r0,0x25
  20e060:	29c1a064 	st.d	$r4,$r3,104(0x68)
  20e064:	03810c04 	ori	$r4,$r0,0x43
  20e068:	29c0c064 	st.d	$r4,$r3,48(0x30)
  20e06c:	0380cc04 	ori	$r4,$r0,0x33
  20e070:	29c06064 	st.d	$r4,$r3,24(0x18)
  20e074:	03840004 	ori	$r4,$r0,0x100
  20e078:	29c08064 	st.d	$r4,$r3,32(0x20)
  20e07c:	1a0000a4 	pcalau12i	$r4,5(0x5)
  20e080:	02f88084 	addi.d	$r4,$r4,-480(0xe20)
  20e084:	29c2c064 	st.d	$r4,$r3,176(0xb0)
  20e088:	02cf2064 	addi.d	$r4,$r3,968(0x3c8)
  20e08c:	29c26064 	st.d	$r4,$r3,152(0x98)
  20e090:	0015000c 	move	$r12,$r0
  20e094:	28c2e07b 	ld.d	$r27,$r3,184(0xb8)
  20e098:	28c1407c 	ld.d	$r28,$r3,80(0x50)
  20e09c:	28c3c06b 	ld.d	$r11,$r3,240(0xf0)
  20e0a0:	50000c00 	b	12(0xc) # 20e0ac <rust_main+0x1d6c>
  20e0a4:	28c1c06c 	ld.d	$r12,$r3,112(0x70)
  20e0a8:	02c0058c 	addi.d	$r12,$r12,1(0x1)
  20e0ac:	680d896c 	bltu	$r11,$r12,3464(0xd88) # 20ee34 <rust_main+0x2af4>
  20e0b0:	1a000164 	pcalau12i	$r4,11(0xb)
  20e0b4:	28ea0085 	ld.d	$r5,$r4,-1408(0xa80)
  20e0b8:	15ffffe6 	lu12i.w	$r6,-1(0xfffff)
  20e0bc:	1a000164 	pcalau12i	$r4,11(0xb)
  20e0c0:	28ea2084 	ld.d	$r4,$r4,-1400(0xa88)
  20e0c4:	1a000167 	pcalau12i	$r7,11(0xb)
  20e0c8:	28ea40e7 	ld.d	$r7,$r7,-1392(0xa90)
  20e0cc:	14100009 	lu12i.w	$r9,32768(0x8000)
  20e0d0:	6800516c 	bltu	$r11,$r12,80(0x50) # 20e120 <rust_main+0x1de0>
  20e0d4:	28c4a068 	ld.d	$r8,$r3,296(0x128)
  20e0d8:	0010a0a5 	add.d	$r5,$r5,$r8
  20e0dc:	001498a8 	and	$r8,$r5,$r6
  20e0e0:	001190e6 	sub.d	$r6,$r7,$r4
  20e0e4:	0011a129 	sub.d	$r9,$r9,$r8
  20e0e8:	00410985 	slli.d	$r5,$r12,0x2
  20e0ec:	1a0000c7 	pcalau12i	$r7,6(0x6)
  20e0f0:	02c1e0e7 	addi.d	$r7,$r7,120(0x78)
  20e0f4:	38081ca5 	ldx.w	$r5,$r5,$r7
  20e0f8:	00109caa 	add.d	$r10,$r5,$r7
  20e0fc:	28c1a065 	ld.d	$r5,$r3,104(0x68)
  20e100:	28c0c067 	ld.d	$r7,$r3,48(0x30)
  20e104:	4c000140 	jirl	$r0,$r10,0
  20e108:	03808405 	ori	$r5,$r0,0x21
  20e10c:	1a000164 	pcalau12i	$r4,11(0xb)
  20e110:	28ea6084 	ld.d	$r4,$r4,-1384(0xa98)
  20e114:	1a000166 	pcalau12i	$r6,11(0xb)
  20e118:	28ea80c6 	ld.d	$r6,$r6,-1376(0xaa0)
  20e11c:	50007800 	b	120(0x78) # 20e194 <rust_main+0x1e54>
  20e120:	28c18064 	ld.d	$r4,$r3,96(0x60)
  20e124:	002d9184 	alsl.d	$r4,$r12,$r4,0x4
  20e128:	28fea086 	ld.d	$r6,$r4,-88(0xfa8)
  20e12c:	28fe8084 	ld.d	$r4,$r4,-96(0xfa0)
  20e130:	28c06065 	ld.d	$r5,$r3,24(0x18)
  20e134:	50006400 	b	100(0x64) # 20e198 <rust_main+0x1e58>
  20e138:	03808c05 	ori	$r5,$r0,0x23
  20e13c:	1a000164 	pcalau12i	$r4,11(0xb)
  20e140:	28eaa084 	ld.d	$r4,$r4,-1368(0xaa8)
  20e144:	1a000166 	pcalau12i	$r6,11(0xb)
  20e148:	28eac0c6 	ld.d	$r6,$r6,-1360(0xab0)
  20e14c:	50004800 	b	72(0x48) # 20e194 <rust_main+0x1e54>
  20e150:	03808c05 	ori	$r5,$r0,0x23
  20e154:	1a000164 	pcalau12i	$r4,11(0xb)
  20e158:	28e96084 	ld.d	$r4,$r4,-1448(0xa58)
  20e15c:	1a000166 	pcalau12i	$r6,11(0xb)
  20e160:	28e980c6 	ld.d	$r6,$r6,-1440(0xa60)
  20e164:	50003000 	b	48(0x30) # 20e194 <rust_main+0x1e54>
  20e168:	03808c05 	ori	$r5,$r0,0x23
  20e16c:	1a000164 	pcalau12i	$r4,11(0xb)
  20e170:	28eae084 	ld.d	$r4,$r4,-1352(0xab8)
  20e174:	1a000166 	pcalau12i	$r6,11(0xb)
  20e178:	28eb00c6 	ld.d	$r6,$r6,-1344(0xac0)
  20e17c:	50001800 	b	24(0x18) # 20e194 <rust_main+0x1e54>
  20e180:	03808c05 	ori	$r5,$r0,0x23
  20e184:	1a000164 	pcalau12i	$r4,11(0xb)
  20e188:	28e9e084 	ld.d	$r4,$r4,-1416(0xa78)
  20e18c:	1a000166 	pcalau12i	$r6,11(0xb)
  20e190:	28eb20c6 	ld.d	$r6,$r6,-1336(0xac8)
  20e194:	001190c6 	sub.d	$r6,$r6,$r4
  20e198:	00150088 	move	$r8,$r4
  20e19c:	001500c9 	move	$r9,$r6
  20e1a0:	001500a7 	move	$r7,$r5
  20e1a4:	037ffd04 	andi	$r4,$r8,0xfff
  20e1a8:	440af480 	bnez	$r4,2804(0xaf4) # 20ec9c <rust_main+0x295c>
  20e1ac:	29c1c06c 	st.d	$r12,$r3,112(0x70)
  20e1b0:	00152124 	or	$r4,$r9,$r8
  20e1b4:	037ffc84 	andi	$r4,$r4,0xfff
  20e1b8:	440ae480 	bnez	$r4,2788(0xae4) # 20ec9c <rust_main+0x295c>
  20e1bc:	29cf2068 	st.d	$r8,$r3,968(0x3c8)
  20e1c0:	29cf4068 	st.d	$r8,$r3,976(0x3d0)
  20e1c4:	29cf6069 	st.d	$r9,$r3,984(0x3d8)
  20e1c8:	43fedd3f 	beqz	$r9,-292(0x7ffedc) # 20e0a4 <rust_main+0x1d64>
  20e1cc:	03405ce8 	andi	$r8,$r7,0x17
  20e1d0:	034004e4 	andi	$r4,$r7,0x1
  20e1d4:	02400484 	sltui	$r4,$r4,1(0x1)
  20e1d8:	28c0a066 	ld.d	$r6,$r3,40(0x28)
  20e1dc:	001390c5 	masknez	$r5,$r6,$r4
  20e1e0:	030800c6 	lu52i.d	$r6,$r6,512(0x200)
  20e1e4:	001310c4 	maskeqz	$r4,$r6,$r4
  20e1e8:	00151484 	or	$r4,$r4,$r5
  20e1ec:	29c20068 	st.d	$r8,$r3,128(0x80)
  20e1f0:	00411d05 	slli.d	$r5,$r8,0x7
  20e1f4:	0041f0e6 	slli.d	$r6,$r7,0x3c
  20e1f8:	001514c5 	or	$r5,$r6,$r5
  20e1fc:	28c08066 	ld.d	$r6,$r3,32(0x20)
  20e200:	031000c6 	lu52i.d	$r6,$r6,1024(0x400)
  20e204:	001498a5 	and	$r5,$r5,$r6
  20e208:	001510a4 	or	$r4,$r5,$r4
  20e20c:	004510e5 	srli.d	$r5,$r7,0x4
  20e210:	008410a4 	bstrins.d	$r4,$r5,0x4,0x4
  20e214:	03100005 	lu52i.d	$r5,$r0,1024(0x400)
  20e218:	00159484 	xor	$r4,$r4,$r5
  20e21c:	29c1e064 	st.d	$r4,$r3,120(0x78)
  20e220:	28c44064 	ld.d	$r4,$r3,272(0x110)
  20e224:	28c00084 	ld.d	$r4,$r4,0
  20e228:	28c42065 	ld.d	$r5,$r3,264(0x108)
  20e22c:	001290a5 	sltu	$r5,$r5,$r4
  20e230:	02fff484 	addi.d	$r4,$r4,-3(0xffd)
  20e234:	00129004 	sltu	$r4,$r0,$r4
  20e238:	00139484 	masknez	$r4,$r4,$r5
  20e23c:	28c46066 	ld.d	$r6,$r3,280(0x118)
  20e240:	001314c5 	maskeqz	$r5,$r6,$r5
  20e244:	001510a4 	or	$r4,$r5,$r4
  20e248:	1a0000e5 	pcalau12i	$r5,7(0x7)
  20e24c:	02f718bf 	addi.d	$r31,$r5,-570(0xdc6)
  20e250:	1a0000e5 	pcalau12i	$r5,7(0x7)
  20e254:	02f6d0b9 	addi.d	$r25,$r5,-588(0xdb4)
  20e258:	58000c86 	beq	$r4,$r6,12(0xc) # 20e264 <rust_main+0x1f24>
  20e25c:	0343fc84 	andi	$r4,$r4,0xff
  20e260:	4400d880 	bnez	$r4,216(0xd8) # 20e338 <rust_main+0x1ff8>
  20e264:	28c2c064 	ld.d	$r4,$r3,176(0xb0)
  20e268:	29cfc064 	st.d	$r4,$r3,1008(0x3f0)
  20e26c:	28c26064 	ld.d	$r4,$r3,152(0x98)
  20e270:	29cfa064 	st.d	$r4,$r3,1000(0x3e8)
  20e274:	28c32064 	ld.d	$r4,$r3,200(0xc8)
  20e278:	16000284 	lu32i.d	$r4,20(0x14)
  20e27c:	29c70064 	st.d	$r4,$r3,448(0x1c0)
  20e280:	29c6a078 	st.d	$r24,$r3,424(0x1a8)
  20e284:	29c66078 	st.d	$r24,$r3,408(0x198)
  20e288:	03800c04 	ori	$r4,$r0,0x3
  20e28c:	29072064 	st.b	$r4,$r3,456(0x1c8)
  20e290:	29c6e060 	st.d	$r0,$r3,440(0x1b8)
  20e294:	28c00365 	ld.d	$r5,$r27,0
  20e298:	38720000 	dbar	0x0
  20e29c:	28c34066 	ld.d	$r6,$r3,208(0xd0)
  20e2a0:	28c000c6 	ld.d	$r6,$r6,0
  20e2a4:	29cc807c 	st.d	$r28,$r3,800(0x320)
  20e2a8:	28c2a067 	ld.d	$r7,$r3,168(0xa8)
  20e2ac:	29cc4067 	st.d	$r7,$r3,784(0x310)
  20e2b0:	1a000147 	pcalau12i	$r7,10(0xa)
  20e2b4:	02f4c0e7 	addi.d	$r7,$r7,-720(0xd30)
  20e2b8:	29cc0067 	st.d	$r7,$r3,768(0x300)
  20e2bc:	29cb8064 	st.d	$r4,$r3,736(0x2e0)
  20e2c0:	03800404 	ori	$r4,$r0,0x1
  20e2c4:	29cca064 	st.d	$r4,$r3,808(0x328)
  20e2c8:	29cc6064 	st.d	$r4,$r3,792(0x318)
  20e2cc:	29cc2064 	st.d	$r4,$r3,776(0x308)
  20e2d0:	160012a4 	lu32i.d	$r4,149(0x95)
  20e2d4:	29cbe064 	st.d	$r4,$r3,760(0x2f8)
  20e2d8:	03807c04 	ori	$r4,$r0,0x1f
  20e2dc:	29cb6064 	st.d	$r4,$r3,728(0x2d8)
  20e2e0:	29cb407f 	st.d	$r31,$r3,720(0x2d0)
  20e2e4:	03804804 	ori	$r4,$r0,0x12
  20e2e8:	29cbc064 	st.d	$r4,$r3,752(0x2f0)
  20e2ec:	29cb0064 	st.d	$r4,$r3,704(0x2c0)
  20e2f0:	29cba079 	st.d	$r25,$r3,744(0x2e8)
  20e2f4:	29cae079 	st.d	$r25,$r3,696(0x2b8)
  20e2f8:	29cb2060 	st.d	$r0,$r3,712(0x2c8)
  20e2fc:	29cac060 	st.d	$r0,$r3,688(0x2b0)
  20e300:	02fff8a4 	addi.d	$r4,$r5,-2(0xffe)
  20e304:	02400485 	sltui	$r5,$r4,1(0x1)
  20e308:	28c36064 	ld.d	$r4,$r3,216(0xd8)
  20e30c:	00139484 	masknez	$r4,$r4,$r5
  20e310:	28c3a067 	ld.d	$r7,$r3,232(0xe8)
  20e314:	001314e7 	maskeqz	$r7,$r7,$r5
  20e318:	001510e4 	or	$r4,$r7,$r4
  20e31c:	28c38067 	ld.d	$r7,$r3,224(0xe0)
  20e320:	001394e7 	masknez	$r7,$r7,$r5
  20e324:	001314c5 	maskeqz	$r5,$r6,$r5
  20e328:	00151ca5 	or	$r5,$r5,$r7
  20e32c:	28c0a0a6 	ld.d	$r6,$r5,40(0x28)
  20e330:	02cac065 	addi.d	$r5,$r3,688(0x2b0)
  20e334:	4c0000c1 	jirl	$r1,$r6,0
  20e338:	28c44064 	ld.d	$r4,$r3,272(0x110)
  20e33c:	28c00084 	ld.d	$r4,$r4,0
  20e340:	28c42065 	ld.d	$r5,$r3,264(0x108)
  20e344:	001290a5 	sltu	$r5,$r5,$r4
  20e348:	02fff484 	addi.d	$r4,$r4,-3(0xffd)
  20e34c:	00129004 	sltu	$r4,$r0,$r4
  20e350:	00139484 	masknez	$r4,$r4,$r5
  20e354:	28c46066 	ld.d	$r6,$r3,280(0x118)
  20e358:	001314c5 	maskeqz	$r5,$r6,$r5
  20e35c:	001510a4 	or	$r4,$r5,$r4
  20e360:	58000c86 	beq	$r4,$r6,12(0xc) # 20e36c <rust_main+0x202c>
  20e364:	0343fc84 	andi	$r4,$r4,0xff
  20e368:	4400dc80 	bnez	$r4,220(0xdc) # 20e444 <rust_main+0x2104>
  20e36c:	28c28064 	ld.d	$r4,$r3,160(0xa0)
  20e370:	29cfc064 	st.d	$r4,$r3,1008(0x3f0)
  20e374:	28c16064 	ld.d	$r4,$r3,88(0x58)
  20e378:	29cfa064 	st.d	$r4,$r3,1000(0x3e8)
  20e37c:	28c32064 	ld.d	$r4,$r3,200(0xc8)
  20e380:	16000284 	lu32i.d	$r4,20(0x14)
  20e384:	29c70064 	st.d	$r4,$r3,448(0x1c0)
  20e388:	03800804 	ori	$r4,$r0,0x2
  20e38c:	29c6a064 	st.d	$r4,$r3,424(0x1a8)
  20e390:	29c66064 	st.d	$r4,$r3,408(0x198)
  20e394:	03800c04 	ori	$r4,$r0,0x3
  20e398:	29072064 	st.b	$r4,$r3,456(0x1c8)
  20e39c:	29c6e060 	st.d	$r0,$r3,440(0x1b8)
  20e3a0:	28c00365 	ld.d	$r5,$r27,0
  20e3a4:	38720000 	dbar	0x0
  20e3a8:	28c34066 	ld.d	$r6,$r3,208(0xd0)
  20e3ac:	28c000c6 	ld.d	$r6,$r6,0
  20e3b0:	29cc807c 	st.d	$r28,$r3,800(0x320)
  20e3b4:	28c2a067 	ld.d	$r7,$r3,168(0xa8)
  20e3b8:	29cc4067 	st.d	$r7,$r3,784(0x310)
  20e3bc:	1a000147 	pcalau12i	$r7,10(0xa)
  20e3c0:	02dc20e7 	addi.d	$r7,$r7,1800(0x708)
  20e3c4:	29cc0067 	st.d	$r7,$r3,768(0x300)
  20e3c8:	29cb8064 	st.d	$r4,$r3,736(0x2e0)
  20e3cc:	03800404 	ori	$r4,$r0,0x1
  20e3d0:	29cca064 	st.d	$r4,$r3,808(0x328)
  20e3d4:	29cc6064 	st.d	$r4,$r3,792(0x318)
  20e3d8:	29cc2064 	st.d	$r4,$r3,776(0x308)
  20e3dc:	160012c4 	lu32i.d	$r4,150(0x96)
  20e3e0:	29cbe064 	st.d	$r4,$r3,760(0x2f8)
  20e3e4:	03807c04 	ori	$r4,$r0,0x1f
  20e3e8:	29cb6064 	st.d	$r4,$r3,728(0x2d8)
  20e3ec:	29cb407f 	st.d	$r31,$r3,720(0x2d0)
  20e3f0:	03804804 	ori	$r4,$r0,0x12
  20e3f4:	29cbc064 	st.d	$r4,$r3,752(0x2f0)
  20e3f8:	29cb0064 	st.d	$r4,$r3,704(0x2c0)
  20e3fc:	29cba079 	st.d	$r25,$r3,744(0x2e8)
  20e400:	29cae079 	st.d	$r25,$r3,696(0x2b8)
  20e404:	29cb2060 	st.d	$r0,$r3,712(0x2c8)
  20e408:	29cac060 	st.d	$r0,$r3,688(0x2b0)
  20e40c:	02fff8a4 	addi.d	$r4,$r5,-2(0xffe)
  20e410:	02400485 	sltui	$r5,$r4,1(0x1)
  20e414:	28c36064 	ld.d	$r4,$r3,216(0xd8)
  20e418:	00139484 	masknez	$r4,$r4,$r5
  20e41c:	28c3a067 	ld.d	$r7,$r3,232(0xe8)
  20e420:	001314e7 	maskeqz	$r7,$r7,$r5
  20e424:	001510e4 	or	$r4,$r7,$r4
  20e428:	28c38067 	ld.d	$r7,$r3,224(0xe0)
  20e42c:	001394e7 	masknez	$r7,$r7,$r5
  20e430:	001314c5 	maskeqz	$r5,$r6,$r5
  20e434:	00151ca5 	or	$r5,$r5,$r7
  20e438:	28c0a0a6 	ld.d	$r6,$r5,40(0x28)
  20e43c:	02cac065 	addi.d	$r5,$r3,688(0x2b0)
  20e440:	4c0000c1 	jirl	$r1,$r6,0
  20e444:	28c44064 	ld.d	$r4,$r3,272(0x110)
  20e448:	28c00084 	ld.d	$r4,$r4,0
  20e44c:	28c42065 	ld.d	$r5,$r3,264(0x108)
  20e450:	001290a5 	sltu	$r5,$r5,$r4
  20e454:	02fff484 	addi.d	$r4,$r4,-3(0xffd)
  20e458:	00129004 	sltu	$r4,$r0,$r4
  20e45c:	00139484 	masknez	$r4,$r4,$r5
  20e460:	28c46066 	ld.d	$r6,$r3,280(0x118)
  20e464:	001314c5 	maskeqz	$r5,$r6,$r5
  20e468:	001510a4 	or	$r4,$r5,$r4
  20e46c:	58000c86 	beq	$r4,$r6,12(0xc) # 20e478 <rust_main+0x2138>
  20e470:	0343fc84 	andi	$r4,$r4,0xff
  20e474:	4400e080 	bnez	$r4,224(0xe0) # 20e554 <rust_main+0x2214>
  20e478:	1bffffa4 	pcalau12i	$r4,-3(0xffffd)
  20e47c:	02cb4084 	addi.d	$r4,$r4,720(0x2d0)
  20e480:	29cfc064 	st.d	$r4,$r3,1008(0x3f0)
  20e484:	28c10064 	ld.d	$r4,$r3,64(0x40)
  20e488:	29cfa064 	st.d	$r4,$r3,1000(0x3e8)
  20e48c:	28c32064 	ld.d	$r4,$r3,200(0xc8)
  20e490:	16000284 	lu32i.d	$r4,20(0x14)
  20e494:	29c70064 	st.d	$r4,$r3,448(0x1c0)
  20e498:	03800804 	ori	$r4,$r0,0x2
  20e49c:	29c6a064 	st.d	$r4,$r3,424(0x1a8)
  20e4a0:	29c66064 	st.d	$r4,$r3,408(0x198)
  20e4a4:	03800c04 	ori	$r4,$r0,0x3
  20e4a8:	29072064 	st.b	$r4,$r3,456(0x1c8)
  20e4ac:	29c6e060 	st.d	$r0,$r3,440(0x1b8)
  20e4b0:	28c00365 	ld.d	$r5,$r27,0
  20e4b4:	38720000 	dbar	0x0
  20e4b8:	28c34066 	ld.d	$r6,$r3,208(0xd0)
  20e4bc:	28c000c6 	ld.d	$r6,$r6,0
  20e4c0:	29cc807c 	st.d	$r28,$r3,800(0x320)
  20e4c4:	28c2a067 	ld.d	$r7,$r3,168(0xa8)
  20e4c8:	29cc4067 	st.d	$r7,$r3,784(0x310)
  20e4cc:	1a000147 	pcalau12i	$r7,10(0xa)
  20e4d0:	02f500e7 	addi.d	$r7,$r7,-704(0xd40)
  20e4d4:	29cc0067 	st.d	$r7,$r3,768(0x300)
  20e4d8:	29cb8064 	st.d	$r4,$r3,736(0x2e0)
  20e4dc:	03800404 	ori	$r4,$r0,0x1
  20e4e0:	29cca064 	st.d	$r4,$r3,808(0x328)
  20e4e4:	29cc6064 	st.d	$r4,$r3,792(0x318)
  20e4e8:	29cc2064 	st.d	$r4,$r3,776(0x308)
  20e4ec:	160012e4 	lu32i.d	$r4,151(0x97)
  20e4f0:	29cbe064 	st.d	$r4,$r3,760(0x2f8)
  20e4f4:	03807c04 	ori	$r4,$r0,0x1f
  20e4f8:	29cb6064 	st.d	$r4,$r3,728(0x2d8)
  20e4fc:	29cb407f 	st.d	$r31,$r3,720(0x2d0)
  20e500:	03804804 	ori	$r4,$r0,0x12
  20e504:	29cbc064 	st.d	$r4,$r3,752(0x2f0)
  20e508:	29cb0064 	st.d	$r4,$r3,704(0x2c0)
  20e50c:	29cba079 	st.d	$r25,$r3,744(0x2e8)
  20e510:	29cae079 	st.d	$r25,$r3,696(0x2b8)
  20e514:	29cb2060 	st.d	$r0,$r3,712(0x2c8)
  20e518:	29cac060 	st.d	$r0,$r3,688(0x2b0)
  20e51c:	02fff8a4 	addi.d	$r4,$r5,-2(0xffe)
  20e520:	02400485 	sltui	$r5,$r4,1(0x1)
  20e524:	28c36064 	ld.d	$r4,$r3,216(0xd8)
  20e528:	00139484 	masknez	$r4,$r4,$r5
  20e52c:	28c3a067 	ld.d	$r7,$r3,232(0xe8)
  20e530:	001314e7 	maskeqz	$r7,$r7,$r5
  20e534:	001510e4 	or	$r4,$r7,$r4
  20e538:	28c38067 	ld.d	$r7,$r3,224(0xe0)
  20e53c:	001394e7 	masknez	$r7,$r7,$r5
  20e540:	001314c5 	maskeqz	$r5,$r6,$r5
  20e544:	00151ca5 	or	$r5,$r5,$r7
  20e548:	28c0a0a6 	ld.d	$r6,$r5,40(0x28)
  20e54c:	02cac065 	addi.d	$r5,$r3,688(0x2b0)
  20e550:	4c0000c1 	jirl	$r1,$r6,0
  20e554:	28cf207e 	ld.d	$r30,$r3,968(0x3c8)
  20e558:	00dd03c4 	bstrpick.d	$r4,$r30,0x1d,0x0
  20e55c:	29c4007f 	st.d	$r31,$r3,256(0x100)
  20e560:	40003080 	beqz	$r4,48(0x30) # 20e590 <rust_main+0x2250>
  20e564:	28cf407a 	ld.d	$r26,$r3,976(0x3d0)
  20e568:	00d403c4 	bstrpick.d	$r4,$r30,0x14,0x0
  20e56c:	28c48068 	ld.d	$r8,$r3,288(0x120)
  20e570:	40005c80 	beqz	$r4,92(0x5c) # 20e5cc <rust_main+0x228c>
  20e574:	14000024 	lu12i.w	$r4,1(0x1)
  20e578:	29c50064 	st.d	$r4,$r3,320(0x140)
  20e57c:	15ffffe4 	lu12i.w	$r4,-1(0xfffff)
  20e580:	29c24064 	st.d	$r4,$r3,144(0x90)
  20e584:	0015001b 	move	$r27,$r0
  20e588:	0015001f 	move	$r31,$r0
  20e58c:	50007000 	b	112(0x70) # 20e5fc <rust_main+0x22bc>
  20e590:	28cf407a 	ld.d	$r26,$r3,976(0x3d0)
  20e594:	00dd0344 	bstrpick.d	$r4,$r26,0x1d,0x0
  20e598:	47ffcc9f 	bnez	$r4,-52(0x7fffcc) # 20e564 <rust_main+0x2224>
  20e59c:	28cf6064 	ld.d	$r4,$r3,984(0x3d8)
  20e5a0:	147fffe5 	lu12i.w	$r5,262143(0x3ffff)
  20e5a4:	03bffca5 	ori	$r5,$r5,0xfff
  20e5a8:	6fffbca4 	bgeu	$r5,$r4,-68(0x3ffbc) # 20e564 <rust_main+0x2224>
  20e5ac:	14800004 	lu12i.w	$r4,262144(0x40000)
  20e5b0:	29c50064 	st.d	$r4,$r3,320(0x140)
  20e5b4:	15800004 	lu12i.w	$r4,-262144(0xc0000)
  20e5b8:	29c24064 	st.d	$r4,$r3,144(0x90)
  20e5bc:	0380041b 	ori	$r27,$r0,0x1
  20e5c0:	0015001f 	move	$r31,$r0
  20e5c4:	28c48068 	ld.d	$r8,$r3,288(0x120)
  20e5c8:	50003400 	b	52(0x34) # 20e5fc <rust_main+0x22bc>
  20e5cc:	00d40344 	bstrpick.d	$r4,$r26,0x14,0x0
  20e5d0:	47ffa49f 	bnez	$r4,-92(0x7fffa4) # 20e574 <rust_main+0x2234>
  20e5d4:	28cf6064 	ld.d	$r4,$r3,984(0x3d8)
  20e5d8:	14003fe5 	lu12i.w	$r5,511(0x1ff)
  20e5dc:	03bffca5 	ori	$r5,$r5,0xfff
  20e5e0:	6fff94a4 	bgeu	$r5,$r4,-108(0x3ff94) # 20e574 <rust_main+0x2234>
  20e5e4:	14004004 	lu12i.w	$r4,512(0x200)
  20e5e8:	29c50064 	st.d	$r4,$r3,320(0x140)
  20e5ec:	15ffc004 	lu12i.w	$r4,-512(0xffe00)
  20e5f0:	29c24064 	st.d	$r4,$r3,144(0x90)
  20e5f4:	0380041f 	ori	$r31,$r0,0x1
  20e5f8:	0015001b 	move	$r27,$r0
  20e5fc:	004593c4 	srli.d	$r4,$r30,0x24
  20e600:	037fe09c 	andi	$r28,$r4,0xff8
  20e604:	28c6207d 	ld.d	$r29,$r3,392(0x188)
  20e608:	380c73a4 	ldx.d	$r4,$r29,$r28
  20e60c:	40003480 	beqz	$r4,52(0x34) # 20e640 <rust_main+0x2300>
  20e610:	03400485 	andi	$r5,$r4,0x1
  20e614:	00150316 	move	$r22,$r24
  20e618:	400238a0 	beqz	$r5,568(0x238) # 20e850 <rust_main+0x2510>
  20e61c:	15ffffe5 	lu12i.w	$r5,-1(0xfffff)
  20e620:	161fffe5 	lu32i.d	$r5,65535(0xffff)
  20e624:	00149496 	and	$r22,$r4,$r5
  20e628:	4000d2c0 	beqz	$r22,208(0xd0) # 20e6f8 <rust_main+0x23b8>
  20e62c:	00456fc4 	srli.d	$r4,$r30,0x1b
  20e630:	037fe084 	andi	$r4,$r4,0xff8
  20e634:	001092dd 	add.d	$r29,$r22,$r4
  20e638:	40009f60 	beqz	$r27,156(0x9c) # 20e6d4 <rust_main+0x2394>
  20e63c:	50020800 	b	520(0x208) # 20e844 <rust_main+0x2504>
  20e640:	00150004 	move	$r4,$r0
  20e644:	04000104 	csrxchg	$r4,$r8,0x0
  20e648:	02cac064 	addi.d	$r4,$r3,688(0x2b0)
  20e64c:	03800417 	ori	$r23,$r0,0x1
  20e650:	001502e5 	move	$r5,$r23
  20e654:	57615bff 	bl	-40616(0xfff6158) # 2047ac <_ZN92_$LT$allocator..bitmap..BitmapPageAllocator$LT$_$GT$$u20$as$u20$allocator..PageAllocator$GT$11alloc_pages17hf34805857cf55369E>
  20e658:	28c48068 	ld.d	$r8,$r3,288(0x120)
  20e65c:	00150104 	move	$r4,$r8
  20e660:	04000104 	csrxchg	$r4,$r8,0x0
  20e664:	2a0ac064 	ld.bu	$r4,$r3,688(0x2b0)
  20e668:	00150016 	move	$r22,$r0
  20e66c:	4401e480 	bnez	$r4,484(0x1e4) # 20e850 <rust_main+0x2510>
  20e670:	28cae076 	ld.d	$r22,$r3,696(0x2b8)
  20e674:	14000026 	lu12i.w	$r6,1(0x1)
  20e678:	001502c4 	move	$r4,$r22
  20e67c:	00150005 	move	$r5,$r0
  20e680:	54524400 	bl	21060(0x5244) # 2138c4 <memset>
  20e684:	28c60065 	ld.d	$r5,$r3,384(0x180)
  20e688:	28c5e064 	ld.d	$r4,$r3,376(0x178)
  20e68c:	5c0010a4 	bne	$r5,$r4,16(0x10) # 20e69c <rust_main+0x235c>
  20e690:	02c5c064 	addi.d	$r4,$r3,368(0x170)
  20e694:	5408bc00 	bl	2236(0x8bc) # 20ef50 <_ZN5alloc7raw_vec19RawVec$LT$T$C$A$GT$16reserve_for_push17hc00b61cf4dacf197E>
  20e698:	28c60065 	ld.d	$r5,$r3,384(0x180)
  20e69c:	0010f3a4 	add.d	$r4,$r29,$r28
  20e6a0:	00410ca6 	slli.d	$r6,$r5,0x3
  20e6a4:	28c5c067 	ld.d	$r7,$r3,368(0x170)
  20e6a8:	381c18f6 	stx.d	$r22,$r7,$r6
  20e6ac:	02c004a5 	addi.d	$r5,$r5,1(0x1)
  20e6b0:	29c60065 	st.d	$r5,$r3,384(0x180)
  20e6b4:	004532c5 	srli.d	$r5,$r22,0xc
  20e6b8:	00af30b7 	bstrins.d	$r23,$r5,0x2f,0xc
  20e6bc:	29c00097 	st.d	$r23,$r4,0
  20e6c0:	28c48068 	ld.d	$r8,$r3,288(0x120)
  20e6c4:	00456fc4 	srli.d	$r4,$r30,0x1b
  20e6c8:	037fe084 	andi	$r4,$r4,0xff8
  20e6cc:	001092dd 	add.d	$r29,$r22,$r4
  20e6d0:	44017760 	bnez	$r27,372(0x174) # 20e844 <rust_main+0x2504>
  20e6d4:	28c003a4 	ld.d	$r4,$r29,0
  20e6d8:	40002880 	beqz	$r4,40(0x28) # 20e700 <rust_main+0x23c0>
  20e6dc:	03400485 	andi	$r5,$r4,0x1
  20e6e0:	00150316 	move	$r22,$r24
  20e6e4:	40016ca0 	beqz	$r5,364(0x16c) # 20e850 <rust_main+0x2510>
  20e6e8:	15ffffe5 	lu12i.w	$r5,-1(0xfffff)
  20e6ec:	161fffe5 	lu32i.d	$r5,65535(0xffff)
  20e6f0:	00149496 	and	$r22,$r4,$r5
  20e6f4:	44008ec0 	bnez	$r22,140(0x8c) # 20e780 <rust_main+0x2440>
  20e6f8:	00150016 	move	$r22,$r0
  20e6fc:	50015400 	b	340(0x154) # 20e850 <rust_main+0x2510>
  20e700:	00150004 	move	$r4,$r0
  20e704:	04000104 	csrxchg	$r4,$r8,0x0
  20e708:	02cac064 	addi.d	$r4,$r3,688(0x2b0)
  20e70c:	03800417 	ori	$r23,$r0,0x1
  20e710:	001502e5 	move	$r5,$r23
  20e714:	57609bff 	bl	-40808(0xfff6098) # 2047ac <_ZN92_$LT$allocator..bitmap..BitmapPageAllocator$LT$_$GT$$u20$as$u20$allocator..PageAllocator$GT$11alloc_pages17hf34805857cf55369E>
  20e718:	28c48068 	ld.d	$r8,$r3,288(0x120)
  20e71c:	00150104 	move	$r4,$r8
  20e720:	04000104 	csrxchg	$r4,$r8,0x0
  20e724:	2a0ac064 	ld.bu	$r4,$r3,688(0x2b0)
  20e728:	00150016 	move	$r22,$r0
  20e72c:	44012480 	bnez	$r4,292(0x124) # 20e850 <rust_main+0x2510>
  20e730:	28cae076 	ld.d	$r22,$r3,696(0x2b8)
  20e734:	14000026 	lu12i.w	$r6,1(0x1)
  20e738:	001502c4 	move	$r4,$r22
  20e73c:	00150005 	move	$r5,$r0
  20e740:	54518400 	bl	20868(0x5184) # 2138c4 <memset>
  20e744:	28c60065 	ld.d	$r5,$r3,384(0x180)
  20e748:	28c5e064 	ld.d	$r4,$r3,376(0x178)
  20e74c:	5c0010a4 	bne	$r5,$r4,16(0x10) # 20e75c <rust_main+0x241c>
  20e750:	02c5c064 	addi.d	$r4,$r3,368(0x170)
  20e754:	5407fc00 	bl	2044(0x7fc) # 20ef50 <_ZN5alloc7raw_vec19RawVec$LT$T$C$A$GT$16reserve_for_push17hc00b61cf4dacf197E>
  20e758:	28c60065 	ld.d	$r5,$r3,384(0x180)
  20e75c:	00410ca4 	slli.d	$r4,$r5,0x3
  20e760:	28c5c066 	ld.d	$r6,$r3,368(0x170)
  20e764:	381c10d6 	stx.d	$r22,$r6,$r4
  20e768:	02c004a4 	addi.d	$r4,$r5,1(0x1)
  20e76c:	29c60064 	st.d	$r4,$r3,384(0x180)
  20e770:	004532c4 	srli.d	$r4,$r22,0xc
  20e774:	00af3097 	bstrins.d	$r23,$r4,0x2f,0xc
  20e778:	29c003b7 	st.d	$r23,$r29,0
  20e77c:	28c48068 	ld.d	$r8,$r3,288(0x120)
  20e780:	00454bc4 	srli.d	$r4,$r30,0x12
  20e784:	037fe084 	andi	$r4,$r4,0xff8
  20e788:	001092dd 	add.d	$r29,$r22,$r4
  20e78c:	4400bbe0 	bnez	$r31,184(0xb8) # 20e844 <rust_main+0x2504>
  20e790:	28c003a4 	ld.d	$r4,$r29,0
  20e794:	40002480 	beqz	$r4,36(0x24) # 20e7b8 <rust_main+0x2478>
  20e798:	03400485 	andi	$r5,$r4,0x1
  20e79c:	00150316 	move	$r22,$r24
  20e7a0:	4000b0a0 	beqz	$r5,176(0xb0) # 20e850 <rust_main+0x2510>
  20e7a4:	15ffffe5 	lu12i.w	$r5,-1(0xfffff)
  20e7a8:	161fffe5 	lu32i.d	$r5,65535(0xffff)
  20e7ac:	00149496 	and	$r22,$r4,$r5
  20e7b0:	44008ac0 	bnez	$r22,136(0x88) # 20e838 <rust_main+0x24f8>
  20e7b4:	53ff47ff 	b	-188(0xfffff44) # 20e6f8 <rust_main+0x23b8>
  20e7b8:	00150004 	move	$r4,$r0
  20e7bc:	04000104 	csrxchg	$r4,$r8,0x0
  20e7c0:	02cac064 	addi.d	$r4,$r3,688(0x2b0)
  20e7c4:	03800417 	ori	$r23,$r0,0x1
  20e7c8:	001502e5 	move	$r5,$r23
  20e7cc:	575fe3ff 	bl	-40992(0xfff5fe0) # 2047ac <_ZN92_$LT$allocator..bitmap..BitmapPageAllocator$LT$_$GT$$u20$as$u20$allocator..PageAllocator$GT$11alloc_pages17hf34805857cf55369E>
  20e7d0:	28c48068 	ld.d	$r8,$r3,288(0x120)
  20e7d4:	00150104 	move	$r4,$r8
  20e7d8:	04000104 	csrxchg	$r4,$r8,0x0
  20e7dc:	2a0ac064 	ld.bu	$r4,$r3,688(0x2b0)
  20e7e0:	00150016 	move	$r22,$r0
  20e7e4:	44006c80 	bnez	$r4,108(0x6c) # 20e850 <rust_main+0x2510>
  20e7e8:	28cae076 	ld.d	$r22,$r3,696(0x2b8)
  20e7ec:	14000026 	lu12i.w	$r6,1(0x1)
  20e7f0:	001502c4 	move	$r4,$r22
  20e7f4:	00150005 	move	$r5,$r0
  20e7f8:	5450cc00 	bl	20684(0x50cc) # 2138c4 <memset>
  20e7fc:	28c60065 	ld.d	$r5,$r3,384(0x180)
  20e800:	28c5e064 	ld.d	$r4,$r3,376(0x178)
  20e804:	5c0010a4 	bne	$r5,$r4,16(0x10) # 20e814 <rust_main+0x24d4>
  20e808:	02c5c064 	addi.d	$r4,$r3,368(0x170)
  20e80c:	54074400 	bl	1860(0x744) # 20ef50 <_ZN5alloc7raw_vec19RawVec$LT$T$C$A$GT$16reserve_for_push17hc00b61cf4dacf197E>
  20e810:	28c60065 	ld.d	$r5,$r3,384(0x180)
  20e814:	00410ca4 	slli.d	$r4,$r5,0x3
  20e818:	28c5c066 	ld.d	$r6,$r3,368(0x170)
  20e81c:	381c10d6 	stx.d	$r22,$r6,$r4
  20e820:	02c004a4 	addi.d	$r4,$r5,1(0x1)
  20e824:	29c60064 	st.d	$r4,$r3,384(0x180)
  20e828:	004532c4 	srli.d	$r4,$r22,0xc
  20e82c:	00af3097 	bstrins.d	$r23,$r4,0x2f,0xc
  20e830:	29c003b7 	st.d	$r23,$r29,0
  20e834:	28c48068 	ld.d	$r8,$r3,288(0x120)
  20e838:	004527c4 	srli.d	$r4,$r30,0x9
  20e83c:	037fe084 	andi	$r4,$r4,0xff8
  20e840:	001092dd 	add.d	$r29,$r22,$r4
  20e844:	28c003a4 	ld.d	$r4,$r29,0
  20e848:	28c42076 	ld.d	$r22,$r3,264(0x108)
  20e84c:	4001e080 	beqz	$r4,480(0x1e0) # 20ea2c <rust_main+0x26ec>
  20e850:	290f9c76 	st.b	$r22,$r3,999(0x3e7)
  20e854:	02cf9c64 	addi.d	$r4,$r3,999(0x3e7)
  20e858:	29c58064 	st.d	$r4,$r3,352(0x160)
  20e85c:	28c44064 	ld.d	$r4,$r3,272(0x110)
  20e860:	28c00085 	ld.d	$r5,$r4,0
  20e864:	03800404 	ori	$r4,$r0,0x1
  20e868:	00129486 	sltu	$r6,$r4,$r5
  20e86c:	28c46067 	ld.d	$r7,$r3,280(0x118)
  20e870:	001318e7 	maskeqz	$r7,$r7,$r6
  20e874:	02fffca5 	addi.d	$r5,$r5,-1(0xfff)
  20e878:	00129405 	sltu	$r5,$r0,$r5
  20e87c:	001398a5 	masknez	$r5,$r5,$r6
  20e880:	001514e5 	or	$r5,$r7,$r5
  20e884:	400010a0 	beqz	$r5,16(0x10) # 20e894 <rust_main+0x2554>
  20e888:	0343fca5 	andi	$r5,$r5,0xff
  20e88c:	0383fc06 	ori	$r6,$r0,0xff
  20e890:	5c0410a6 	bne	$r5,$r6,1040(0x410) # 20eca0 <rust_main+0x2960>
  20e894:	1bffffc5 	pcalau12i	$r5,-2(0xffffe)
  20e898:	02cc20a5 	addi.d	$r5,$r5,776(0x308)
  20e89c:	29d08065 	st.d	$r5,$r3,1056(0x420)
  20e8a0:	28c30065 	ld.d	$r5,$r3,192(0xc0)
  20e8a4:	29d06065 	st.d	$r5,$r3,1048(0x418)
  20e8a8:	28c28065 	ld.d	$r5,$r3,160(0xa0)
  20e8ac:	29d04065 	st.d	$r5,$r3,1040(0x410)
  20e8b0:	28c16065 	ld.d	$r5,$r3,88(0x58)
  20e8b4:	29d02065 	st.d	$r5,$r3,1032(0x408)
  20e8b8:	1a0000a5 	pcalau12i	$r5,5(0x5)
  20e8bc:	02fb70a5 	addi.d	$r5,$r5,-292(0xedc)
  20e8c0:	29d00065 	st.d	$r5,$r3,1024(0x400)
  20e8c4:	28c12065 	ld.d	$r5,$r3,72(0x48)
  20e8c8:	29cfe065 	st.d	$r5,$r3,1016(0x3f8)
  20e8cc:	28c2c065 	ld.d	$r5,$r3,176(0xb0)
  20e8d0:	29cfc065 	st.d	$r5,$r3,1008(0x3f0)
  20e8d4:	28c26065 	ld.d	$r5,$r3,152(0x98)
  20e8d8:	29cfa065 	st.d	$r5,$r3,1000(0x3e8)
  20e8dc:	28c42065 	ld.d	$r5,$r3,264(0x108)
  20e8e0:	290e2065 	st.b	$r5,$r3,904(0x388)
  20e8e4:	29cde065 	st.d	$r5,$r3,888(0x378)
  20e8e8:	290d4065 	st.b	$r5,$r3,848(0x350)
  20e8ec:	290c6065 	st.b	$r5,$r3,792(0x318)
  20e8f0:	290b8065 	st.b	$r5,$r3,736(0x2e0)
  20e8f4:	28c32065 	ld.d	$r5,$r3,200(0xc8)
  20e8f8:	29ce0065 	st.d	$r5,$r3,896(0x380)
  20e8fc:	29cc4065 	st.d	$r5,$r3,784(0x310)
  20e900:	16000285 	lu32i.d	$r5,20(0x14)
  20e904:	29cd2065 	st.d	$r5,$r3,840(0x348)
  20e908:	29cb6065 	st.d	$r5,$r3,728(0x2d8)
  20e90c:	03800805 	ori	$r5,$r0,0x2
  20e910:	29cda065 	st.d	$r5,$r3,872(0x368)
  20e914:	29cd6065 	st.d	$r5,$r3,856(0x358)
  20e918:	29cd0065 	st.d	$r5,$r3,832(0x340)
  20e91c:	29ccc065 	st.d	$r5,$r3,816(0x330)
  20e920:	29cc8065 	st.d	$r5,$r3,800(0x320)
  20e924:	29cbe065 	st.d	$r5,$r3,760(0x2f8)
  20e928:	29cba065 	st.d	$r5,$r3,744(0x2e8)
  20e92c:	29cb0065 	st.d	$r5,$r3,704(0x2c0)
  20e930:	29cac065 	st.d	$r5,$r3,688(0x2b0)
  20e934:	29cc2064 	st.d	$r4,$r3,776(0x308)
  20e938:	29cb4060 	st.d	$r0,$r3,720(0x2d0)
  20e93c:	28c2e07b 	ld.d	$r27,$r3,184(0xb8)
  20e940:	28c00365 	ld.d	$r5,$r27,0
  20e944:	38720000 	dbar	0x0
  20e948:	28c34066 	ld.d	$r6,$r3,208(0xd0)
  20e94c:	28c000c6 	ld.d	$r6,$r6,0
  20e950:	28c22067 	ld.d	$r7,$r3,136(0x88)
  20e954:	29c82067 	st.d	$r7,$r3,520(0x208)
  20e958:	28c2a067 	ld.d	$r7,$r3,168(0xa8)
  20e95c:	29c7e067 	st.d	$r7,$r3,504(0x1f8)
  20e960:	29c84068 	st.d	$r8,$r3,528(0x210)
  20e964:	29c80068 	st.d	$r8,$r3,512(0x200)
  20e968:	29c7c068 	st.d	$r8,$r3,496(0x1f0)
  20e96c:	1a000147 	pcalau12i	$r7,10(0xa)
  20e970:	02f540e7 	addi.d	$r7,$r7,-688(0xd50)
  20e974:	29c7a067 	st.d	$r7,$r3,488(0x1e8)
  20e978:	29c72064 	st.d	$r4,$r3,456(0x1c8)
  20e97c:	16001544 	lu32i.d	$r4,170(0xaa)
  20e980:	29c78064 	st.d	$r4,$r3,480(0x1e0)
  20e984:	03807c04 	ori	$r4,$r0,0x1f
  20e988:	29c70064 	st.d	$r4,$r3,448(0x1c0)
  20e98c:	28c40064 	ld.d	$r4,$r3,256(0x100)
  20e990:	29c6e064 	st.d	$r4,$r3,440(0x1b8)
  20e994:	03804804 	ori	$r4,$r0,0x12
  20e998:	29c76064 	st.d	$r4,$r3,472(0x1d8)
  20e99c:	29c6a064 	st.d	$r4,$r3,424(0x1a8)
  20e9a0:	29c74079 	st.d	$r25,$r3,464(0x1d0)
  20e9a4:	29c68079 	st.d	$r25,$r3,416(0x1a0)
  20e9a8:	29c6c060 	st.d	$r0,$r3,432(0x1b0)
  20e9ac:	29c66060 	st.d	$r0,$r3,408(0x198)
  20e9b0:	02fff8a4 	addi.d	$r4,$r5,-2(0xffe)
  20e9b4:	02400485 	sltui	$r5,$r4,1(0x1)
  20e9b8:	28c36064 	ld.d	$r4,$r3,216(0xd8)
  20e9bc:	00139484 	masknez	$r4,$r4,$r5
  20e9c0:	28c3a067 	ld.d	$r7,$r3,232(0xe8)
  20e9c4:	001314e7 	maskeqz	$r7,$r7,$r5
  20e9c8:	001510e4 	or	$r4,$r7,$r4
  20e9cc:	28c38067 	ld.d	$r7,$r3,224(0xe0)
  20e9d0:	001394e7 	masknez	$r7,$r7,$r5
  20e9d4:	001314c5 	maskeqz	$r5,$r6,$r5
  20e9d8:	00151ca5 	or	$r5,$r5,$r7
  20e9dc:	28c0a0a6 	ld.d	$r6,$r5,40(0x28)
  20e9e0:	02c66065 	addi.d	$r5,$r3,408(0x198)
  20e9e4:	4c0000c1 	jirl	$r1,$r6,0
  20e9e8:	2a0f9c76 	ld.bu	$r22,$r3,999(0x3e7)
  20e9ec:	03801404 	ori	$r4,$r0,0x5
  20e9f0:	28c1407c 	ld.d	$r28,$r3,80(0x50)
  20e9f4:	5c02aec4 	bne	$r22,$r4,684(0x2ac) # 20eca0 <rust_main+0x2960>
  20e9f8:	28c50064 	ld.d	$r4,$r3,320(0x140)
  20e9fc:	28cf2065 	ld.d	$r5,$r3,968(0x3c8)
  20ea00:	001090a5 	add.d	$r5,$r5,$r4
  20ea04:	29cf2065 	st.d	$r5,$r3,968(0x3c8)
  20ea08:	28cf4065 	ld.d	$r5,$r3,976(0x3d0)
  20ea0c:	001090a5 	add.d	$r5,$r5,$r4
  20ea10:	29cf4065 	st.d	$r5,$r3,976(0x3d0)
  20ea14:	28cf6065 	ld.d	$r5,$r3,984(0x3d8)
  20ea18:	001190a6 	sub.d	$r6,$r5,$r4
  20ea1c:	29cf6066 	st.d	$r6,$r3,984(0x3d8)
  20ea20:	28c3c06b 	ld.d	$r11,$r3,240(0xf0)
  20ea24:	5ff7fca4 	bne	$r5,$r4,-2052(0x3f7fc) # 20e220 <rust_main+0x1ee0>
  20ea28:	53f67fff 	b	-2436(0xffff67c) # 20e0a4 <rust_main+0x1d64>
  20ea2c:	28c24064 	ld.d	$r4,$r3,144(0x90)
  20ea30:	00149344 	and	$r4,$r26,$r4
  20ea34:	29c54064 	st.d	$r4,$r3,336(0x150)
  20ea38:	28c20064 	ld.d	$r4,$r3,128(0x80)
  20ea3c:	02400484 	sltui	$r4,$r4,1(0x1)
  20ea40:	28c1e065 	ld.d	$r5,$r3,120(0x78)
  20ea44:	001390a5 	masknez	$r5,$r5,$r4
  20ea48:	00131004 	maskeqz	$r4,$r0,$r4
  20ea4c:	0015149a 	or	$r26,$r4,$r5
  20ea50:	29c5807a 	st.d	$r26,$r3,352(0x160)
  20ea54:	28c44064 	ld.d	$r4,$r3,272(0x110)
  20ea58:	28c00084 	ld.d	$r4,$r4,0
  20ea5c:	03800c19 	ori	$r25,$r0,0x3
  20ea60:	00129325 	sltu	$r5,$r25,$r4
  20ea64:	02fff484 	addi.d	$r4,$r4,-3(0xffd)
  20ea68:	00129004 	sltu	$r4,$r0,$r4
  20ea6c:	00139484 	masknez	$r4,$r4,$r5
  20ea70:	28c46066 	ld.d	$r6,$r3,280(0x118)
  20ea74:	001314c5 	maskeqz	$r5,$r6,$r5
  20ea78:	001510a4 	or	$r4,$r5,$r4
  20ea7c:	1a000105 	pcalau12i	$r5,8(0x8)
  20ea80:	02c4c4b7 	addi.d	$r23,$r5,305(0x131)
  20ea84:	1a000105 	pcalau12i	$r5,8(0x8)
  20ea88:	02c438b6 	addi.d	$r22,$r5,270(0x10e)
  20ea8c:	28c2e07b 	ld.d	$r27,$r3,184(0xb8)
  20ea90:	28c1407c 	ld.d	$r28,$r3,80(0x50)
  20ea94:	58000c86 	beq	$r4,$r6,12(0xc) # 20eaa0 <rust_main+0x2760>
  20ea98:	0343fc84 	andi	$r4,$r4,0xff
  20ea9c:	4400d880 	bnez	$r4,216(0xd8) # 20eb74 <rust_main+0x2834>
  20eaa0:	28c28064 	ld.d	$r4,$r3,160(0xa0)
  20eaa4:	29cfc064 	st.d	$r4,$r3,1008(0x3f0)
  20eaa8:	28c0e064 	ld.d	$r4,$r3,56(0x38)
  20eaac:	29cfa064 	st.d	$r4,$r3,1000(0x3e8)
  20eab0:	28c32064 	ld.d	$r4,$r3,200(0xc8)
  20eab4:	16000284 	lu32i.d	$r4,20(0x14)
  20eab8:	29c70064 	st.d	$r4,$r3,448(0x1c0)
  20eabc:	03800804 	ori	$r4,$r0,0x2
  20eac0:	29c6a064 	st.d	$r4,$r3,424(0x1a8)
  20eac4:	29c66064 	st.d	$r4,$r3,408(0x198)
  20eac8:	29072079 	st.b	$r25,$r3,456(0x1c8)
  20eacc:	29c6e060 	st.d	$r0,$r3,440(0x1b8)
  20ead0:	28c00364 	ld.d	$r4,$r27,0
  20ead4:	38720000 	dbar	0x0
  20ead8:	28c34065 	ld.d	$r5,$r3,208(0xd0)
  20eadc:	28c000a5 	ld.d	$r5,$r5,0
  20eae0:	29cc807c 	st.d	$r28,$r3,800(0x320)
  20eae4:	28c2a066 	ld.d	$r6,$r3,168(0xa8)
  20eae8:	29cc4066 	st.d	$r6,$r3,784(0x310)
  20eaec:	1a000146 	pcalau12i	$r6,10(0xa)
  20eaf0:	02dc20c6 	addi.d	$r6,$r6,1800(0x708)
  20eaf4:	29cc0066 	st.d	$r6,$r3,768(0x300)
  20eaf8:	29cb8079 	st.d	$r25,$r3,736(0x2e0)
  20eafc:	03800406 	ori	$r6,$r0,0x1
  20eb00:	29cca066 	st.d	$r6,$r3,808(0x328)
  20eb04:	29cc6066 	st.d	$r6,$r3,792(0x318)
  20eb08:	29cc2066 	st.d	$r6,$r3,776(0x308)
  20eb0c:	16000de6 	lu32i.d	$r6,111(0x6f)
  20eb10:	29cbe066 	st.d	$r6,$r3,760(0x2f8)
  20eb14:	0380bc06 	ori	$r6,$r0,0x2f
  20eb18:	29cb6066 	st.d	$r6,$r3,728(0x2d8)
  20eb1c:	29cb4077 	st.d	$r23,$r3,720(0x2d0)
  20eb20:	03808c06 	ori	$r6,$r0,0x23
  20eb24:	29cbc066 	st.d	$r6,$r3,752(0x2f0)
  20eb28:	29cb0066 	st.d	$r6,$r3,704(0x2c0)
  20eb2c:	29cba076 	st.d	$r22,$r3,744(0x2e8)
  20eb30:	29cae076 	st.d	$r22,$r3,696(0x2b8)
  20eb34:	29cb2060 	st.d	$r0,$r3,712(0x2c8)
  20eb38:	29cac060 	st.d	$r0,$r3,688(0x2b0)
  20eb3c:	02fff884 	addi.d	$r4,$r4,-2(0xffe)
  20eb40:	02400486 	sltui	$r6,$r4,1(0x1)
  20eb44:	28c36064 	ld.d	$r4,$r3,216(0xd8)
  20eb48:	00139884 	masknez	$r4,$r4,$r6
  20eb4c:	28c3a067 	ld.d	$r7,$r3,232(0xe8)
  20eb50:	001318e7 	maskeqz	$r7,$r7,$r6
  20eb54:	001510e4 	or	$r4,$r7,$r4
  20eb58:	28c38067 	ld.d	$r7,$r3,224(0xe0)
  20eb5c:	001398e7 	masknez	$r7,$r7,$r6
  20eb60:	001318a5 	maskeqz	$r5,$r5,$r6
  20eb64:	00151ca5 	or	$r5,$r5,$r7
  20eb68:	28c0a0a6 	ld.d	$r6,$r5,40(0x28)
  20eb6c:	02cac065 	addi.d	$r5,$r3,688(0x2b0)
  20eb70:	4c0000c1 	jirl	$r1,$r6,0
  20eb74:	28c44064 	ld.d	$r4,$r3,272(0x110)
  20eb78:	28c00084 	ld.d	$r4,$r4,0
  20eb7c:	00129325 	sltu	$r5,$r25,$r4
  20eb80:	02fff484 	addi.d	$r4,$r4,-3(0xffd)
  20eb84:	00129004 	sltu	$r4,$r0,$r4
  20eb88:	00139484 	masknez	$r4,$r4,$r5
  20eb8c:	28c46066 	ld.d	$r6,$r3,280(0x118)
  20eb90:	001314c5 	maskeqz	$r5,$r6,$r5
  20eb94:	001510a4 	or	$r4,$r5,$r4
  20eb98:	58000c86 	beq	$r4,$r6,12(0xc) # 20eba4 <rust_main+0x2864>
  20eb9c:	0343fc84 	andi	$r4,$r4,0xff
  20eba0:	4400e080 	bnez	$r4,224(0xe0) # 20ec80 <rust_main+0x2940>
  20eba4:	1a0000a4 	pcalau12i	$r4,5(0x5)
  20eba8:	02fca084 	addi.d	$r4,$r4,-216(0xf28)
  20ebac:	29cfc064 	st.d	$r4,$r3,1008(0x3f0)
  20ebb0:	28c30064 	ld.d	$r4,$r3,192(0xc0)
  20ebb4:	29cfa064 	st.d	$r4,$r3,1000(0x3e8)
  20ebb8:	28c32064 	ld.d	$r4,$r3,200(0xc8)
  20ebbc:	16000284 	lu32i.d	$r4,20(0x14)
  20ebc0:	29c70064 	st.d	$r4,$r3,448(0x1c0)
  20ebc4:	03800804 	ori	$r4,$r0,0x2
  20ebc8:	29c6a064 	st.d	$r4,$r3,424(0x1a8)
  20ebcc:	29c66064 	st.d	$r4,$r3,408(0x198)
  20ebd0:	29072079 	st.b	$r25,$r3,456(0x1c8)
  20ebd4:	29c6e060 	st.d	$r0,$r3,440(0x1b8)
  20ebd8:	28c00364 	ld.d	$r4,$r27,0
  20ebdc:	38720000 	dbar	0x0
  20ebe0:	28c34065 	ld.d	$r5,$r3,208(0xd0)
  20ebe4:	28c000a5 	ld.d	$r5,$r5,0
  20ebe8:	29cc807c 	st.d	$r28,$r3,800(0x320)
  20ebec:	28c2a066 	ld.d	$r6,$r3,168(0xa8)
  20ebf0:	29cc4066 	st.d	$r6,$r3,784(0x310)
  20ebf4:	1a000146 	pcalau12i	$r6,10(0xa)
  20ebf8:	02dc60c6 	addi.d	$r6,$r6,1816(0x718)
  20ebfc:	29cc0066 	st.d	$r6,$r3,768(0x300)
  20ec00:	29cb8079 	st.d	$r25,$r3,736(0x2e0)
  20ec04:	03800406 	ori	$r6,$r0,0x1
  20ec08:	29cca066 	st.d	$r6,$r3,808(0x328)
  20ec0c:	29cc6066 	st.d	$r6,$r3,792(0x318)
  20ec10:	29cc2066 	st.d	$r6,$r3,776(0x308)
  20ec14:	16000e06 	lu32i.d	$r6,112(0x70)
  20ec18:	29cbe066 	st.d	$r6,$r3,760(0x2f8)
  20ec1c:	0380bc06 	ori	$r6,$r0,0x2f
  20ec20:	29cb6066 	st.d	$r6,$r3,728(0x2d8)
  20ec24:	29cb4077 	st.d	$r23,$r3,720(0x2d0)
  20ec28:	03808c06 	ori	$r6,$r0,0x23
  20ec2c:	29cbc066 	st.d	$r6,$r3,752(0x2f0)
  20ec30:	29cb0066 	st.d	$r6,$r3,704(0x2c0)
  20ec34:	29cba076 	st.d	$r22,$r3,744(0x2e8)
  20ec38:	29cae076 	st.d	$r22,$r3,696(0x2b8)
  20ec3c:	29cb2060 	st.d	$r0,$r3,712(0x2c8)
  20ec40:	29cac060 	st.d	$r0,$r3,688(0x2b0)
  20ec44:	02fff884 	addi.d	$r4,$r4,-2(0xffe)
  20ec48:	02400486 	sltui	$r6,$r4,1(0x1)
  20ec4c:	28c36064 	ld.d	$r4,$r3,216(0xd8)
  20ec50:	00139884 	masknez	$r4,$r4,$r6
  20ec54:	28c3a067 	ld.d	$r7,$r3,232(0xe8)
  20ec58:	001318e7 	maskeqz	$r7,$r7,$r6
  20ec5c:	001510e4 	or	$r4,$r7,$r4
  20ec60:	28c38067 	ld.d	$r7,$r3,224(0xe0)
  20ec64:	001398e7 	masknez	$r7,$r7,$r6
  20ec68:	001318a5 	maskeqz	$r5,$r5,$r6
  20ec6c:	00151ca5 	or	$r5,$r5,$r7
  20ec70:	28c0a0a6 	ld.d	$r6,$r5,40(0x28)
  20ec74:	02cac065 	addi.d	$r5,$r3,688(0x2b0)
  20ec78:	4c0000c1 	jirl	$r1,$r6,0
  20ec7c:	28c5807a 	ld.d	$r26,$r3,352(0x160)
  20ec80:	15ffffe4 	lu12i.w	$r4,-1(0xfffff)
  20ec84:	161fffe4 	lu32i.d	$r4,65535(0xffff)
  20ec88:	28c54065 	ld.d	$r5,$r3,336(0x150)
  20ec8c:	001490a4 	and	$r4,$r5,$r4
  20ec90:	00156884 	or	$r4,$r4,$r26
  20ec94:	29c003a4 	st.d	$r4,$r29,0
  20ec98:	53fd63ff 	b	-672(0xffffd60) # 20e9f8 <rust_main+0x26b8>
  20ec9c:	28c0a076 	ld.d	$r22,$r3,40(0x28)
  20eca0:	28c5c064 	ld.d	$r4,$r3,368(0x170)
  20eca4:	28c60065 	ld.d	$r5,$r3,384(0x180)
  20eca8:	28c4806c 	ld.d	$r12,$r3,288(0x120)
  20ecac:	28c04073 	ld.d	$r19,$r3,16(0x10)
  20ecb0:	440058a0 	bnez	$r5,88(0x58) # 20ed08 <rust_main+0x29c8>
  20ecb4:	28c5e065 	ld.d	$r5,$r3,376(0x178)
  20ecb8:	400024a0 	beqz	$r5,36(0x24) # 20ecdc <rust_main+0x299c>
  20ecbc:	00150006 	move	$r6,$r0
  20ecc0:	28c48077 	ld.d	$r23,$r3,288(0x120)
  20ecc4:	040002e6 	csrxchg	$r6,$r23,0x0
  20ecc8:	00410ca5 	slli.d	$r5,$r5,0x3
  20eccc:	03802006 	ori	$r6,$r0,0x8
  20ecd0:	573a6fff 	bl	-50580(0xfff3a6c) # 20273c <_ZN79_$LT$allocator..slab..SlabByteAllocator$u20$as$u20$allocator..ByteAllocator$GT$7dealloc17h4f56f6574734f8a8E>
  20ecd4:	001502e4 	move	$r4,$r23
  20ecd8:	040002e4 	csrxchg	$r4,$r23,0x0
  20ecdc:	290ac076 	st.b	$r22,$r3,688(0x2b0)
  20ece0:	1a0000e4 	pcalau12i	$r4,7(0x7)
  20ece4:	02c4d084 	addi.d	$r4,$r4,308(0x134)
  20ece8:	03806405 	ori	$r5,$r0,0x19
  20ecec:	02cac066 	addi.d	$r6,$r3,688(0x2b0)
  20ecf0:	1a000147 	pcalau12i	$r7,10(0xa)
  20ecf4:	02fb40e7 	addi.d	$r7,$r7,-304(0xed0)
  20ecf8:	1a000148 	pcalau12i	$r8,10(0xa)
  20ecfc:	02fbc108 	addi.d	$r8,$r8,-272(0xef0)
  20ed00:	54151800 	bl	5400(0x1518) # 210218 <_ZN4core6result13unwrap_failed17h1feb0e9befb8d2f9E>
  20ed04:	38600400 	amswap.w	$r0,$r1,$r0
  20ed08:	00410ca5 	slli.d	$r5,$r5,0x3
  20ed0c:	03800406 	ori	$r6,$r0,0x1
  20ed10:	03888808 	ori	$r8,$r0,0x222
  20ed14:	03808809 	ori	$r9,$r0,0x22
  20ed18:	0015008a 	move	$r10,$r4
  20ed1c:	28c00147 	ld.d	$r7,$r10,0
  20ed20:	0015000b 	move	$r11,$r0
  20ed24:	0400018b 	csrxchg	$r11,$r12,0x0
  20ed28:	28c0426b 	ld.d	$r11,$r19,16(0x10)
  20ed2c:	02fffd6b 	addi.d	$r11,$r11,-1(0xfff)
  20ed30:	29c0426b 	st.d	$r11,$r19,16(0x10)
  20ed34:	28c0026b 	ld.d	$r11,$r19,0
  20ed38:	0011aced 	sub.d	$r13,$r7,$r11
  20ed3c:	004571a7 	srli.d	$r7,$r13,0x1c
  20ed40:	28c4606b 	ld.d	$r11,$r3,280(0x118)
  20ed44:	1600000b 	lu32i.d	$r11,0
  20ed48:	6800d56d 	bltu	$r11,$r13,212(0xd4) # 20ee1c <rust_main+0x2adc>
  20ed4c:	1400004b 	lu12i.w	$r11,2(0x2)
  20ed50:	0388896b 	ori	$r11,$r11,0x222
  20ed54:	001daceb 	mul.d	$r11,$r7,$r11
  20ed58:	0010ae6c 	add.d	$r12,$r19,$r11
  20ed5c:	00cf31ab 	bstrpick.d	$r11,$r13,0xf,0xc
  20ed60:	0018accf 	sll.d	$r15,$r6,$r11
  20ed64:	00db61ab 	bstrpick.d	$r11,$r13,0x1b,0x18
  20ed68:	001da16e 	mul.d	$r14,$r11,$r8
  20ed6c:	02c0618c 	addi.d	$r12,$r12,24(0x18)
  20ed70:	0010b98c 	add.d	$r12,$r12,$r14
  20ed74:	00d751ae 	bstrpick.d	$r14,$r13,0x17,0x14
  20ed78:	001da5d0 	mul.d	$r16,$r14,$r9
  20ed7c:	0010c190 	add.d	$r16,$r12,$r16
  20ed80:	00d341ad 	bstrpick.d	$r13,$r13,0x13,0x10
  20ed84:	004105b1 	slli.d	$r17,$r13,0x1
  20ed88:	38244611 	ldx.hu	$r17,$r16,$r17
  20ed8c:	0014be32 	and	$r18,$r17,$r15
  20ed90:	44012640 	bnez	$r18,292(0x124) # 20eeb4 <rust_main+0x2b74>
  20ed94:	02c0214a 	addi.d	$r10,$r10,8(0x8)
  20ed98:	002c41b2 	alsl.d	$r18,$r13,$r16,0x1
  20ed9c:	00153e2f 	or	$r15,$r17,$r15
  20eda0:	2940024f 	st.h	$r15,$r18,0
  20eda4:	0018b4cd 	sll.d	$r13,$r6,$r13
  20eda8:	2840820f 	ld.h	$r15,$r16,32(0x20)
  20edac:	001535ed 	or	$r13,$r15,$r13
  20edb0:	2940820d 	st.h	$r13,$r16,32(0x20)
  20edb4:	0018b8cd 	sll.d	$r13,$r6,$r14
  20edb8:	2848818e 	ld.h	$r14,$r12,544(0x220)
  20edbc:	001535cd 	or	$r13,$r14,$r13
  20edc0:	2948818d 	st.h	$r13,$r12,544(0x220)
  20edc4:	0018accb 	sll.d	$r11,$r6,$r11
  20edc8:	1400004c 	lu12i.w	$r12,2(0x2)
  20edcc:	0388898d 	ori	$r13,$r12,0x222
  20edd0:	001db4ed 	mul.d	$r13,$r7,$r13
  20edd4:	0010b66d 	add.d	$r13,$r19,$r13
  20edd8:	0388e18c 	ori	$r12,$r12,0x238
  20eddc:	380431ae 	ldx.h	$r14,$r13,$r12
  20ede0:	00152dcb 	or	$r11,$r14,$r11
  20ede4:	381431ab 	stx.h	$r11,$r13,$r12
  20ede8:	03403ce7 	andi	$r7,$r7,0xf
  20edec:	00189cc7 	sll.d	$r7,$r6,$r7
  20edf0:	1400044b 	lu12i.w	$r11,34(0x22)
  20edf4:	0388e16b 	ori	$r11,$r11,0x238
  20edf8:	38042e6c 	ldx.h	$r12,$r19,$r11
  20edfc:	00151d87 	or	$r7,$r12,$r7
  20ee00:	38142e67 	stx.h	$r7,$r19,$r11
  20ee04:	28c4806c 	ld.d	$r12,$r3,288(0x120)
  20ee08:	00150187 	move	$r7,$r12
  20ee0c:	04000187 	csrxchg	$r7,$r12,0x0
  20ee10:	02ffe0a5 	addi.d	$r5,$r5,-8(0xff8)
  20ee14:	47ff08bf 	bnez	$r5,-248(0x7fff08) # 20ed1c <rust_main+0x29dc>
  20ee18:	53fe9fff 	b	-356(0xffffe9c) # 20ecb4 <rust_main+0x2974>
  20ee1c:	03804005 	ori	$r5,$r0,0x10
  20ee20:	1a000124 	pcalau12i	$r4,9(0x9)
  20ee24:	02d34086 	addi.d	$r6,$r4,1232(0x4d0)
  20ee28:	001500e4 	move	$r4,$r7
  20ee2c:	5416a800 	bl	5800(0x16a8) # 2104d4 <_ZN4core9panicking18panic_bounds_check17h5afa83c7f9faa757E>
  20ee30:	38600400 	amswap.w	$r0,$r1,$r0
  20ee34:	28c62064 	ld.d	$r4,$r3,392(0x188)
  20ee38:	29cb2064 	st.d	$r4,$r3,712(0x2c8)
  20ee3c:	28c60064 	ld.d	$r4,$r3,384(0x180)
  20ee40:	29cb0064 	st.d	$r4,$r3,704(0x2c0)
  20ee44:	28c5e064 	ld.d	$r4,$r3,376(0x178)
  20ee48:	29cae064 	st.d	$r4,$r3,696(0x2b8)
  20ee4c:	28c5c064 	ld.d	$r4,$r3,368(0x170)
  20ee50:	29cac064 	st.d	$r4,$r3,688(0x2b0)
  20ee54:	1a000dc4 	pcalau12i	$r4,110(0x6e)
  20ee58:	02d04084 	addi.d	$r4,$r4,1040(0x410)
  20ee5c:	28008085 	ld.b	$r5,$r4,32(0x20)
  20ee60:	38720000 	dbar	0x0
  20ee64:	440034a0 	bnez	$r5,52(0x34) # 20ee98 <rust_main+0x2b58>
  20ee68:	28cb2065 	ld.d	$r5,$r3,712(0x2c8)
  20ee6c:	29c06085 	st.d	$r5,$r4,24(0x18)
  20ee70:	28cb0065 	ld.d	$r5,$r3,704(0x2c0)
  20ee74:	29c04085 	st.d	$r5,$r4,16(0x10)
  20ee78:	28cae065 	ld.d	$r5,$r3,696(0x2b8)
  20ee7c:	29c02085 	st.d	$r5,$r4,8(0x8)
  20ee80:	28cac065 	ld.d	$r5,$r3,688(0x2b0)
  20ee84:	29c00085 	st.d	$r5,$r4,0
  20ee88:	38720000 	dbar	0x0
  20ee8c:	03800405 	ori	$r5,$r0,0x1
  20ee90:	29008085 	st.b	$r5,$r4,32(0x20)
  20ee94:	53ed57ff 	b	-4780(0xfffed54) # 20dbe8 <rust_main+0x18a8>
  20ee98:	1a0000e4 	pcalau12i	$r4,7(0x7)
  20ee9c:	02f64c84 	addi.d	$r4,$r4,-621(0xd93)
  20eea0:	03808405 	ori	$r5,$r0,0x21
  20eea4:	1a000146 	pcalau12i	$r6,10(0xa)
  20eea8:	02f460c6 	addi.d	$r6,$r6,-744(0xd18)
  20eeac:	5413dc00 	bl	5084(0x13dc) # 210288 <_ZN4core9panicking5panic17hd6bc259b6eb19bb3E>
  20eeb0:	38600400 	amswap.w	$r0,$r1,$r0
  20eeb4:	1a0000e4 	pcalau12i	$r4,7(0x7)
  20eeb8:	02c7c484 	addi.d	$r4,$r4,497(0x1f1)
  20eebc:	03808405 	ori	$r5,$r0,0x21
  20eec0:	1a000146 	pcalau12i	$r6,10(0xa)
  20eec4:	02fd60c6 	addi.d	$r6,$r6,-168(0xf58)
  20eec8:	5413c000 	bl	5056(0x13c0) # 210288 <_ZN4core9panicking5panic17hd6bc259b6eb19bb3E>
  20eecc:	38600400 	amswap.w	$r0,$r1,$r0
  20eed0:	0380fc08 	ori	$r8,$r0,0x3f
  20eed4:	03807c09 	ori	$r9,$r0,0x1f
  20eed8:	00150007 	move	$r7,$r0
  20eedc:	00119804 	sub.d	$r4,$r0,$r6
  20eee0:	001490c4 	and	$r4,$r6,$r4
  20eee4:	001198aa 	sub.d	$r10,$r5,$r6
  20eee8:	0000254a 	clz.d	$r10,$r10
  20eeec:	0011a90a 	sub.d	$r10,$r8,$r10
  20eef0:	28c3e06b 	ld.d	$r11,$r3,248(0xf8)
  20eef4:	0018a96a 	sll.d	$r10,$r11,$r10
  20eef8:	0012a88b 	sltu	$r11,$r4,$r10
  20eefc:	0013ad4a 	masknez	$r10,$r10,$r11
  20ef00:	00132c84 	maskeqz	$r4,$r4,$r11
  20ef04:	0015288a 	or	$r10,$r4,$r10
  20ef08:	00002d44 	ctz.d	$r4,$r10
  20ef0c:	68003124 	bltu	$r9,$r4,48(0x30) # 20ef3c <rust_main+0x2bfc>
  20ef10:	00410c84 	slli.d	$r4,$r4,0x3
  20ef14:	380c588b 	ldx.d	$r11,$r4,$r22
  20ef18:	29c000cb 	st.d	$r11,$r6,0
  20ef1c:	381c5886 	stx.d	$r6,$r4,$r22
  20ef20:	00109d47 	add.d	$r7,$r10,$r7
  20ef24:	00109946 	add.d	$r6,$r10,$r6
  20ef28:	02c020c4 	addi.d	$r4,$r6,8(0x8)
  20ef2c:	6fffb0a4 	bgeu	$r5,$r4,-80(0x3ffb0) # 20eedc <rust_main+0x2b9c>
  20ef30:	28cf0064 	ld.d	$r4,$r3,960(0x3c0)
  20ef34:	00109c84 	add.d	$r4,$r4,$r7
  20ef38:	53e5ebff 	b	-6680(0xfffe5e8) # 20d520 <rust_main+0x11e0>
  20ef3c:	03808005 	ori	$r5,$r0,0x20
  20ef40:	1a000146 	pcalau12i	$r6,10(0xa)
  20ef44:	02dce0c6 	addi.d	$r6,$r6,1848(0x738)
  20ef48:	54158c00 	bl	5516(0x158c) # 2104d4 <_ZN4core9panicking18panic_bounds_check17h5afa83c7f9faa757E>
  20ef4c:	38600400 	amswap.w	$r0,$r1,$r0

000000000020ef50 <_ZN5alloc7raw_vec19RawVec$LT$T$C$A$GT$16reserve_for_push17hc00b61cf4dacf197E>:
_ZN5alloc7raw_vec19RawVec$LT$T$C$A$GT$16reserve_for_push17hc00b61cf4dacf197E():
  20ef50:	02fec063 	addi.d	$r3,$r3,-80(0xfb0)
  20ef54:	29c12061 	st.d	$r1,$r3,72(0x48)
  20ef58:	29c10076 	st.d	$r22,$r3,64(0x40)
  20ef5c:	29c0e077 	st.d	$r23,$r3,56(0x38)
  20ef60:	02c004a5 	addi.d	$r5,$r5,1(0x1)
  20ef64:	400090a0 	beqz	$r5,144(0x90) # 20eff4 <_ZN5alloc7raw_vec19RawVec$LT$T$C$A$GT$16reserve_for_push17hc00b61cf4dacf197E+0xa4>
  20ef68:	00150096 	move	$r22,$r4
  20ef6c:	28c02084 	ld.d	$r4,$r4,8(0x8)
  20ef70:	00410486 	slli.d	$r6,$r4,0x1
  20ef74:	001298a7 	sltu	$r7,$r5,$r6
  20ef78:	00139ca5 	masknez	$r5,$r5,$r7
  20ef7c:	00131cc6 	maskeqz	$r6,$r6,$r7
  20ef80:	001514c5 	or	$r5,$r6,$r5
  20ef84:	03801006 	ori	$r6,$r0,0x4
  20ef88:	001294c7 	sltu	$r7,$r6,$r5
  20ef8c:	00131ca5 	maskeqz	$r5,$r5,$r7
  20ef90:	00139cc6 	masknez	$r6,$r6,$r7
  20ef94:	001518b7 	or	$r23,$r5,$r6
  20ef98:	03040005 	lu52i.d	$r5,$r0,256(0x100)
  20ef9c:	001296e5 	sltu	$r5,$r23,$r5
  20efa0:	00410ee6 	slli.d	$r6,$r23,0x3
  20efa4:	00410ca5 	slli.d	$r5,$r5,0x3
  20efa8:	40002080 	beqz	$r4,32(0x20) # 20efc8 <_ZN5alloc7raw_vec19RawVec$LT$T$C$A$GT$16reserve_for_push17hc00b61cf4dacf197E+0x78>
  20efac:	28c002c7 	ld.d	$r7,$r22,0
  20efb0:	00410c84 	slli.d	$r4,$r4,0x3
  20efb4:	29c0c064 	st.d	$r4,$r3,48(0x30)
  20efb8:	03802004 	ori	$r4,$r0,0x8
  20efbc:	29c0a064 	st.d	$r4,$r3,40(0x28)
  20efc0:	29c08067 	st.d	$r7,$r3,32(0x20)
  20efc4:	50000800 	b	8(0x8) # 20efcc <_ZN5alloc7raw_vec19RawVec$LT$T$C$A$GT$16reserve_for_push17hc00b61cf4dacf197E+0x7c>
  20efc8:	29c0a060 	st.d	$r0,$r3,40(0x28)
  20efcc:	02c02064 	addi.d	$r4,$r3,8(0x8)
  20efd0:	02c08067 	addi.d	$r7,$r3,32(0x20)
  20efd4:	573bdbff 	bl	-50216(0xfff3bd8) # 202bac <_ZN5alloc7raw_vec11finish_grow17h1528145fc29c2e0eE>
  20efd8:	28c04064 	ld.d	$r4,$r3,16(0x10)
  20efdc:	28c02065 	ld.d	$r5,$r3,8(0x8)
  20efe0:	40001ca0 	beqz	$r5,28(0x1c) # 20effc <_ZN5alloc7raw_vec19RawVec$LT$T$C$A$GT$16reserve_for_push17hc00b61cf4dacf197E+0xac>
  20efe4:	03800405 	ori	$r5,$r0,0x1
  20efe8:	032000a5 	lu52i.d	$r5,$r5,-2048(0x800)
  20efec:	58001885 	beq	$r4,$r5,24(0x18) # 20f004 <_ZN5alloc7raw_vec19RawVec$LT$T$C$A$GT$16reserve_for_push17hc00b61cf4dacf197E+0xb4>
  20eff0:	44002880 	bnez	$r4,40(0x28) # 20f018 <_ZN5alloc7raw_vec19RawVec$LT$T$C$A$GT$16reserve_for_push17hc00b61cf4dacf197E+0xc8>
  20eff4:	573063ff 	bl	-53152(0xfff3060) # 202054 <_ZN5alloc7raw_vec17capacity_overflow17h68933b2e0f5d11dbE>
  20eff8:	38600400 	amswap.w	$r0,$r1,$r0
  20effc:	29c022d7 	st.d	$r23,$r22,8(0x8)
  20f000:	29c002c4 	st.d	$r4,$r22,0
  20f004:	28c0e077 	ld.d	$r23,$r3,56(0x38)
  20f008:	28c10076 	ld.d	$r22,$r3,64(0x40)
  20f00c:	28c12061 	ld.d	$r1,$r3,72(0x48)
  20f010:	02c14063 	addi.d	$r3,$r3,80(0x50)
  20f014:	4c000020 	jirl	$r0,$r1,0
  20f018:	28c06064 	ld.d	$r4,$r3,24(0x18)
  20f01c:	573033ff 	bl	-53200(0xfff3030) # 20204c <__rust_alloc_error_handler>
  20f020:	38600400 	amswap.w	$r0,$r1,$r0

000000000020f024 <_ZN4core3fmt3num53_$LT$impl$u20$core..fmt..LowerHex$u20$for$u20$i32$GT$3fmt17h80c9dda535a7ebb5E>:
_ZN4core3fmt3num53_$LT$impl$u20$core..fmt..LowerHex$u20$for$u20$i32$GT$3fmt17h80c9dda535a7ebb5E():
  20f024:	02fdc063 	addi.d	$r3,$r3,-144(0xf70)
  20f028:	29c22061 	st.d	$r1,$r3,136(0x88)
  20f02c:	28800089 	ld.w	$r9,$r4,0
  20f030:	03815c04 	ori	$r4,$r0,0x57
  20f034:	0380c008 	ori	$r8,$r0,0x30
  20f038:	02c02066 	addi.d	$r6,$r3,8(0x8)
  20f03c:	0380400a 	ori	$r10,$r0,0x10
  20f040:	00150007 	move	$r7,$r0
  20f044:	03403d2b 	andi	$r11,$r9,0xf
  20f048:	0240296c 	sltui	$r12,$r11,10(0xa)
  20f04c:	0013b08d 	masknez	$r13,$r4,$r12
  20f050:	0013310c 	maskeqz	$r12,$r8,$r12
  20f054:	0015358c 	or	$r12,$r12,$r13
  20f058:	0010ad8b 	add.d	$r11,$r12,$r11
  20f05c:	00109ccc 	add.d	$r12,$r6,$r7
  20f060:	2901fd8b 	st.b	$r11,$r12,127(0x7f)
  20f064:	02fffce7 	addi.d	$r7,$r7,-1(0xfff)
  20f068:	00df112b 	bstrpick.d	$r11,$r9,0x1f,0x4
  20f06c:	00df012c 	bstrpick.d	$r12,$r9,0x1f,0x0
  20f070:	00150169 	move	$r9,$r11
  20f074:	6fffd18a 	bgeu	$r12,$r10,-48(0x3ffd0) # 20f044 <_ZN4core3fmt3num53_$LT$impl$u20$core..fmt..LowerHex$u20$for$u20$i32$GT$3fmt17h80c9dda535a7ebb5E+0x20>
  20f078:	02c200e4 	addi.d	$r4,$r7,128(0x80)
  20f07c:	03820408 	ori	$r8,$r0,0x81
  20f080:	6c003488 	bgeu	$r4,$r8,52(0x34) # 20f0b4 <_ZN4core3fmt3num53_$LT$impl$u20$core..fmt..LowerHex$u20$for$u20$i32$GT$3fmt17h80c9dda535a7ebb5E+0x90>
  20f084:	00119c08 	sub.d	$r8,$r0,$r7
  20f088:	00109cc4 	add.d	$r4,$r6,$r7
  20f08c:	02c20087 	addi.d	$r7,$r4,128(0x80)
  20f090:	1a0000e4 	pcalau12i	$r4,7(0x7)
  20f094:	02c59889 	addi.d	$r9,$r4,358(0x166)
  20f098:	03800806 	ori	$r6,$r0,0x2
  20f09c:	001500a4 	move	$r4,$r5
  20f0a0:	00150125 	move	$r5,$r9
  20f0a4:	541db000 	bl	7600(0x1db0) # 210e54 <_ZN4core3fmt9Formatter12pad_integral17hfdb629c44e553f8dE>
  20f0a8:	28c22061 	ld.d	$r1,$r3,136(0x88)
  20f0ac:	02c24063 	addi.d	$r3,$r3,144(0x90)
  20f0b0:	4c000020 	jirl	$r0,$r1,0
  20f0b4:	03820005 	ori	$r5,$r0,0x80
  20f0b8:	1a000126 	pcalau12i	$r6,9(0x9)
  20f0bc:	02ccc0c6 	addi.d	$r6,$r6,816(0x330)
  20f0c0:	5414b000 	bl	5296(0x14b0) # 210570 <_ZN4core5slice5index26slice_start_index_len_fail17h7935edb336fdba66E>
  20f0c4:	38600400 	amswap.w	$r0,$r1,$r0

000000000020f0c8 <_ZN4core3fmt3num53_$LT$impl$u20$core..fmt..LowerHex$u20$for$u20$i64$GT$3fmt17hebb2992ab0f9d627E>:
_ZN4core3fmt3num53_$LT$impl$u20$core..fmt..LowerHex$u20$for$u20$i64$GT$3fmt17hebb2992ab0f9d627E():
  20f0c8:	02fdc063 	addi.d	$r3,$r3,-144(0xf70)
  20f0cc:	29c22061 	st.d	$r1,$r3,136(0x88)
  20f0d0:	28c0008a 	ld.d	$r10,$r4,0
  20f0d4:	03815c04 	ori	$r4,$r0,0x57
  20f0d8:	0380c008 	ori	$r8,$r0,0x30
  20f0dc:	02c02066 	addi.d	$r6,$r3,8(0x8)
  20f0e0:	03804009 	ori	$r9,$r0,0x10
  20f0e4:	00150007 	move	$r7,$r0
  20f0e8:	0015014b 	move	$r11,$r10
  20f0ec:	03403d4a 	andi	$r10,$r10,0xf
  20f0f0:	0240294c 	sltui	$r12,$r10,10(0xa)
  20f0f4:	0013b08d 	masknez	$r13,$r4,$r12
  20f0f8:	0013310c 	maskeqz	$r12,$r8,$r12
  20f0fc:	0015358c 	or	$r12,$r12,$r13
  20f100:	0010a98a 	add.d	$r10,$r12,$r10
  20f104:	00109ccc 	add.d	$r12,$r6,$r7
  20f108:	2901fd8a 	st.b	$r10,$r12,127(0x7f)
  20f10c:	02fffce7 	addi.d	$r7,$r7,-1(0xfff)
  20f110:	0045116a 	srli.d	$r10,$r11,0x4
  20f114:	6fffd569 	bgeu	$r11,$r9,-44(0x3ffd4) # 20f0e8 <_ZN4core3fmt3num53_$LT$impl$u20$core..fmt..LowerHex$u20$for$u20$i64$GT$3fmt17hebb2992ab0f9d627E+0x20>
  20f118:	02c200e4 	addi.d	$r4,$r7,128(0x80)
  20f11c:	03820408 	ori	$r8,$r0,0x81
  20f120:	6c003488 	bgeu	$r4,$r8,52(0x34) # 20f154 <_ZN4core3fmt3num53_$LT$impl$u20$core..fmt..LowerHex$u20$for$u20$i64$GT$3fmt17hebb2992ab0f9d627E+0x8c>
  20f124:	00119c08 	sub.d	$r8,$r0,$r7
  20f128:	00109cc4 	add.d	$r4,$r6,$r7
  20f12c:	02c20087 	addi.d	$r7,$r4,128(0x80)
  20f130:	1a0000e4 	pcalau12i	$r4,7(0x7)
  20f134:	02c59889 	addi.d	$r9,$r4,358(0x166)
  20f138:	03800806 	ori	$r6,$r0,0x2
  20f13c:	001500a4 	move	$r4,$r5
  20f140:	00150125 	move	$r5,$r9
  20f144:	541d1000 	bl	7440(0x1d10) # 210e54 <_ZN4core3fmt9Formatter12pad_integral17hfdb629c44e553f8dE>
  20f148:	28c22061 	ld.d	$r1,$r3,136(0x88)
  20f14c:	02c24063 	addi.d	$r3,$r3,144(0x90)
  20f150:	4c000020 	jirl	$r0,$r1,0
  20f154:	03820005 	ori	$r5,$r0,0x80
  20f158:	1a000126 	pcalau12i	$r6,9(0x9)
  20f15c:	02ccc0c6 	addi.d	$r6,$r6,816(0x330)
  20f160:	54141000 	bl	5136(0x1410) # 210570 <_ZN4core5slice5index26slice_start_index_len_fail17h7935edb336fdba66E>
  20f164:	38600400 	amswap.w	$r0,$r1,$r0

000000000020f168 <_ZN36_$LT$T$u20$as$u20$core..any..Any$GT$7type_id17h65e19dbf60734e21E>:
_ZN36_$LT$T$u20$as$u20$core..any..Any$GT$7type_id17h65e19dbf60734e21E():
  20f168:	153dba04 	lu12i.w	$r4,-397872(0x9edd0)
  20f16c:	03af2884 	ori	$r4,$r4,0xbca
  20f170:	16793624 	lu32i.d	$r4,248241(0x3c9b1)
  20f174:	0328f484 	lu52i.d	$r4,$r4,-1475(0xa3d)
  20f178:	4c000020 	jirl	$r0,$r1,0

000000000020f17c <_ZN4core3fmt3num3imp52_$LT$impl$u20$core..fmt..Display$u20$for$u20$u32$GT$3fmt17hb8f49ff0e63859a2E>:
_ZN4core3fmt3num3imp52_$LT$impl$u20$core..fmt..Display$u20$for$u20$u32$GT$3fmt17hb8f49ff0e63859a2E():
  20f17c:	02ff4063 	addi.d	$r3,$r3,-48(0xfd0)
  20f180:	29c0a061 	st.d	$r1,$r3,40(0x28)
  20f184:	001500a6 	move	$r6,$r5
  20f188:	2a800088 	ld.wu	$r8,$r4,0
  20f18c:	14000044 	lu12i.w	$r4,2(0x2)
  20f190:	039c4089 	ori	$r9,$r4,0x710
  20f194:	02be7007 	addi.w	$r7,$r0,-100(0xf9c)
  20f198:	02c00464 	addi.d	$r4,$r3,1(0x1)
  20f19c:	1a0000e5 	pcalau12i	$r5,7(0x7)
  20f1a0:	02f4f4a5 	addi.d	$r5,$r5,-707(0xd3d)
  20f1a4:	6800d509 	bltu	$r8,$r9,212(0xd4) # 20f278 <_ZN4core3fmt3num3imp52_$LT$impl$u20$core..fmt..Display$u20$for$u20$u32$GT$3fmt17hb8f49ff0e63859a2E+0xfc>
  20f1a8:	00150009 	move	$r9,$r0
  20f1ac:	0015010a 	move	$r10,$r8
  20f1b0:	14710ca8 	lu12i.w	$r8,231525(0x38865)
  20f1b4:	03a52d08 	ori	$r8,$r8,0x94b
  20f1b8:	17b8bac8 	lu32i.d	$r8,-145962(0xdc5d6)
  20f1bc:	030d1908 	lu52i.d	$r8,$r8,838(0x346)
  20f1c0:	001ea148 	mulh.du	$r8,$r10,$r8
  20f1c4:	00452d08 	srli.d	$r8,$r8,0xb
  20f1c8:	140001ab 	lu12i.w	$r11,13(0xd)
  20f1cc:	03a3c16b 	ori	$r11,$r11,0x8f0
  20f1d0:	001dad0b 	mul.d	$r11,$r8,$r11
  20f1d4:	0010a96b 	add.d	$r11,$r11,$r10
  20f1d8:	1400002c 	lu12i.w	$r12,1(0x1)
  20f1dc:	0391ed8c 	ori	$r12,$r12,0x47b
  20f1e0:	00cf096d 	bstrpick.d	$r13,$r11,0xf,0x2
  20f1e4:	001db1ac 	mul.d	$r12,$r13,$r12
  20f1e8:	0045458c 	srli.d	$r12,$r12,0x11
  20f1ec:	001d9d8d 	mul.d	$r13,$r12,$r7
  20f1f0:	0010adab 	add.d	$r11,$r13,$r11
  20f1f4:	0010a48d 	add.d	$r13,$r4,$r9
  20f1f8:	002c158e 	alsl.d	$r14,$r12,$r5,0x1
  20f1fc:	2a0005ce 	ld.bu	$r14,$r14,1(0x1)
  20f200:	290091ae 	st.b	$r14,$r13,36(0x24)
  20f204:	0041058c 	slli.d	$r12,$r12,0x1
  20f208:	382030ac 	ldx.bu	$r12,$r5,$r12
  20f20c:	29008dac 	st.b	$r12,$r13,35(0x23)
  20f210:	00cf016b 	bstrpick.d	$r11,$r11,0xf,0x0
  20f214:	002c156c 	alsl.d	$r12,$r11,$r5,0x1
  20f218:	2a00058c 	ld.bu	$r12,$r12,1(0x1)
  20f21c:	290099ac 	st.b	$r12,$r13,38(0x26)
  20f220:	0041056b 	slli.d	$r11,$r11,0x1
  20f224:	38202cab 	ldx.bu	$r11,$r5,$r11
  20f228:	290095ab 	st.b	$r11,$r13,37(0x25)
  20f22c:	02fff129 	addi.d	$r9,$r9,-4(0xffc)
  20f230:	140bebcb 	lu12i.w	$r11,24414(0x5f5e)
  20f234:	0383fd6b 	ori	$r11,$r11,0xff
  20f238:	6bff756a 	bltu	$r11,$r10,-140(0x3ff74) # 20f1ac <_ZN4core3fmt3num3imp52_$LT$impl$u20$core..fmt..Display$u20$for$u20$u32$GT$3fmt17hb8f49ff0e63859a2E+0x30>
  20f23c:	02c09d29 	addi.d	$r9,$r9,39(0x27)
  20f240:	03818c0a 	ori	$r10,$r0,0x63
  20f244:	68004148 	bltu	$r10,$r8,64(0x40) # 20f284 <_ZN4core3fmt3num3imp52_$LT$impl$u20$core..fmt..Display$u20$for$u20$u32$GT$3fmt17hb8f49ff0e63859a2E+0x108>
  20f248:	0015010a 	move	$r10,$r8
  20f24c:	03802807 	ori	$r7,$r0,0xa
  20f250:	68007d47 	bltu	$r10,$r7,124(0x7c) # 20f2cc <_ZN4core3fmt3num3imp52_$LT$impl$u20$core..fmt..Display$u20$for$u20$u32$GT$3fmt17hb8f49ff0e63859a2E+0x150>
  20f254:	00410547 	slli.d	$r7,$r10,0x1
  20f258:	38201ca7 	ldx.bu	$r7,$r5,$r7
  20f25c:	02fff928 	addi.d	$r8,$r9,-2(0xffe)
  20f260:	38101107 	stx.b	$r7,$r8,$r4
  20f264:	002c1545 	alsl.d	$r5,$r10,$r5,0x1
  20f268:	0010a087 	add.d	$r7,$r4,$r8
  20f26c:	2a0004a5 	ld.bu	$r5,$r5,1(0x1)
  20f270:	290004e5 	st.b	$r5,$r7,1(0x1)
  20f274:	50006400 	b	100(0x64) # 20f2d8 <_ZN4core3fmt3num3imp52_$LT$impl$u20$core..fmt..Display$u20$for$u20$u32$GT$3fmt17hb8f49ff0e63859a2E+0x15c>
  20f278:	03809c09 	ori	$r9,$r0,0x27
  20f27c:	03818c0a 	ori	$r10,$r0,0x63
  20f280:	6fffc948 	bgeu	$r10,$r8,-56(0x3ffc8) # 20f248 <_ZN4core3fmt3num3imp52_$LT$impl$u20$core..fmt..Display$u20$for$u20$u32$GT$3fmt17hb8f49ff0e63859a2E+0xcc>
  20f284:	1400002a 	lu12i.w	$r10,1(0x1)
  20f288:	0391ed4a 	ori	$r10,$r10,0x47b
  20f28c:	00cf090b 	bstrpick.d	$r11,$r8,0xf,0x2
  20f290:	001da96a 	mul.d	$r10,$r11,$r10
  20f294:	0045454a 	srli.d	$r10,$r10,0x11
  20f298:	001d9d47 	mul.d	$r7,$r10,$r7
  20f29c:	0010a0e7 	add.d	$r7,$r7,$r8
  20f2a0:	00cf00e7 	bstrpick.d	$r7,$r7,0xf,0x0
  20f2a4:	02fff929 	addi.d	$r9,$r9,-2(0xffe)
  20f2a8:	004104e8 	slli.d	$r8,$r7,0x1
  20f2ac:	382020a8 	ldx.bu	$r8,$r5,$r8
  20f2b0:	38101128 	stx.b	$r8,$r9,$r4
  20f2b4:	002c14e7 	alsl.d	$r7,$r7,$r5,0x1
  20f2b8:	0010a488 	add.d	$r8,$r4,$r9
  20f2bc:	2a0004e7 	ld.bu	$r7,$r7,1(0x1)
  20f2c0:	29000507 	st.b	$r7,$r8,1(0x1)
  20f2c4:	03802807 	ori	$r7,$r0,0xa
  20f2c8:	6fff8d47 	bgeu	$r10,$r7,-116(0x3ff8c) # 20f254 <_ZN4core3fmt3num3imp52_$LT$impl$u20$core..fmt..Display$u20$for$u20$u32$GT$3fmt17hb8f49ff0e63859a2E+0xd8>
  20f2cc:	02fffd28 	addi.d	$r8,$r9,-1(0xfff)
  20f2d0:	02c0c145 	addi.d	$r5,$r10,48(0x30)
  20f2d4:	38101105 	stx.b	$r5,$r8,$r4
  20f2d8:	0010a087 	add.d	$r7,$r4,$r8
  20f2dc:	03809c04 	ori	$r4,$r0,0x27
  20f2e0:	0011a088 	sub.d	$r8,$r4,$r8
  20f2e4:	1a0000e4 	pcalau12i	$r4,7(0x7)
  20f2e8:	02c42085 	addi.d	$r5,$r4,264(0x108)
  20f2ec:	001500c4 	move	$r4,$r6
  20f2f0:	00150006 	move	$r6,$r0
  20f2f4:	541b6000 	bl	7008(0x1b60) # 210e54 <_ZN4core3fmt9Formatter12pad_integral17hfdb629c44e553f8dE>
  20f2f8:	28c0a061 	ld.d	$r1,$r3,40(0x28)
  20f2fc:	02c0c063 	addi.d	$r3,$r3,48(0x30)
  20f300:	4c000020 	jirl	$r0,$r1,0

000000000020f304 <_ZN4core3fmt3num3imp51_$LT$impl$u20$core..fmt..Display$u20$for$u20$u8$GT$3fmt17h89dee3c401e83adbE>:
_ZN4core3fmt3num3imp51_$LT$impl$u20$core..fmt..Display$u20$for$u20$u8$GT$3fmt17h89dee3c401e83adbE():
  20f304:	02ff4063 	addi.d	$r3,$r3,-48(0xfd0)
  20f308:	29c0a061 	st.d	$r1,$r3,40(0x28)
  20f30c:	001500a6 	move	$r6,$r5
  20f310:	2a000085 	ld.bu	$r5,$r4,0
  20f314:	03818c07 	ori	$r7,$r0,0x63
  20f318:	02c00464 	addi.d	$r4,$r3,1(0x1)
  20f31c:	6c004ce5 	bgeu	$r7,$r5,76(0x4c) # 20f368 <_ZN4core3fmt3num3imp51_$LT$impl$u20$core..fmt..Display$u20$for$u20$u8$GT$3fmt17h89dee3c401e83adbE+0x64>
  20f320:	0380a407 	ori	$r7,$r0,0x29
  20f324:	001d9ca7 	mul.d	$r7,$r5,$r7
  20f328:	004530e7 	srli.d	$r7,$r7,0xc
  20f32c:	02be7008 	addi.w	$r8,$r0,-100(0xf9c)
  20f330:	001da0e8 	mul.d	$r8,$r7,$r8
  20f334:	00109505 	add.d	$r5,$r8,$r5
  20f338:	0343fca5 	andi	$r5,$r5,0xff
  20f33c:	1a0000e8 	pcalau12i	$r8,7(0x7)
  20f340:	02f4f508 	addi.d	$r8,$r8,-707(0xd3d)
  20f344:	002c20a9 	alsl.d	$r9,$r5,$r8,0x1
  20f348:	2a000529 	ld.bu	$r9,$r9,1(0x1)
  20f34c:	29009c69 	st.b	$r9,$r3,39(0x27)
  20f350:	004104a5 	slli.d	$r5,$r5,0x1
  20f354:	38201505 	ldx.bu	$r5,$r8,$r5
  20f358:	29009865 	st.b	$r5,$r3,38(0x26)
  20f35c:	03809008 	ori	$r8,$r0,0x24
  20f360:	001500e5 	move	$r5,$r7
  20f364:	50001000 	b	16(0x10) # 20f374 <_ZN4core3fmt3num3imp51_$LT$impl$u20$core..fmt..Display$u20$for$u20$u8$GT$3fmt17h89dee3c401e83adbE+0x70>
  20f368:	03802807 	ori	$r7,$r0,0xa
  20f36c:	6c0014a7 	bgeu	$r5,$r7,20(0x14) # 20f380 <_ZN4core3fmt3num3imp51_$LT$impl$u20$core..fmt..Display$u20$for$u20$u8$GT$3fmt17h89dee3c401e83adbE+0x7c>
  20f370:	03809808 	ori	$r8,$r0,0x26
  20f374:	0380c0a5 	ori	$r5,$r5,0x30
  20f378:	38101105 	stx.b	$r5,$r8,$r4
  20f37c:	50002800 	b	40(0x28) # 20f3a4 <_ZN4core3fmt3num3imp51_$LT$impl$u20$core..fmt..Display$u20$for$u20$u8$GT$3fmt17h89dee3c401e83adbE+0xa0>
  20f380:	1a0000e7 	pcalau12i	$r7,7(0x7)
  20f384:	02f4f4e7 	addi.d	$r7,$r7,-707(0xd3d)
  20f388:	002c1ca8 	alsl.d	$r8,$r5,$r7,0x1
  20f38c:	2a000508 	ld.bu	$r8,$r8,1(0x1)
  20f390:	29009c68 	st.b	$r8,$r3,39(0x27)
  20f394:	004104a5 	slli.d	$r5,$r5,0x1
  20f398:	382014e5 	ldx.bu	$r5,$r7,$r5
  20f39c:	29009865 	st.b	$r5,$r3,38(0x26)
  20f3a0:	03809408 	ori	$r8,$r0,0x25
  20f3a4:	0010a087 	add.d	$r7,$r4,$r8
  20f3a8:	03809c04 	ori	$r4,$r0,0x27
  20f3ac:	0011a088 	sub.d	$r8,$r4,$r8
  20f3b0:	1a0000e4 	pcalau12i	$r4,7(0x7)
  20f3b4:	02c42085 	addi.d	$r5,$r4,264(0x108)
  20f3b8:	001500c4 	move	$r4,$r6
  20f3bc:	00150006 	move	$r6,$r0
  20f3c0:	541a9400 	bl	6804(0x1a94) # 210e54 <_ZN4core3fmt9Formatter12pad_integral17hfdb629c44e553f8dE>
  20f3c4:	28c0a061 	ld.d	$r1,$r3,40(0x28)
  20f3c8:	02c0c063 	addi.d	$r3,$r3,48(0x30)
  20f3cc:	4c000020 	jirl	$r0,$r1,0

000000000020f3d0 <_ZN4core3fmt3num3imp52_$LT$impl$u20$core..fmt..Display$u20$for$u20$u64$GT$3fmt17h0b6ebaba01c8b118E>:
_ZN4core3fmt3num3imp52_$LT$impl$u20$core..fmt..Display$u20$for$u20$u64$GT$3fmt17h0b6ebaba01c8b118E():
  20f3d0:	02ff4063 	addi.d	$r3,$r3,-48(0xfd0)
  20f3d4:	29c0a061 	st.d	$r1,$r3,40(0x28)
  20f3d8:	001500a6 	move	$r6,$r5
  20f3dc:	28c00088 	ld.d	$r8,$r4,0
  20f3e0:	14000044 	lu12i.w	$r4,2(0x2)
  20f3e4:	039c4089 	ori	$r9,$r4,0x710
  20f3e8:	02be7007 	addi.w	$r7,$r0,-100(0xf9c)
  20f3ec:	02c00464 	addi.d	$r4,$r3,1(0x1)
  20f3f0:	1a0000e5 	pcalau12i	$r5,7(0x7)
  20f3f4:	02f4f4a5 	addi.d	$r5,$r5,-707(0xd3d)
  20f3f8:	6800d509 	bltu	$r8,$r9,212(0xd4) # 20f4cc <_ZN4core3fmt3num3imp52_$LT$impl$u20$core..fmt..Display$u20$for$u20$u64$GT$3fmt17h0b6ebaba01c8b118E+0xfc>
  20f3fc:	00150009 	move	$r9,$r0
  20f400:	0015010a 	move	$r10,$r8
  20f404:	14710ca8 	lu12i.w	$r8,231525(0x38865)
  20f408:	03a52d08 	ori	$r8,$r8,0x94b
  20f40c:	17b8bac8 	lu32i.d	$r8,-145962(0xdc5d6)
  20f410:	030d1908 	lu52i.d	$r8,$r8,838(0x346)
  20f414:	001ea148 	mulh.du	$r8,$r10,$r8
  20f418:	00452d08 	srli.d	$r8,$r8,0xb
  20f41c:	140001ab 	lu12i.w	$r11,13(0xd)
  20f420:	03a3c16b 	ori	$r11,$r11,0x8f0
  20f424:	001dad0b 	mul.d	$r11,$r8,$r11
  20f428:	0010a96b 	add.d	$r11,$r11,$r10
  20f42c:	1400002c 	lu12i.w	$r12,1(0x1)
  20f430:	0391ed8c 	ori	$r12,$r12,0x47b
  20f434:	00cf096d 	bstrpick.d	$r13,$r11,0xf,0x2
  20f438:	001db1ac 	mul.d	$r12,$r13,$r12
  20f43c:	0045458c 	srli.d	$r12,$r12,0x11
  20f440:	001d9d8d 	mul.d	$r13,$r12,$r7
  20f444:	0010adab 	add.d	$r11,$r13,$r11
  20f448:	0010a48d 	add.d	$r13,$r4,$r9
  20f44c:	002c158e 	alsl.d	$r14,$r12,$r5,0x1
  20f450:	2a0005ce 	ld.bu	$r14,$r14,1(0x1)
  20f454:	290091ae 	st.b	$r14,$r13,36(0x24)
  20f458:	0041058c 	slli.d	$r12,$r12,0x1
  20f45c:	382030ac 	ldx.bu	$r12,$r5,$r12
  20f460:	29008dac 	st.b	$r12,$r13,35(0x23)
  20f464:	00cf016b 	bstrpick.d	$r11,$r11,0xf,0x0
  20f468:	002c156c 	alsl.d	$r12,$r11,$r5,0x1
  20f46c:	2a00058c 	ld.bu	$r12,$r12,1(0x1)
  20f470:	290099ac 	st.b	$r12,$r13,38(0x26)
  20f474:	0041056b 	slli.d	$r11,$r11,0x1
  20f478:	38202cab 	ldx.bu	$r11,$r5,$r11
  20f47c:	290095ab 	st.b	$r11,$r13,37(0x25)
  20f480:	02fff129 	addi.d	$r9,$r9,-4(0xffc)
  20f484:	140bebcb 	lu12i.w	$r11,24414(0x5f5e)
  20f488:	0383fd6b 	ori	$r11,$r11,0xff
  20f48c:	6bff756a 	bltu	$r11,$r10,-140(0x3ff74) # 20f400 <_ZN4core3fmt3num3imp52_$LT$impl$u20$core..fmt..Display$u20$for$u20$u64$GT$3fmt17h0b6ebaba01c8b118E+0x30>
  20f490:	02c09d29 	addi.d	$r9,$r9,39(0x27)
  20f494:	03818c0a 	ori	$r10,$r0,0x63
  20f498:	68004148 	bltu	$r10,$r8,64(0x40) # 20f4d8 <_ZN4core3fmt3num3imp52_$LT$impl$u20$core..fmt..Display$u20$for$u20$u64$GT$3fmt17h0b6ebaba01c8b118E+0x108>
  20f49c:	0015010a 	move	$r10,$r8
  20f4a0:	03802807 	ori	$r7,$r0,0xa
  20f4a4:	68007d47 	bltu	$r10,$r7,124(0x7c) # 20f520 <_ZN4core3fmt3num3imp52_$LT$impl$u20$core..fmt..Display$u20$for$u20$u64$GT$3fmt17h0b6ebaba01c8b118E+0x150>
  20f4a8:	00410547 	slli.d	$r7,$r10,0x1
  20f4ac:	38201ca7 	ldx.bu	$r7,$r5,$r7
  20f4b0:	02fff928 	addi.d	$r8,$r9,-2(0xffe)
  20f4b4:	38101107 	stx.b	$r7,$r8,$r4
  20f4b8:	002c1545 	alsl.d	$r5,$r10,$r5,0x1
  20f4bc:	0010a087 	add.d	$r7,$r4,$r8
  20f4c0:	2a0004a5 	ld.bu	$r5,$r5,1(0x1)
  20f4c4:	290004e5 	st.b	$r5,$r7,1(0x1)
  20f4c8:	50006400 	b	100(0x64) # 20f52c <_ZN4core3fmt3num3imp52_$LT$impl$u20$core..fmt..Display$u20$for$u20$u64$GT$3fmt17h0b6ebaba01c8b118E+0x15c>
  20f4cc:	03809c09 	ori	$r9,$r0,0x27
  20f4d0:	03818c0a 	ori	$r10,$r0,0x63
  20f4d4:	6fffc948 	bgeu	$r10,$r8,-56(0x3ffc8) # 20f49c <_ZN4core3fmt3num3imp52_$LT$impl$u20$core..fmt..Display$u20$for$u20$u64$GT$3fmt17h0b6ebaba01c8b118E+0xcc>
  20f4d8:	1400002a 	lu12i.w	$r10,1(0x1)
  20f4dc:	0391ed4a 	ori	$r10,$r10,0x47b
  20f4e0:	00cf090b 	bstrpick.d	$r11,$r8,0xf,0x2
  20f4e4:	001da96a 	mul.d	$r10,$r11,$r10
  20f4e8:	0045454a 	srli.d	$r10,$r10,0x11
  20f4ec:	001d9d47 	mul.d	$r7,$r10,$r7
  20f4f0:	0010a0e7 	add.d	$r7,$r7,$r8
  20f4f4:	00cf00e7 	bstrpick.d	$r7,$r7,0xf,0x0
  20f4f8:	02fff929 	addi.d	$r9,$r9,-2(0xffe)
  20f4fc:	004104e8 	slli.d	$r8,$r7,0x1
  20f500:	382020a8 	ldx.bu	$r8,$r5,$r8
  20f504:	38101128 	stx.b	$r8,$r9,$r4
  20f508:	002c14e7 	alsl.d	$r7,$r7,$r5,0x1
  20f50c:	0010a488 	add.d	$r8,$r4,$r9
  20f510:	2a0004e7 	ld.bu	$r7,$r7,1(0x1)
  20f514:	29000507 	st.b	$r7,$r8,1(0x1)
  20f518:	03802807 	ori	$r7,$r0,0xa
  20f51c:	6fff8d47 	bgeu	$r10,$r7,-116(0x3ff8c) # 20f4a8 <_ZN4core3fmt3num3imp52_$LT$impl$u20$core..fmt..Display$u20$for$u20$u64$GT$3fmt17h0b6ebaba01c8b118E+0xd8>
  20f520:	02fffd28 	addi.d	$r8,$r9,-1(0xfff)
  20f524:	02c0c145 	addi.d	$r5,$r10,48(0x30)
  20f528:	38101105 	stx.b	$r5,$r8,$r4
  20f52c:	0010a087 	add.d	$r7,$r4,$r8
  20f530:	03809c04 	ori	$r4,$r0,0x27
  20f534:	0011a088 	sub.d	$r8,$r4,$r8
  20f538:	1a0000e4 	pcalau12i	$r4,7(0x7)
  20f53c:	02c42085 	addi.d	$r5,$r4,264(0x108)
  20f540:	001500c4 	move	$r4,$r6
  20f544:	00150006 	move	$r6,$r0
  20f548:	54190c00 	bl	6412(0x190c) # 210e54 <_ZN4core3fmt9Formatter12pad_integral17hfdb629c44e553f8dE>
  20f54c:	28c0a061 	ld.d	$r1,$r3,40(0x28)
  20f550:	02c0c063 	addi.d	$r3,$r3,48(0x30)
  20f554:	4c000020 	jirl	$r0,$r1,0

000000000020f558 <_ZN4core6option13expect_failed17hba3233454d56a254E>:
_ZN4core6option13expect_failed17hba3233454d56a254E():
  20f558:	02fec063 	addi.d	$r3,$r3,-80(0xfb0)
  20f55c:	0380a004 	ori	$r4,$r0,0x28
  20f560:	29c02064 	st.d	$r4,$r3,8(0x8)
  20f564:	1a0000e4 	pcalau12i	$r4,7(0x7)
  20f568:	02c7d484 	addi.d	$r4,$r4,501(0x1f5)
  20f56c:	29c00064 	st.d	$r4,$r3,0
  20f570:	29c0c060 	st.d	$r0,$r3,48(0x30)
  20f574:	1a000124 	pcalau12i	$r4,9(0x9)
  20f578:	02dca084 	addi.d	$r4,$r4,1832(0x728)
  20f57c:	29c04064 	st.d	$r4,$r3,16(0x10)
  20f580:	03800404 	ori	$r4,$r0,0x1
  20f584:	29c06064 	st.d	$r4,$r3,24(0x18)
  20f588:	29c0a064 	st.d	$r4,$r3,40(0x28)
  20f58c:	02c10064 	addi.d	$r4,$r3,64(0x40)
  20f590:	29c08064 	st.d	$r4,$r3,32(0x20)
  20f594:	1bffffa4 	pcalau12i	$r4,-3(0xffffd)
  20f598:	02c19084 	addi.d	$r4,$r4,100(0x64)
  20f59c:	29c12064 	st.d	$r4,$r3,72(0x48)
  20f5a0:	02c00064 	addi.d	$r4,$r3,0
  20f5a4:	29c10064 	st.d	$r4,$r3,64(0x40)
  20f5a8:	02c04064 	addi.d	$r4,$r3,16(0x10)
  20f5ac:	1a000125 	pcalau12i	$r5,9(0x9)
  20f5b0:	02de00a5 	addi.d	$r5,$r5,1920(0x780)
  20f5b4:	540e2800 	bl	3624(0xe28) # 2103dc <_ZN4core9panicking9panic_fmt17ha745c27c594dd0a5E>
  20f5b8:	38600400 	amswap.w	$r0,$r1,$r0

000000000020f5bc <_ZN68_$LT$core..fmt..builders..PadAdapter$u20$as$u20$core..fmt..Write$GT$9write_str17hbdfb0659a0de6355E>:
_ZN68_$LT$core..fmt..builders..PadAdapter$u20$as$u20$core..fmt..Write$GT$9write_str17hbdfb0659a0de6355E():
  20f5bc:	02fe0063 	addi.d	$r3,$r3,-128(0xf80)
  20f5c0:	29c1e061 	st.d	$r1,$r3,120(0x78)
  20f5c4:	29c1c076 	st.d	$r22,$r3,112(0x70)
  20f5c8:	29c1a077 	st.d	$r23,$r3,104(0x68)
  20f5cc:	29c18078 	st.d	$r24,$r3,96(0x60)
  20f5d0:	29c16079 	st.d	$r25,$r3,88(0x58)
  20f5d4:	29c1407a 	st.d	$r26,$r3,80(0x50)
  20f5d8:	29c1207b 	st.d	$r27,$r3,72(0x48)
  20f5dc:	29c1007c 	st.d	$r28,$r3,64(0x40)
  20f5e0:	29c0e07d 	st.d	$r29,$r3,56(0x38)
  20f5e4:	29c0c07e 	st.d	$r30,$r3,48(0x30)
  20f5e8:	29c0a07f 	st.d	$r31,$r3,40(0x28)
  20f5ec:	001500dc 	move	$r28,$r6
  20f5f0:	001500b8 	move	$r24,$r5
  20f5f4:	28c02085 	ld.d	$r5,$r4,8(0x8)
  20f5f8:	29c08065 	st.d	$r5,$r3,32(0x20)
  20f5fc:	28c00085 	ld.d	$r5,$r4,0
  20f600:	29c06065 	st.d	$r5,$r3,24(0x18)
  20f604:	28c0409d 	ld.d	$r29,$r4,16(0x10)
  20f608:	0380041a 	ori	$r26,$r0,0x1
  20f60c:	1a0000a4 	pcalau12i	$r4,5(0x5)
  20f610:	02d5a084 	addi.d	$r4,$r4,1384(0x568)
  20f614:	29c02064 	st.d	$r4,$r3,8(0x8)
  20f618:	03801004 	ori	$r4,$r0,0x4
  20f61c:	29c00064 	st.d	$r4,$r3,0
  20f620:	03804004 	ori	$r4,$r0,0x10
  20f624:	29c04064 	st.d	$r4,$r3,16(0x10)
  20f628:	0380281f 	ori	$r31,$r0,0xa
  20f62c:	0015001e 	move	$r30,$r0
  20f630:	00150017 	move	$r23,$r0
  20f634:	00150016 	move	$r22,$r0
  20f638:	50003400 	b	52(0x34) # 20f66c <_ZN68_$LT$core..fmt..builders..PadAdapter$u20$as$u20$core..fmt..Write$GT$9write_str17hbdfb0659a0de6355E+0xb0>
  20f63c:	001094c4 	add.d	$r4,$r6,$r5
  20f640:	2a3ffc84 	ld.bu	$r4,$r4,-1(0xfff)
  20f644:	02ffd884 	addi.d	$r4,$r4,-10(0xff6)
  20f648:	02400484 	sltui	$r4,$r4,1(0x1)
  20f64c:	0015033a 	move	$r26,$r25
  20f650:	290003a4 	st.b	$r4,$r29,0
  20f654:	28c08064 	ld.d	$r4,$r3,32(0x20)
  20f658:	28c06087 	ld.d	$r7,$r4,24(0x18)
  20f65c:	28c06064 	ld.d	$r4,$r3,24(0x18)
  20f660:	4c0000e1 	jirl	$r1,$r7,0
  20f664:	0015037e 	move	$r30,$r27
  20f668:	44018c80 	bnez	$r4,396(0x18c) # 20f7f4 <_ZN68_$LT$core..fmt..builders..PadAdapter$u20$as$u20$core..fmt..Write$GT$9write_str17hbdfb0659a0de6355E+0x238>
  20f66c:	0343fec4 	andi	$r4,$r22,0xff
  20f670:	44017880 	bnez	$r4,376(0x178) # 20f7e8 <_ZN68_$LT$core..fmt..builders..PadAdapter$u20$as$u20$core..fmt..Write$GT$9write_str17hbdfb0659a0de6355E+0x22c>
  20f674:	6c000f97 	bgeu	$r28,$r23,12(0xc) # 20f680 <_ZN68_$LT$core..fmt..builders..PadAdapter$u20$as$u20$core..fmt..Write$GT$9write_str17hbdfb0659a0de6355E+0xc4>
  20f678:	50012400 	b	292(0x124) # 20f79c <_ZN68_$LT$core..fmt..builders..PadAdapter$u20$as$u20$core..fmt..Write$GT$9write_str17hbdfb0659a0de6355E+0x1e0>
  20f67c:	68012397 	bltu	$r28,$r23,288(0x120) # 20f79c <_ZN68_$LT$core..fmt..builders..PadAdapter$u20$as$u20$core..fmt..Write$GT$9write_str17hbdfb0659a0de6355E+0x1e0>
  20f680:	0010df04 	add.d	$r4,$r24,$r23
  20f684:	0011df85 	sub.d	$r5,$r28,$r23
  20f688:	28c04066 	ld.d	$r6,$r3,16(0x10)
  20f68c:	6c0020a6 	bgeu	$r5,$r6,32(0x20) # 20f6ac <_ZN68_$LT$core..fmt..builders..PadAdapter$u20$as$u20$core..fmt..Write$GT$9write_str17hbdfb0659a0de6355E+0xf0>
  20f690:	58010afc 	beq	$r23,$r28,264(0x108) # 20f798 <_ZN68_$LT$core..fmt..builders..PadAdapter$u20$as$u20$core..fmt..Write$GT$9write_str17hbdfb0659a0de6355E+0x1dc>
  20f694:	00150007 	move	$r7,$r0
  20f698:	38201c86 	ldx.bu	$r6,$r4,$r7
  20f69c:	5800d4df 	beq	$r6,$r31,212(0xd4) # 20f770 <_ZN68_$LT$core..fmt..builders..PadAdapter$u20$as$u20$core..fmt..Write$GT$9write_str17hbdfb0659a0de6355E+0x1b4>
  20f6a0:	02c004e7 	addi.d	$r7,$r7,1(0x1)
  20f6a4:	5ffff4a7 	bne	$r5,$r7,-12(0x3fff4) # 20f698 <_ZN68_$LT$core..fmt..builders..PadAdapter$u20$as$u20$core..fmt..Write$GT$9write_str17hbdfb0659a0de6355E+0xdc>
  20f6a8:	5000f000 	b	240(0xf0) # 20f798 <_ZN68_$LT$core..fmt..builders..PadAdapter$u20$as$u20$core..fmt..Write$GT$9write_str17hbdfb0659a0de6355E+0x1dc>
  20f6ac:	02c01c86 	addi.d	$r6,$r4,7(0x7)
  20f6b0:	02bfe007 	addi.w	$r7,$r0,-8(0xff8)
  20f6b4:	00149cc6 	and	$r6,$r6,$r7
  20f6b8:	58002cc4 	beq	$r6,$r4,44(0x2c) # 20f6e4 <_ZN68_$LT$core..fmt..builders..PadAdapter$u20$as$u20$core..fmt..Write$GT$9write_str17hbdfb0659a0de6355E+0x128>
  20f6bc:	001190c6 	sub.d	$r6,$r6,$r4
  20f6c0:	400024c0 	beqz	$r6,36(0x24) # 20f6e4 <_ZN68_$LT$core..fmt..builders..PadAdapter$u20$as$u20$core..fmt..Write$GT$9write_str17hbdfb0659a0de6355E+0x128>
  20f6c4:	00150007 	move	$r7,$r0
  20f6c8:	38201c88 	ldx.bu	$r8,$r4,$r7
  20f6cc:	5800a51f 	beq	$r8,$r31,164(0xa4) # 20f770 <_ZN68_$LT$core..fmt..builders..PadAdapter$u20$as$u20$core..fmt..Write$GT$9write_str17hbdfb0659a0de6355E+0x1b4>
  20f6d0:	02c004e7 	addi.d	$r7,$r7,1(0x1)
  20f6d4:	5ffff4c7 	bne	$r6,$r7,-12(0x3fff4) # 20f6c8 <_ZN68_$LT$core..fmt..builders..PadAdapter$u20$as$u20$core..fmt..Write$GT$9write_str17hbdfb0659a0de6355E+0x10c>
  20f6d8:	02ffc0a7 	addi.d	$r7,$r5,-16(0xff0)
  20f6dc:	6c0010e6 	bgeu	$r7,$r6,16(0x10) # 20f6ec <_ZN68_$LT$core..fmt..builders..PadAdapter$u20$as$u20$core..fmt..Write$GT$9write_str17hbdfb0659a0de6355E+0x130>
  20f6e0:	50007400 	b	116(0x74) # 20f754 <_ZN68_$LT$core..fmt..builders..PadAdapter$u20$as$u20$core..fmt..Write$GT$9write_str17hbdfb0659a0de6355E+0x198>
  20f6e4:	02ffc0a7 	addi.d	$r7,$r5,-16(0xff0)
  20f6e8:	00150006 	move	$r6,$r0
  20f6ec:	15fdfde8 	lu12i.w	$r8,-4113(0xfefef)
  20f6f0:	03bbfd08 	ori	$r8,$r8,0xeff
  20f6f4:	17dfdfc8 	lu32i.d	$r8,-65794(0xefefe)
  20f6f8:	033fbd08 	lu52i.d	$r8,$r8,-17(0xfef)
  20f6fc:	14141409 	lu12i.w	$r9,41120(0xa0a0)
  20f700:	03a82929 	ori	$r9,$r9,0xa0a
  20f704:	17414149 	lu32i.d	$r9,-390646(0xa0a0a)
  20f708:	03028129 	lu52i.d	$r9,$r9,160(0xa0)
  20f70c:	380c188a 	ldx.d	$r10,$r4,$r6
  20f710:	0015a54b 	xor	$r11,$r10,$r9
  20f714:	0010a16b 	add.d	$r11,$r11,$r8
  20f718:	0016a96a 	andn	$r10,$r11,$r10
  20f71c:	0010988b 	add.d	$r11,$r4,$r6
  20f720:	28c0216b 	ld.d	$r11,$r11,8(0x8)
  20f724:	0015a569 	xor	$r9,$r11,$r9
  20f728:	0010a128 	add.d	$r8,$r9,$r8
  20f72c:	0016ad08 	andn	$r8,$r8,$r11
  20f730:	00152908 	or	$r8,$r8,$r10
  20f734:	15010109 	lu12i.w	$r9,-522232(0x80808)
  20f738:	03820129 	ori	$r9,$r9,0x80
  20f73c:	16101009 	lu32i.d	$r9,32896(0x8080)
  20f740:	03202129 	lu52i.d	$r9,$r9,-2040(0x808)
  20f744:	0014a508 	and	$r8,$r8,$r9
  20f748:	44000d00 	bnez	$r8,12(0xc) # 20f754 <_ZN68_$LT$core..fmt..builders..PadAdapter$u20$as$u20$core..fmt..Write$GT$9write_str17hbdfb0659a0de6355E+0x198>
  20f74c:	02c040c6 	addi.d	$r6,$r6,16(0x10)
  20f750:	6fff9ce6 	bgeu	$r7,$r6,-100(0x3ff9c) # 20f6ec <_ZN68_$LT$core..fmt..builders..PadAdapter$u20$as$u20$core..fmt..Write$GT$9write_str17hbdfb0659a0de6355E+0x130>
  20f754:	580044a6 	beq	$r5,$r6,68(0x44) # 20f798 <_ZN68_$LT$core..fmt..builders..PadAdapter$u20$as$u20$core..fmt..Write$GT$9write_str17hbdfb0659a0de6355E+0x1dc>
  20f758:	38201887 	ldx.bu	$r7,$r4,$r6
  20f75c:	580010ff 	beq	$r7,$r31,16(0x10) # 20f76c <_ZN68_$LT$core..fmt..builders..PadAdapter$u20$as$u20$core..fmt..Write$GT$9write_str17hbdfb0659a0de6355E+0x1b0>
  20f760:	02c004c6 	addi.d	$r6,$r6,1(0x1)
  20f764:	5ffff4a6 	bne	$r5,$r6,-12(0x3fff4) # 20f758 <_ZN68_$LT$core..fmt..builders..PadAdapter$u20$as$u20$core..fmt..Write$GT$9write_str17hbdfb0659a0de6355E+0x19c>
  20f768:	50003000 	b	48(0x30) # 20f798 <_ZN68_$LT$core..fmt..builders..PadAdapter$u20$as$u20$core..fmt..Write$GT$9write_str17hbdfb0659a0de6355E+0x1dc>
  20f76c:	001500c7 	move	$r7,$r6
  20f770:	00109ee4 	add.d	$r4,$r23,$r7
  20f774:	02c00497 	addi.d	$r23,$r4,1(0x1)
  20f778:	6fff049c 	bgeu	$r4,$r28,-252(0x3ff04) # 20f67c <_ZN68_$LT$core..fmt..builders..PadAdapter$u20$as$u20$core..fmt..Write$GT$9write_str17hbdfb0659a0de6355E+0xc0>
  20f77c:	38201304 	ldx.bu	$r4,$r24,$r4
  20f780:	5ffefc9f 	bne	$r4,$r31,-260(0x3fefc) # 20f67c <_ZN68_$LT$core..fmt..builders..PadAdapter$u20$as$u20$core..fmt..Write$GT$9write_str17hbdfb0659a0de6355E+0xc0>
  20f784:	00150359 	move	$r25,$r26
  20f788:	001502fb 	move	$r27,$r23
  20f78c:	00150016 	move	$r22,$r0
  20f790:	001502fa 	move	$r26,$r23
  20f794:	50001c00 	b	28(0x1c) # 20f7b0 <_ZN68_$LT$core..fmt..builders..PadAdapter$u20$as$u20$core..fmt..Write$GT$9write_str17hbdfb0659a0de6355E+0x1f4>
  20f798:	00150397 	move	$r23,$r28
  20f79c:	001503db 	move	$r27,$r30
  20f7a0:	00150359 	move	$r25,$r26
  20f7a4:	00150356 	move	$r22,$r26
  20f7a8:	0015039a 	move	$r26,$r28
  20f7ac:	58003fdc 	beq	$r30,$r28,60(0x3c) # 20f7e8 <_ZN68_$LT$core..fmt..builders..PadAdapter$u20$as$u20$core..fmt..Write$GT$9write_str17hbdfb0659a0de6355E+0x22c>
  20f7b0:	2a0003a4 	ld.bu	$r4,$r29,0
  20f7b4:	40002080 	beqz	$r4,32(0x20) # 20f7d4 <_ZN68_$LT$core..fmt..builders..PadAdapter$u20$as$u20$core..fmt..Write$GT$9write_str17hbdfb0659a0de6355E+0x218>
  20f7b8:	28c08064 	ld.d	$r4,$r3,32(0x20)
  20f7bc:	28c06087 	ld.d	$r7,$r4,24(0x18)
  20f7c0:	28c06064 	ld.d	$r4,$r3,24(0x18)
  20f7c4:	28c02065 	ld.d	$r5,$r3,8(0x8)
  20f7c8:	28c00066 	ld.d	$r6,$r3,0
  20f7cc:	4c0000e1 	jirl	$r1,$r7,0
  20f7d0:	44002080 	bnez	$r4,32(0x20) # 20f7f0 <_ZN68_$LT$core..fmt..builders..PadAdapter$u20$as$u20$core..fmt..Write$GT$9write_str17hbdfb0659a0de6355E+0x234>
  20f7d4:	0010fb05 	add.d	$r5,$r24,$r30
  20f7d8:	0011fb46 	sub.d	$r6,$r26,$r30
  20f7dc:	5ffe635e 	bne	$r26,$r30,-416(0x3fe60) # 20f63c <_ZN68_$LT$core..fmt..builders..PadAdapter$u20$as$u20$core..fmt..Write$GT$9write_str17hbdfb0659a0de6355E+0x80>
  20f7e0:	00150004 	move	$r4,$r0
  20f7e4:	53fe6bff 	b	-408(0xffffe68) # 20f64c <_ZN68_$LT$core..fmt..builders..PadAdapter$u20$as$u20$core..fmt..Write$GT$9write_str17hbdfb0659a0de6355E+0x90>
  20f7e8:	0015001a 	move	$r26,$r0
  20f7ec:	50000800 	b	8(0x8) # 20f7f4 <_ZN68_$LT$core..fmt..builders..PadAdapter$u20$as$u20$core..fmt..Write$GT$9write_str17hbdfb0659a0de6355E+0x238>
  20f7f0:	0015033a 	move	$r26,$r25
  20f7f4:	00150344 	move	$r4,$r26
  20f7f8:	28c0a07f 	ld.d	$r31,$r3,40(0x28)
  20f7fc:	28c0c07e 	ld.d	$r30,$r3,48(0x30)
  20f800:	28c0e07d 	ld.d	$r29,$r3,56(0x38)
  20f804:	28c1007c 	ld.d	$r28,$r3,64(0x40)
  20f808:	28c1207b 	ld.d	$r27,$r3,72(0x48)
  20f80c:	28c1407a 	ld.d	$r26,$r3,80(0x50)
  20f810:	28c16079 	ld.d	$r25,$r3,88(0x58)
  20f814:	28c18078 	ld.d	$r24,$r3,96(0x60)
  20f818:	28c1a077 	ld.d	$r23,$r3,104(0x68)
  20f81c:	28c1c076 	ld.d	$r22,$r3,112(0x70)
  20f820:	28c1e061 	ld.d	$r1,$r3,120(0x78)
  20f824:	02c20063 	addi.d	$r3,$r3,128(0x80)
  20f828:	4c000020 	jirl	$r0,$r1,0

000000000020f82c <_ZN4core3fmt8builders11DebugStruct5field17h320ddce9d02d7eafE>:
_ZN4core3fmt8builders11DebugStruct5field17h320ddce9d02d7eafE():
  20f82c:	02fd4063 	addi.d	$r3,$r3,-176(0xf50)
  20f830:	29c2a061 	st.d	$r1,$r3,168(0xa8)
  20f834:	29c28076 	st.d	$r22,$r3,160(0xa0)
  20f838:	29c26077 	st.d	$r23,$r3,152(0x98)
  20f83c:	29c24078 	st.d	$r24,$r3,144(0x90)
  20f840:	29c22079 	st.d	$r25,$r3,136(0x88)
  20f844:	29c2007a 	st.d	$r26,$r3,128(0x80)
  20f848:	29c1e07b 	st.d	$r27,$r3,120(0x78)
  20f84c:	29c1c07c 	st.d	$r28,$r3,112(0x70)
  20f850:	29c1a07d 	st.d	$r29,$r3,104(0x68)
  20f854:	00150096 	move	$r22,$r4
  20f858:	0380041d 	ori	$r29,$r0,0x1
  20f85c:	2a002084 	ld.bu	$r4,$r4,8(0x8)
  20f860:	001503bc 	move	$r28,$r29
  20f864:	40003c80 	beqz	$r4,60(0x3c) # 20f8a0 <_ZN4core3fmt8builders11DebugStruct5field17h320ddce9d02d7eafE+0x74>
  20f868:	290026dd 	st.b	$r29,$r22,9(0x9)
  20f86c:	290022dc 	st.b	$r28,$r22,8(0x8)
  20f870:	001502c4 	move	$r4,$r22
  20f874:	28c1a07d 	ld.d	$r29,$r3,104(0x68)
  20f878:	28c1c07c 	ld.d	$r28,$r3,112(0x70)
  20f87c:	28c1e07b 	ld.d	$r27,$r3,120(0x78)
  20f880:	28c2007a 	ld.d	$r26,$r3,128(0x80)
  20f884:	28c22079 	ld.d	$r25,$r3,136(0x88)
  20f888:	28c24078 	ld.d	$r24,$r3,144(0x90)
  20f88c:	28c26077 	ld.d	$r23,$r3,152(0x98)
  20f890:	28c28076 	ld.d	$r22,$r3,160(0xa0)
  20f894:	28c2a061 	ld.d	$r1,$r3,168(0xa8)
  20f898:	02c2c063 	addi.d	$r3,$r3,176(0xb0)
  20f89c:	4c000020 	jirl	$r0,$r1,0
  20f8a0:	00150117 	move	$r23,$r8
  20f8a4:	001500f8 	move	$r24,$r7
  20f8a8:	001500da 	move	$r26,$r6
  20f8ac:	001500bb 	move	$r27,$r5
  20f8b0:	280026c5 	ld.b	$r5,$r22,9(0x9)
  20f8b4:	28c002d9 	ld.d	$r25,$r22,0
  20f8b8:	2a80d324 	ld.wu	$r4,$r25,52(0x34)
  20f8bc:	03401086 	andi	$r6,$r4,0x4
  20f8c0:	4400a8c0 	bnez	$r6,168(0xa8) # 20f968 <_ZN4core3fmt8builders11DebugStruct5field17h320ddce9d02d7eafE+0x13c>
  20f8c4:	0343fca4 	andi	$r4,$r5,0xff
  20f8c8:	02400484 	sltui	$r4,$r4,1(0x1)
  20f8cc:	03800805 	ori	$r5,$r0,0x2
  20f8d0:	001390a6 	masknez	$r6,$r5,$r4
  20f8d4:	03800c05 	ori	$r5,$r0,0x3
  20f8d8:	001310a7 	maskeqz	$r7,$r5,$r4
  20f8dc:	1a0000c5 	pcalau12i	$r5,6(0x6)
  20f8e0:	02c96ca5 	addi.d	$r5,$r5,603(0x25b)
  20f8e4:	001390a5 	masknez	$r5,$r5,$r4
  20f8e8:	1a0000c8 	pcalau12i	$r8,6(0x6)
  20f8ec:	02c96108 	addi.d	$r8,$r8,600(0x258)
  20f8f0:	00131104 	maskeqz	$r4,$r8,$r4
  20f8f4:	00151485 	or	$r5,$r4,$r5
  20f8f8:	001518e6 	or	$r6,$r7,$r6
  20f8fc:	28c08324 	ld.d	$r4,$r25,32(0x20)
  20f900:	28c0a327 	ld.d	$r7,$r25,40(0x28)
  20f904:	28c060e7 	ld.d	$r7,$r7,24(0x18)
  20f908:	4c0000e1 	jirl	$r1,$r7,0
  20f90c:	001503bc 	move	$r28,$r29
  20f910:	47ff589f 	bnez	$r4,-168(0x7fff58) # 20f868 <_ZN4core3fmt8builders11DebugStruct5field17h320ddce9d02d7eafE+0x3c>
  20f914:	28c08324 	ld.d	$r4,$r25,32(0x20)
  20f918:	28c0a325 	ld.d	$r5,$r25,40(0x28)
  20f91c:	28c060a7 	ld.d	$r7,$r5,24(0x18)
  20f920:	00150365 	move	$r5,$r27
  20f924:	00150346 	move	$r6,$r26
  20f928:	4c0000e1 	jirl	$r1,$r7,0
  20f92c:	001503bc 	move	$r28,$r29
  20f930:	47ff389f 	bnez	$r4,-200(0x7fff38) # 20f868 <_ZN4core3fmt8builders11DebugStruct5field17h320ddce9d02d7eafE+0x3c>
  20f934:	28c08324 	ld.d	$r4,$r25,32(0x20)
  20f938:	28c0a325 	ld.d	$r5,$r25,40(0x28)
  20f93c:	28c060a7 	ld.d	$r7,$r5,24(0x18)
  20f940:	1a0000c5 	pcalau12i	$r5,6(0x6)
  20f944:	02c9a0a5 	addi.d	$r5,$r5,616(0x268)
  20f948:	03800806 	ori	$r6,$r0,0x2
  20f94c:	4c0000e1 	jirl	$r1,$r7,0
  20f950:	001503bc 	move	$r28,$r29
  20f954:	47ff149f 	bnez	$r4,-236(0x7fff14) # 20f868 <_ZN4core3fmt8builders11DebugStruct5field17h320ddce9d02d7eafE+0x3c>
  20f958:	00150304 	move	$r4,$r24
  20f95c:	00150325 	move	$r5,$r25
  20f960:	4c0002e1 	jirl	$r1,$r23,0
  20f964:	5000f000 	b	240(0xf0) # 20fa54 <_ZN4core3fmt8builders11DebugStruct5field17h320ddce9d02d7eafE+0x228>
  20f968:	0343fca5 	andi	$r5,$r5,0xff
  20f96c:	44002ca0 	bnez	$r5,44(0x2c) # 20f998 <_ZN4core3fmt8builders11DebugStruct5field17h320ddce9d02d7eafE+0x16c>
  20f970:	28c08324 	ld.d	$r4,$r25,32(0x20)
  20f974:	28c0a325 	ld.d	$r5,$r25,40(0x28)
  20f978:	28c060a7 	ld.d	$r7,$r5,24(0x18)
  20f97c:	1a0000c5 	pcalau12i	$r5,6(0x6)
  20f980:	02c974a5 	addi.d	$r5,$r5,605(0x25d)
  20f984:	03800c06 	ori	$r6,$r0,0x3
  20f988:	4c0000e1 	jirl	$r1,$r7,0
  20f98c:	001503bc 	move	$r28,$r29
  20f990:	47fed89f 	bnez	$r4,-296(0x7ffed8) # 20f868 <_ZN4core3fmt8builders11DebugStruct5field17h320ddce9d02d7eafE+0x3c>
  20f994:	2880d324 	ld.w	$r4,$r25,52(0x34)
  20f998:	0380041c 	ori	$r28,$r0,0x1
  20f99c:	29009c7c 	st.b	$r28,$r3,39(0x27)
  20f9a0:	28c08325 	ld.d	$r5,$r25,32(0x20)
  20f9a4:	28c0a326 	ld.d	$r6,$r25,40(0x28)
  20f9a8:	02c09c67 	addi.d	$r7,$r3,39(0x27)
  20f9ac:	29c06067 	st.d	$r7,$r3,24(0x18)
  20f9b0:	29c04066 	st.d	$r6,$r3,16(0x10)
  20f9b4:	29c02065 	st.d	$r5,$r3,8(0x8)
  20f9b8:	28c00325 	ld.d	$r5,$r25,0
  20f9bc:	28c02326 	ld.d	$r6,$r25,8(0x8)
  20f9c0:	28c04327 	ld.d	$r7,$r25,16(0x10)
  20f9c4:	28c06328 	ld.d	$r8,$r25,24(0x18)
  20f9c8:	2880c329 	ld.w	$r9,$r25,48(0x30)
  20f9cc:	2800e32a 	ld.b	$r10,$r25,56(0x38)
  20f9d0:	2901806a 	st.b	$r10,$r3,96(0x60)
  20f9d4:	29816069 	st.w	$r9,$r3,88(0x58)
  20f9d8:	29817064 	st.w	$r4,$r3,92(0x5c)
  20f9dc:	1a000124 	pcalau12i	$r4,9(0x9)
  20f9e0:	02cb4084 	addi.d	$r4,$r4,720(0x2d0)
  20f9e4:	29c14064 	st.d	$r4,$r3,80(0x50)
  20f9e8:	29c10068 	st.d	$r8,$r3,64(0x40)
  20f9ec:	29c0e067 	st.d	$r7,$r3,56(0x38)
  20f9f0:	29c0c066 	st.d	$r6,$r3,48(0x30)
  20f9f4:	29c0a065 	st.d	$r5,$r3,40(0x28)
  20f9f8:	02c02064 	addi.d	$r4,$r3,8(0x8)
  20f9fc:	29c12064 	st.d	$r4,$r3,72(0x48)
  20fa00:	00150365 	move	$r5,$r27
  20fa04:	00150346 	move	$r6,$r26
  20fa08:	57fbb7ff 	bl	-1100(0xffffbb4) # 20f5bc <_ZN68_$LT$core..fmt..builders..PadAdapter$u20$as$u20$core..fmt..Write$GT$9write_str17hbdfb0659a0de6355E>
  20fa0c:	47fe5c9f 	bnez	$r4,-420(0x7ffe5c) # 20f868 <_ZN4core3fmt8builders11DebugStruct5field17h320ddce9d02d7eafE+0x3c>
  20fa10:	02c02064 	addi.d	$r4,$r3,8(0x8)
  20fa14:	1a0000c5 	pcalau12i	$r5,6(0x6)
  20fa18:	02c9a0a5 	addi.d	$r5,$r5,616(0x268)
  20fa1c:	03800806 	ori	$r6,$r0,0x2
  20fa20:	57fb9fff 	bl	-1124(0xffffb9c) # 20f5bc <_ZN68_$LT$core..fmt..builders..PadAdapter$u20$as$u20$core..fmt..Write$GT$9write_str17hbdfb0659a0de6355E>
  20fa24:	47fe449f 	bnez	$r4,-444(0x7ffe44) # 20f868 <_ZN4core3fmt8builders11DebugStruct5field17h320ddce9d02d7eafE+0x3c>
  20fa28:	02c0a065 	addi.d	$r5,$r3,40(0x28)
  20fa2c:	00150304 	move	$r4,$r24
  20fa30:	4c0002e1 	jirl	$r1,$r23,0
  20fa34:	47fe349f 	bnez	$r4,-460(0x7ffe34) # 20f868 <_ZN4core3fmt8builders11DebugStruct5field17h320ddce9d02d7eafE+0x3c>
  20fa38:	28c14064 	ld.d	$r4,$r3,80(0x50)
  20fa3c:	28c06087 	ld.d	$r7,$r4,24(0x18)
  20fa40:	28c12064 	ld.d	$r4,$r3,72(0x48)
  20fa44:	1a0000c5 	pcalau12i	$r5,6(0x6)
  20fa48:	02c980a5 	addi.d	$r5,$r5,608(0x260)
  20fa4c:	03800806 	ori	$r6,$r0,0x2
  20fa50:	4c0000e1 	jirl	$r1,$r7,0
  20fa54:	0015009c 	move	$r28,$r4
  20fa58:	53fe13ff 	b	-496(0xffffe10) # 20f868 <_ZN4core3fmt8builders11DebugStruct5field17h320ddce9d02d7eafE+0x3c>

000000000020fa5c <_ZN4core3fmt5Write10write_char17h884971ba5d76f800E>:
_ZN4core3fmt5Write10write_char17h884971ba5d76f800E():
  20fa5c:	02ffc063 	addi.d	$r3,$r3,-16(0xff0)
  20fa60:	29c02061 	st.d	$r1,$r3,8(0x8)
  20fa64:	29801060 	st.w	$r0,$r3,4(0x4)
  20fa68:	00df00a6 	bstrpick.d	$r6,$r5,0x1f,0x0
  20fa6c:	03820007 	ori	$r7,$r0,0x80
  20fa70:	6c0010c7 	bgeu	$r6,$r7,16(0x10) # 20fa80 <_ZN4core3fmt5Write10write_char17h884971ba5d76f800E+0x24>
  20fa74:	29001065 	st.b	$r5,$r3,4(0x4)
  20fa78:	03800406 	ori	$r6,$r0,0x1
  20fa7c:	50009800 	b	152(0x98) # 20fb14 <_ZN4core3fmt5Write10write_char17h884971ba5d76f800E+0xb8>
  20fa80:	03a00007 	ori	$r7,$r0,0x800
  20fa84:	6c0020c7 	bgeu	$r6,$r7,32(0x20) # 20faa4 <_ZN4core3fmt5Write10write_char17h884971ba5d76f800E+0x48>
  20fa88:	03800806 	ori	$r6,$r0,0x2
  20fa8c:	004518a7 	srli.d	$r7,$r5,0x6
  20fa90:	00bf18c5 	bstrins.d	$r5,$r6,0x3f,0x6
  20fa94:	29001465 	st.b	$r5,$r3,5(0x5)
  20fa98:	038300e5 	ori	$r5,$r7,0xc0
  20fa9c:	29001065 	st.b	$r5,$r3,4(0x4)
  20faa0:	50007400 	b	116(0x74) # 20fb14 <_ZN4core3fmt5Write10write_char17h884971ba5d76f800E+0xb8>
  20faa4:	14000207 	lu12i.w	$r7,16(0x10)
  20faa8:	6c0034c7 	bgeu	$r6,$r7,52(0x34) # 20fadc <_ZN4core3fmt5Write10write_char17h884971ba5d76f800E+0x80>
  20faac:	03800806 	ori	$r6,$r0,0x2
  20fab0:	001500a7 	move	$r7,$r5
  20fab4:	00bf18c7 	bstrins.d	$r7,$r6,0x3f,0x6
  20fab8:	29001867 	st.b	$r7,$r3,6(0x6)
  20fabc:	004518a7 	srli.d	$r7,$r5,0x6
  20fac0:	00bf18c7 	bstrins.d	$r7,$r6,0x3f,0x6
  20fac4:	29001467 	st.b	$r7,$r3,5(0x5)
  20fac8:	004530a5 	srli.d	$r5,$r5,0xc
  20facc:	038380a5 	ori	$r5,$r5,0xe0
  20fad0:	29001065 	st.b	$r5,$r3,4(0x4)
  20fad4:	03800c06 	ori	$r6,$r0,0x3
  20fad8:	50003c00 	b	60(0x3c) # 20fb14 <_ZN4core3fmt5Write10write_char17h884971ba5d76f800E+0xb8>
  20fadc:	004530a6 	srli.d	$r6,$r5,0xc
  20fae0:	03800807 	ori	$r7,$r0,0x2
  20fae4:	00bf18e6 	bstrins.d	$r6,$r7,0x3f,0x6
  20fae8:	004518a8 	srli.d	$r8,$r5,0x6
  20faec:	00bf18e8 	bstrins.d	$r8,$r7,0x3f,0x6
  20faf0:	004548a9 	srli.d	$r9,$r5,0x12
  20faf4:	00bf18e5 	bstrins.d	$r5,$r7,0x3f,0x6
  20faf8:	29001c65 	st.b	$r5,$r3,7(0x7)
  20fafc:	29001868 	st.b	$r8,$r3,6(0x6)
  20fb00:	29001466 	st.b	$r6,$r3,5(0x5)
  20fb04:	03807805 	ori	$r5,$r0,0x1e
  20fb08:	00bf0ca9 	bstrins.d	$r9,$r5,0x3f,0x3
  20fb0c:	29001069 	st.b	$r9,$r3,4(0x4)
  20fb10:	03801006 	ori	$r6,$r0,0x4
  20fb14:	02c01065 	addi.d	$r5,$r3,4(0x4)
  20fb18:	57faa7ff 	bl	-1372(0xffffaa4) # 20f5bc <_ZN68_$LT$core..fmt..builders..PadAdapter$u20$as$u20$core..fmt..Write$GT$9write_str17hbdfb0659a0de6355E>
  20fb1c:	28c02061 	ld.d	$r1,$r3,8(0x8)
  20fb20:	02c04063 	addi.d	$r3,$r3,16(0x10)
  20fb24:	4c000020 	jirl	$r0,$r1,0

000000000020fb28 <_ZN4core3fmt5Write9write_fmt17hbabff0cbc62dd62eE>:
_ZN4core3fmt5Write9write_fmt17hbabff0cbc62dd62eE():
  20fb28:	02ff0063 	addi.d	$r3,$r3,-64(0xfc0)
  20fb2c:	29c0e061 	st.d	$r1,$r3,56(0x38)
  20fb30:	29c00064 	st.d	$r4,$r3,0
  20fb34:	28c0a0a4 	ld.d	$r4,$r5,40(0x28)
  20fb38:	29c0c064 	st.d	$r4,$r3,48(0x30)
  20fb3c:	28c080a4 	ld.d	$r4,$r5,32(0x20)
  20fb40:	29c0a064 	st.d	$r4,$r3,40(0x28)
  20fb44:	28c060a4 	ld.d	$r4,$r5,24(0x18)
  20fb48:	29c08064 	st.d	$r4,$r3,32(0x20)
  20fb4c:	28c040a4 	ld.d	$r4,$r5,16(0x10)
  20fb50:	29c06064 	st.d	$r4,$r3,24(0x18)
  20fb54:	28c020a4 	ld.d	$r4,$r5,8(0x8)
  20fb58:	29c04064 	st.d	$r4,$r3,16(0x10)
  20fb5c:	28c000a4 	ld.d	$r4,$r5,0
  20fb60:	29c02064 	st.d	$r4,$r3,8(0x8)
  20fb64:	02c00064 	addi.d	$r4,$r3,0
  20fb68:	1a000125 	pcalau12i	$r5,9(0x9)
  20fb6c:	02ffc0a5 	addi.d	$r5,$r5,-16(0xff0)
  20fb70:	02c02066 	addi.d	$r6,$r3,8(0x8)
  20fb74:	54107000 	bl	4208(0x1070) # 210be4 <_ZN4core3fmt5write17hf855db0f875ea3deE>
  20fb78:	28c0e061 	ld.d	$r1,$r3,56(0x38)
  20fb7c:	02c10063 	addi.d	$r3,$r3,64(0x40)
  20fb80:	4c000020 	jirl	$r0,$r1,0

000000000020fb84 <_ZN50_$LT$$RF$mut$u20$W$u20$as$u20$core..fmt..Write$GT$9write_str17h8d009336f728958fE>:
_ZN50_$LT$$RF$mut$u20$W$u20$as$u20$core..fmt..Write$GT$9write_str17h8d009336f728958fE():
  20fb84:	28c00084 	ld.d	$r4,$r4,0
  20fb88:	53fa37ff 	b	-1484(0xffffa34) # 20f5bc <_ZN68_$LT$core..fmt..builders..PadAdapter$u20$as$u20$core..fmt..Write$GT$9write_str17hbdfb0659a0de6355E>

000000000020fb8c <_ZN50_$LT$$RF$mut$u20$W$u20$as$u20$core..fmt..Write$GT$10write_char17h325a9db2ce8b5818E>:
_ZN50_$LT$$RF$mut$u20$W$u20$as$u20$core..fmt..Write$GT$10write_char17h325a9db2ce8b5818E():
  20fb8c:	02ffc063 	addi.d	$r3,$r3,-16(0xff0)
  20fb90:	29c02061 	st.d	$r1,$r3,8(0x8)
  20fb94:	28c00084 	ld.d	$r4,$r4,0
  20fb98:	29801060 	st.w	$r0,$r3,4(0x4)
  20fb9c:	00df00a6 	bstrpick.d	$r6,$r5,0x1f,0x0
  20fba0:	03820007 	ori	$r7,$r0,0x80
  20fba4:	6c0010c7 	bgeu	$r6,$r7,16(0x10) # 20fbb4 <_ZN50_$LT$$RF$mut$u20$W$u20$as$u20$core..fmt..Write$GT$10write_char17h325a9db2ce8b5818E+0x28>
  20fba8:	29001065 	st.b	$r5,$r3,4(0x4)
  20fbac:	03800406 	ori	$r6,$r0,0x1
  20fbb0:	50009800 	b	152(0x98) # 20fc48 <_ZN50_$LT$$RF$mut$u20$W$u20$as$u20$core..fmt..Write$GT$10write_char17h325a9db2ce8b5818E+0xbc>
  20fbb4:	03a00007 	ori	$r7,$r0,0x800
  20fbb8:	6c0020c7 	bgeu	$r6,$r7,32(0x20) # 20fbd8 <_ZN50_$LT$$RF$mut$u20$W$u20$as$u20$core..fmt..Write$GT$10write_char17h325a9db2ce8b5818E+0x4c>
  20fbbc:	03800806 	ori	$r6,$r0,0x2
  20fbc0:	004518a7 	srli.d	$r7,$r5,0x6
  20fbc4:	00bf18c5 	bstrins.d	$r5,$r6,0x3f,0x6
  20fbc8:	29001465 	st.b	$r5,$r3,5(0x5)
  20fbcc:	038300e5 	ori	$r5,$r7,0xc0
  20fbd0:	29001065 	st.b	$r5,$r3,4(0x4)
  20fbd4:	50007400 	b	116(0x74) # 20fc48 <_ZN50_$LT$$RF$mut$u20$W$u20$as$u20$core..fmt..Write$GT$10write_char17h325a9db2ce8b5818E+0xbc>
  20fbd8:	14000207 	lu12i.w	$r7,16(0x10)
  20fbdc:	6c0034c7 	bgeu	$r6,$r7,52(0x34) # 20fc10 <_ZN50_$LT$$RF$mut$u20$W$u20$as$u20$core..fmt..Write$GT$10write_char17h325a9db2ce8b5818E+0x84>
  20fbe0:	03800806 	ori	$r6,$r0,0x2
  20fbe4:	001500a7 	move	$r7,$r5
  20fbe8:	00bf18c7 	bstrins.d	$r7,$r6,0x3f,0x6
  20fbec:	29001867 	st.b	$r7,$r3,6(0x6)
  20fbf0:	004518a7 	srli.d	$r7,$r5,0x6
  20fbf4:	00bf18c7 	bstrins.d	$r7,$r6,0x3f,0x6
  20fbf8:	29001467 	st.b	$r7,$r3,5(0x5)
  20fbfc:	004530a5 	srli.d	$r5,$r5,0xc
  20fc00:	038380a5 	ori	$r5,$r5,0xe0
  20fc04:	29001065 	st.b	$r5,$r3,4(0x4)
  20fc08:	03800c06 	ori	$r6,$r0,0x3
  20fc0c:	50003c00 	b	60(0x3c) # 20fc48 <_ZN50_$LT$$RF$mut$u20$W$u20$as$u20$core..fmt..Write$GT$10write_char17h325a9db2ce8b5818E+0xbc>
  20fc10:	004530a6 	srli.d	$r6,$r5,0xc
  20fc14:	03800807 	ori	$r7,$r0,0x2
  20fc18:	00bf18e6 	bstrins.d	$r6,$r7,0x3f,0x6
  20fc1c:	004518a8 	srli.d	$r8,$r5,0x6
  20fc20:	00bf18e8 	bstrins.d	$r8,$r7,0x3f,0x6
  20fc24:	004548a9 	srli.d	$r9,$r5,0x12
  20fc28:	00bf18e5 	bstrins.d	$r5,$r7,0x3f,0x6
  20fc2c:	29001c65 	st.b	$r5,$r3,7(0x7)
  20fc30:	29001868 	st.b	$r8,$r3,6(0x6)
  20fc34:	29001466 	st.b	$r6,$r3,5(0x5)
  20fc38:	03807805 	ori	$r5,$r0,0x1e
  20fc3c:	00bf0ca9 	bstrins.d	$r9,$r5,0x3f,0x3
  20fc40:	29001069 	st.b	$r9,$r3,4(0x4)
  20fc44:	03801006 	ori	$r6,$r0,0x4
  20fc48:	02c01065 	addi.d	$r5,$r3,4(0x4)
  20fc4c:	57f973ff 	bl	-1680(0xffff970) # 20f5bc <_ZN68_$LT$core..fmt..builders..PadAdapter$u20$as$u20$core..fmt..Write$GT$9write_str17hbdfb0659a0de6355E>
  20fc50:	28c02061 	ld.d	$r1,$r3,8(0x8)
  20fc54:	02c04063 	addi.d	$r3,$r3,16(0x10)
  20fc58:	4c000020 	jirl	$r0,$r1,0

000000000020fc5c <_ZN50_$LT$$RF$mut$u20$W$u20$as$u20$core..fmt..Write$GT$9write_fmt17h44a1263435dfae29E>:
_ZN50_$LT$$RF$mut$u20$W$u20$as$u20$core..fmt..Write$GT$9write_fmt17h44a1263435dfae29E():
  20fc5c:	02ff0063 	addi.d	$r3,$r3,-64(0xfc0)
  20fc60:	29c0e061 	st.d	$r1,$r3,56(0x38)
  20fc64:	28c00084 	ld.d	$r4,$r4,0
  20fc68:	28c0a0a6 	ld.d	$r6,$r5,40(0x28)
  20fc6c:	29c0c066 	st.d	$r6,$r3,48(0x30)
  20fc70:	28c080a6 	ld.d	$r6,$r5,32(0x20)
  20fc74:	29c0a066 	st.d	$r6,$r3,40(0x28)
  20fc78:	28c060a6 	ld.d	$r6,$r5,24(0x18)
  20fc7c:	29c08066 	st.d	$r6,$r3,32(0x20)
  20fc80:	28c040a6 	ld.d	$r6,$r5,16(0x10)
  20fc84:	29c06066 	st.d	$r6,$r3,24(0x18)
  20fc88:	28c020a6 	ld.d	$r6,$r5,8(0x8)
  20fc8c:	29c04066 	st.d	$r6,$r3,16(0x10)
  20fc90:	28c000a5 	ld.d	$r5,$r5,0
  20fc94:	29c02065 	st.d	$r5,$r3,8(0x8)
  20fc98:	29c00064 	st.d	$r4,$r3,0
  20fc9c:	02c00064 	addi.d	$r4,$r3,0
  20fca0:	1a000125 	pcalau12i	$r5,9(0x9)
  20fca4:	02ffc0a5 	addi.d	$r5,$r5,-16(0xff0)
  20fca8:	02c02066 	addi.d	$r6,$r3,8(0x8)
  20fcac:	540f3800 	bl	3896(0xf38) # 210be4 <_ZN4core3fmt5write17hf855db0f875ea3deE>
  20fcb0:	28c0e061 	ld.d	$r1,$r3,56(0x38)
  20fcb4:	02c10063 	addi.d	$r3,$r3,64(0x40)
  20fcb8:	4c000020 	jirl	$r0,$r1,0

000000000020fcbc <_ZN71_$LT$core..ops..range..Range$LT$Idx$GT$$u20$as$u20$core..fmt..Debug$GT$3fmt17h7f3f6bbdafedf2c5E>:
_ZN71_$LT$core..ops..range..Range$LT$Idx$GT$$u20$as$u20$core..fmt..Debug$GT$3fmt17h7f3f6bbdafedf2c5E():
  20fcbc:	02fd4063 	addi.d	$r3,$r3,-176(0xf50)
  20fcc0:	29c2a061 	st.d	$r1,$r3,168(0xa8)
  20fcc4:	29c28076 	st.d	$r22,$r3,160(0xa0)
  20fcc8:	29c26077 	st.d	$r23,$r3,152(0x98)
  20fccc:	29c24078 	st.d	$r24,$r3,144(0x90)
  20fcd0:	29c22079 	st.d	$r25,$r3,136(0x88)
  20fcd4:	001500b6 	move	$r22,$r5
  20fcd8:	00150097 	move	$r23,$r4
  20fcdc:	2a80d0a4 	ld.wu	$r4,$r5,52(0x34)
  20fce0:	03404085 	andi	$r5,$r4,0x10
  20fce4:	440108a0 	bnez	$r5,264(0x108) # 20fdec <_ZN71_$LT$core..ops..range..Range$LT$Idx$GT$$u20$as$u20$core..fmt..Debug$GT$3fmt17h7f3f6bbdafedf2c5E+0x130>
  20fce8:	03408084 	andi	$r4,$r4,0x20
  20fcec:	44014c80 	bnez	$r4,332(0x14c) # 20fe38 <_ZN71_$LT$core..ops..range..Range$LT$Idx$GT$$u20$as$u20$core..fmt..Debug$GT$3fmt17h7f3f6bbdafedf2c5E+0x17c>
  20fcf0:	28c002e4 	ld.d	$r4,$r23,0
  20fcf4:	14000045 	lu12i.w	$r5,2(0x2)
  20fcf8:	039c40a5 	ori	$r5,$r5,0x710
  20fcfc:	6801bc85 	bltu	$r4,$r5,444(0x1bc) # 20feb8 <_ZN71_$LT$core..ops..range..Range$LT$Idx$GT$$u20$as$u20$core..fmt..Debug$GT$3fmt17h7f3f6bbdafedf2c5E+0x1fc>
  20fd00:	02be7005 	addi.w	$r5,$r0,-100(0xf9c)
  20fd04:	02c02066 	addi.d	$r6,$r3,8(0x8)
  20fd08:	1a0000e7 	pcalau12i	$r7,7(0x7)
  20fd0c:	02f4f4e8 	addi.d	$r8,$r7,-707(0xd3d)
  20fd10:	00150007 	move	$r7,$r0
  20fd14:	00150089 	move	$r9,$r4
  20fd18:	14710ca4 	lu12i.w	$r4,231525(0x38865)
  20fd1c:	03a52c84 	ori	$r4,$r4,0x94b
  20fd20:	17b8bac4 	lu32i.d	$r4,-145962(0xdc5d6)
  20fd24:	030d1884 	lu52i.d	$r4,$r4,838(0x346)
  20fd28:	001e9124 	mulh.du	$r4,$r9,$r4
  20fd2c:	00452c84 	srli.d	$r4,$r4,0xb
  20fd30:	140001aa 	lu12i.w	$r10,13(0xd)
  20fd34:	03a3c14a 	ori	$r10,$r10,0x8f0
  20fd38:	001da88a 	mul.d	$r10,$r4,$r10
  20fd3c:	0010a54a 	add.d	$r10,$r10,$r9
  20fd40:	1400002b 	lu12i.w	$r11,1(0x1)
  20fd44:	0391ed6b 	ori	$r11,$r11,0x47b
  20fd48:	00cf094c 	bstrpick.d	$r12,$r10,0xf,0x2
  20fd4c:	001dad8b 	mul.d	$r11,$r12,$r11
  20fd50:	0045456b 	srli.d	$r11,$r11,0x11
  20fd54:	001d956c 	mul.d	$r12,$r11,$r5
  20fd58:	0010a98a 	add.d	$r10,$r12,$r10
  20fd5c:	00109ccc 	add.d	$r12,$r6,$r7
  20fd60:	002c216d 	alsl.d	$r13,$r11,$r8,0x1
  20fd64:	2a0005ad 	ld.bu	$r13,$r13,1(0x1)
  20fd68:	2900918d 	st.b	$r13,$r12,36(0x24)
  20fd6c:	0041056b 	slli.d	$r11,$r11,0x1
  20fd70:	38202d0b 	ldx.bu	$r11,$r8,$r11
  20fd74:	29008d8b 	st.b	$r11,$r12,35(0x23)
  20fd78:	00cf014a 	bstrpick.d	$r10,$r10,0xf,0x0
  20fd7c:	002c214b 	alsl.d	$r11,$r10,$r8,0x1
  20fd80:	2a00056b 	ld.bu	$r11,$r11,1(0x1)
  20fd84:	2900998b 	st.b	$r11,$r12,38(0x26)
  20fd88:	0041054a 	slli.d	$r10,$r10,0x1
  20fd8c:	3820290a 	ldx.bu	$r10,$r8,$r10
  20fd90:	2900958a 	st.b	$r10,$r12,37(0x25)
  20fd94:	02fff0e7 	addi.d	$r7,$r7,-4(0xffc)
  20fd98:	140bebca 	lu12i.w	$r10,24414(0x5f5e)
  20fd9c:	0383fd4a 	ori	$r10,$r10,0xff
  20fda0:	6bff7549 	bltu	$r10,$r9,-140(0x3ff74) # 20fd14 <_ZN71_$LT$core..ops..range..Range$LT$Idx$GT$$u20$as$u20$core..fmt..Debug$GT$3fmt17h7f3f6bbdafedf2c5E+0x58>
  20fda4:	02c09ce5 	addi.d	$r5,$r7,39(0x27)
  20fda8:	03818c06 	ori	$r6,$r0,0x63
  20fdac:	680118c4 	bltu	$r6,$r4,280(0x118) # 20fec4 <_ZN71_$LT$core..ops..range..Range$LT$Idx$GT$$u20$as$u20$core..fmt..Debug$GT$3fmt17h7f3f6bbdafedf2c5E+0x208>
  20fdb0:	00150086 	move	$r6,$r4
  20fdb4:	03802804 	ori	$r4,$r0,0xa
  20fdb8:	680164c4 	bltu	$r6,$r4,356(0x164) # 20ff1c <_ZN71_$LT$core..ops..range..Range$LT$Idx$GT$$u20$as$u20$core..fmt..Debug$GT$3fmt17h7f3f6bbdafedf2c5E+0x260>
  20fdbc:	004104c4 	slli.d	$r4,$r6,0x1
  20fdc0:	1a0000e7 	pcalau12i	$r7,7(0x7)
  20fdc4:	02f4f4e7 	addi.d	$r7,$r7,-707(0xd3d)
  20fdc8:	382010e8 	ldx.bu	$r8,$r7,$r4
  20fdcc:	02fff8a4 	addi.d	$r4,$r5,-2(0xffe)
  20fdd0:	02c02065 	addi.d	$r5,$r3,8(0x8)
  20fdd4:	38101488 	stx.b	$r8,$r4,$r5
  20fdd8:	002c1cc6 	alsl.d	$r6,$r6,$r7,0x1
  20fddc:	001090a5 	add.d	$r5,$r5,$r4
  20fde0:	2a0004c6 	ld.bu	$r6,$r6,1(0x1)
  20fde4:	290004a6 	st.b	$r6,$r5,1(0x1)
  20fde8:	50014400 	b	324(0x144) # 20ff2c <_ZN71_$LT$core..ops..range..Range$LT$Idx$GT$$u20$as$u20$core..fmt..Debug$GT$3fmt17h7f3f6bbdafedf2c5E+0x270>
  20fdec:	28c002e9 	ld.d	$r9,$r23,0
  20fdf0:	03815c04 	ori	$r4,$r0,0x57
  20fdf4:	0380c007 	ori	$r7,$r0,0x30
  20fdf8:	02c02065 	addi.d	$r5,$r3,8(0x8)
  20fdfc:	03804008 	ori	$r8,$r0,0x10
  20fe00:	00150006 	move	$r6,$r0
  20fe04:	0015012a 	move	$r10,$r9
  20fe08:	03403d29 	andi	$r9,$r9,0xf
  20fe0c:	0240292b 	sltui	$r11,$r9,10(0xa)
  20fe10:	0013ac8c 	masknez	$r12,$r4,$r11
  20fe14:	00132ceb 	maskeqz	$r11,$r7,$r11
  20fe18:	0015316b 	or	$r11,$r11,$r12
  20fe1c:	0010a569 	add.d	$r9,$r11,$r9
  20fe20:	001098ab 	add.d	$r11,$r5,$r6
  20fe24:	2901fd69 	st.b	$r9,$r11,127(0x7f)
  20fe28:	02fffcc6 	addi.d	$r6,$r6,-1(0xfff)
  20fe2c:	00451149 	srli.d	$r9,$r10,0x4
  20fe30:	6fffd548 	bgeu	$r10,$r8,-44(0x3ffd4) # 20fe04 <_ZN71_$LT$core..ops..range..Range$LT$Idx$GT$$u20$as$u20$core..fmt..Debug$GT$3fmt17h7f3f6bbdafedf2c5E+0x148>
  20fe34:	50004c00 	b	76(0x4c) # 20fe80 <_ZN71_$LT$core..ops..range..Range$LT$Idx$GT$$u20$as$u20$core..fmt..Debug$GT$3fmt17h7f3f6bbdafedf2c5E+0x1c4>
  20fe38:	28c002e9 	ld.d	$r9,$r23,0
  20fe3c:	0380dc04 	ori	$r4,$r0,0x37
  20fe40:	0380c007 	ori	$r7,$r0,0x30
  20fe44:	02c02065 	addi.d	$r5,$r3,8(0x8)
  20fe48:	03804008 	ori	$r8,$r0,0x10
  20fe4c:	00150006 	move	$r6,$r0
  20fe50:	0015012a 	move	$r10,$r9
  20fe54:	03403d29 	andi	$r9,$r9,0xf
  20fe58:	0240292b 	sltui	$r11,$r9,10(0xa)
  20fe5c:	0013ac8c 	masknez	$r12,$r4,$r11
  20fe60:	00132ceb 	maskeqz	$r11,$r7,$r11
  20fe64:	0015316b 	or	$r11,$r11,$r12
  20fe68:	0010a569 	add.d	$r9,$r11,$r9
  20fe6c:	001098ab 	add.d	$r11,$r5,$r6
  20fe70:	2901fd69 	st.b	$r9,$r11,127(0x7f)
  20fe74:	02fffcc6 	addi.d	$r6,$r6,-1(0xfff)
  20fe78:	00451149 	srli.d	$r9,$r10,0x4
  20fe7c:	6fffd548 	bgeu	$r10,$r8,-44(0x3ffd4) # 20fe50 <_ZN71_$LT$core..ops..range..Range$LT$Idx$GT$$u20$as$u20$core..fmt..Debug$GT$3fmt17h7f3f6bbdafedf2c5E+0x194>
  20fe80:	02c200c4 	addi.d	$r4,$r6,128(0x80)
  20fe84:	03820407 	ori	$r7,$r0,0x81
  20fe88:	6c037c87 	bgeu	$r4,$r7,892(0x37c) # 210204 <_ZN71_$LT$core..ops..range..Range$LT$Idx$GT$$u20$as$u20$core..fmt..Debug$GT$3fmt17h7f3f6bbdafedf2c5E+0x548>
  20fe8c:	00119808 	sub.d	$r8,$r0,$r6
  20fe90:	001098a4 	add.d	$r4,$r5,$r6
  20fe94:	02c20087 	addi.d	$r7,$r4,128(0x80)
  20fe98:	1a0000e4 	pcalau12i	$r4,7(0x7)
  20fe9c:	02c59885 	addi.d	$r5,$r4,358(0x166)
  20fea0:	03800806 	ori	$r6,$r0,0x2
  20fea4:	001502c4 	move	$r4,$r22
  20fea8:	540fac00 	bl	4012(0xfac) # 210e54 <_ZN4core3fmt9Formatter12pad_integral17hfdb629c44e553f8dE>
  20feac:	4000a880 	beqz	$r4,168(0xa8) # 20ff54 <_ZN71_$LT$core..ops..range..Range$LT$Idx$GT$$u20$as$u20$core..fmt..Debug$GT$3fmt17h7f3f6bbdafedf2c5E+0x298>
  20feb0:	03800419 	ori	$r25,$r0,0x1
  20feb4:	50033000 	b	816(0x330) # 2101e4 <_ZN71_$LT$core..ops..range..Range$LT$Idx$GT$$u20$as$u20$core..fmt..Debug$GT$3fmt17h7f3f6bbdafedf2c5E+0x528>
  20feb8:	03809c05 	ori	$r5,$r0,0x27
  20febc:	03818c06 	ori	$r6,$r0,0x63
  20fec0:	6ffef0c4 	bgeu	$r6,$r4,-272(0x3fef0) # 20fdb0 <_ZN71_$LT$core..ops..range..Range$LT$Idx$GT$$u20$as$u20$core..fmt..Debug$GT$3fmt17h7f3f6bbdafedf2c5E+0xf4>
  20fec4:	14000026 	lu12i.w	$r6,1(0x1)
  20fec8:	0391ecc6 	ori	$r6,$r6,0x47b
  20fecc:	00cf0887 	bstrpick.d	$r7,$r4,0xf,0x2
  20fed0:	001d98e6 	mul.d	$r6,$r7,$r6
  20fed4:	004544c6 	srli.d	$r6,$r6,0x11
  20fed8:	02be7007 	addi.w	$r7,$r0,-100(0xf9c)
  20fedc:	001d9cc7 	mul.d	$r7,$r6,$r7
  20fee0:	001090e4 	add.d	$r4,$r7,$r4
  20fee4:	00cf0084 	bstrpick.d	$r4,$r4,0xf,0x0
  20fee8:	02fff8a5 	addi.d	$r5,$r5,-2(0xffe)
  20feec:	1a0000e7 	pcalau12i	$r7,7(0x7)
  20fef0:	02f4f4e7 	addi.d	$r7,$r7,-707(0xd3d)
  20fef4:	00410488 	slli.d	$r8,$r4,0x1
  20fef8:	382020e8 	ldx.bu	$r8,$r7,$r8
  20fefc:	02c02069 	addi.d	$r9,$r3,8(0x8)
  20ff00:	381024a8 	stx.b	$r8,$r5,$r9
  20ff04:	002c1c84 	alsl.d	$r4,$r4,$r7,0x1
  20ff08:	00109527 	add.d	$r7,$r9,$r5
  20ff0c:	2a000484 	ld.bu	$r4,$r4,1(0x1)
  20ff10:	290004e4 	st.b	$r4,$r7,1(0x1)
  20ff14:	03802804 	ori	$r4,$r0,0xa
  20ff18:	6ffea4c4 	bgeu	$r6,$r4,-348(0x3fea4) # 20fdbc <_ZN71_$LT$core..ops..range..Range$LT$Idx$GT$$u20$as$u20$core..fmt..Debug$GT$3fmt17h7f3f6bbdafedf2c5E+0x100>
  20ff1c:	02fffca4 	addi.d	$r4,$r5,-1(0xfff)
  20ff20:	02c0c0c5 	addi.d	$r5,$r6,48(0x30)
  20ff24:	02c02066 	addi.d	$r6,$r3,8(0x8)
  20ff28:	38101885 	stx.b	$r5,$r4,$r6
  20ff2c:	02c02065 	addi.d	$r5,$r3,8(0x8)
  20ff30:	001090a7 	add.d	$r7,$r5,$r4
  20ff34:	03809c05 	ori	$r5,$r0,0x27
  20ff38:	001190a8 	sub.d	$r8,$r5,$r4
  20ff3c:	1a0000e4 	pcalau12i	$r4,7(0x7)
  20ff40:	02c42085 	addi.d	$r5,$r4,264(0x108)
  20ff44:	001502c4 	move	$r4,$r22
  20ff48:	00150006 	move	$r6,$r0
  20ff4c:	540f0800 	bl	3848(0xf08) # 210e54 <_ZN4core3fmt9Formatter12pad_integral17hfdb629c44e553f8dE>
  20ff50:	47ff609f 	bnez	$r4,-160(0x7fff60) # 20feb0 <_ZN71_$LT$core..ops..range..Range$LT$Idx$GT$$u20$as$u20$core..fmt..Debug$GT$3fmt17h7f3f6bbdafedf2c5E+0x1f4>
  20ff54:	28c0a2c5 	ld.d	$r5,$r22,40(0x28)
  20ff58:	28c082c4 	ld.d	$r4,$r22,32(0x20)
  20ff5c:	1a0000e6 	pcalau12i	$r6,7(0x7)
  20ff60:	02c420c6 	addi.d	$r6,$r6,264(0x108)
  20ff64:	29c06066 	st.d	$r6,$r3,24(0x18)
  20ff68:	1a000126 	pcalau12i	$r6,9(0x9)
  20ff6c:	02c080c6 	addi.d	$r6,$r6,32(0x20)
  20ff70:	29c02066 	st.d	$r6,$r3,8(0x8)
  20ff74:	29c08060 	st.d	$r0,$r3,32(0x20)
  20ff78:	29c0a060 	st.d	$r0,$r3,40(0x28)
  20ff7c:	03800419 	ori	$r25,$r0,0x1
  20ff80:	29c04079 	st.d	$r25,$r3,16(0x10)
  20ff84:	02c02078 	addi.d	$r24,$r3,8(0x8)
  20ff88:	00150306 	move	$r6,$r24
  20ff8c:	540c5800 	bl	3160(0xc58) # 210be4 <_ZN4core3fmt5write17hf855db0f875ea3deE>
  20ff90:	44025480 	bnez	$r4,596(0x254) # 2101e4 <_ZN71_$LT$core..ops..range..Range$LT$Idx$GT$$u20$as$u20$core..fmt..Debug$GT$3fmt17h7f3f6bbdafedf2c5E+0x528>
  20ff94:	2a80d2c4 	ld.wu	$r4,$r22,52(0x34)
  20ff98:	03404085 	andi	$r5,$r4,0x10
  20ff9c:	440100a0 	bnez	$r5,256(0x100) # 21009c <_ZN71_$LT$core..ops..range..Range$LT$Idx$GT$$u20$as$u20$core..fmt..Debug$GT$3fmt17h7f3f6bbdafedf2c5E+0x3e0>
  20ffa0:	03408084 	andi	$r4,$r4,0x20
  20ffa4:	44014080 	bnez	$r4,320(0x140) # 2100e4 <_ZN71_$LT$core..ops..range..Range$LT$Idx$GT$$u20$as$u20$core..fmt..Debug$GT$3fmt17h7f3f6bbdafedf2c5E+0x428>
  20ffa8:	28c022e4 	ld.d	$r4,$r23,8(0x8)
  20ffac:	14000045 	lu12i.w	$r5,2(0x2)
  20ffb0:	039c40a5 	ori	$r5,$r5,0x710
  20ffb4:	6801a085 	bltu	$r4,$r5,416(0x1a0) # 210154 <_ZN71_$LT$core..ops..range..Range$LT$Idx$GT$$u20$as$u20$core..fmt..Debug$GT$3fmt17h7f3f6bbdafedf2c5E+0x498>
  20ffb8:	02be7005 	addi.w	$r5,$r0,-100(0xf9c)
  20ffbc:	1a0000e6 	pcalau12i	$r6,7(0x7)
  20ffc0:	02f4f4c7 	addi.d	$r7,$r6,-707(0xd3d)
  20ffc4:	00150006 	move	$r6,$r0
  20ffc8:	00150088 	move	$r8,$r4
  20ffcc:	14710ca4 	lu12i.w	$r4,231525(0x38865)
  20ffd0:	03a52c84 	ori	$r4,$r4,0x94b
  20ffd4:	17b8bac4 	lu32i.d	$r4,-145962(0xdc5d6)
  20ffd8:	030d1884 	lu52i.d	$r4,$r4,838(0x346)
  20ffdc:	001e9104 	mulh.du	$r4,$r8,$r4
  20ffe0:	00452c84 	srli.d	$r4,$r4,0xb
  20ffe4:	140001a9 	lu12i.w	$r9,13(0xd)
  20ffe8:	03a3c129 	ori	$r9,$r9,0x8f0
  20ffec:	001da489 	mul.d	$r9,$r4,$r9
  20fff0:	0010a129 	add.d	$r9,$r9,$r8
  20fff4:	1400002a 	lu12i.w	$r10,1(0x1)
  20fff8:	0391ed4a 	ori	$r10,$r10,0x47b
  20fffc:	00cf092b 	bstrpick.d	$r11,$r9,0xf,0x2
  210000:	001da96a 	mul.d	$r10,$r11,$r10
  210004:	0045454a 	srli.d	$r10,$r10,0x11
  210008:	001d954b 	mul.d	$r11,$r10,$r5
  21000c:	0010a569 	add.d	$r9,$r11,$r9
  210010:	00109b0b 	add.d	$r11,$r24,$r6
  210014:	002c1d4c 	alsl.d	$r12,$r10,$r7,0x1
  210018:	2a00058c 	ld.bu	$r12,$r12,1(0x1)
  21001c:	2900916c 	st.b	$r12,$r11,36(0x24)
  210020:	0041054a 	slli.d	$r10,$r10,0x1
  210024:	382028ea 	ldx.bu	$r10,$r7,$r10
  210028:	29008d6a 	st.b	$r10,$r11,35(0x23)
  21002c:	00cf0129 	bstrpick.d	$r9,$r9,0xf,0x0
  210030:	002c1d2a 	alsl.d	$r10,$r9,$r7,0x1
  210034:	2a00054a 	ld.bu	$r10,$r10,1(0x1)
  210038:	2900996a 	st.b	$r10,$r11,38(0x26)
  21003c:	00410529 	slli.d	$r9,$r9,0x1
  210040:	382024e9 	ldx.bu	$r9,$r7,$r9
  210044:	29009569 	st.b	$r9,$r11,37(0x25)
  210048:	02fff0c6 	addi.d	$r6,$r6,-4(0xffc)
  21004c:	140bebc9 	lu12i.w	$r9,24414(0x5f5e)
  210050:	0383fd29 	ori	$r9,$r9,0xff
  210054:	6bff7528 	bltu	$r9,$r8,-140(0x3ff74) # 20ffc8 <_ZN71_$LT$core..ops..range..Range$LT$Idx$GT$$u20$as$u20$core..fmt..Debug$GT$3fmt17h7f3f6bbdafedf2c5E+0x30c>
  210058:	02c09cc5 	addi.d	$r5,$r6,39(0x27)
  21005c:	03818c06 	ori	$r6,$r0,0x63
  210060:	680100c4 	bltu	$r6,$r4,256(0x100) # 210160 <_ZN71_$LT$core..ops..range..Range$LT$Idx$GT$$u20$as$u20$core..fmt..Debug$GT$3fmt17h7f3f6bbdafedf2c5E+0x4a4>
  210064:	00150086 	move	$r6,$r4
  210068:	03802804 	ori	$r4,$r0,0xa
  21006c:	680148c4 	bltu	$r6,$r4,328(0x148) # 2101b4 <_ZN71_$LT$core..ops..range..Range$LT$Idx$GT$$u20$as$u20$core..fmt..Debug$GT$3fmt17h7f3f6bbdafedf2c5E+0x4f8>
  210070:	004104c4 	slli.d	$r4,$r6,0x1
  210074:	1a0000c7 	pcalau12i	$r7,6(0x6)
  210078:	02f4f4e7 	addi.d	$r7,$r7,-707(0xd3d)
  21007c:	382010e8 	ldx.bu	$r8,$r7,$r4
  210080:	02fff8a4 	addi.d	$r4,$r5,-2(0xffe)
  210084:	38106088 	stx.b	$r8,$r4,$r24
  210088:	002c1cc5 	alsl.d	$r5,$r6,$r7,0x1
  21008c:	00109306 	add.d	$r6,$r24,$r4
  210090:	2a0004a5 	ld.bu	$r5,$r5,1(0x1)
  210094:	290004c5 	st.b	$r5,$r6,1(0x1)
  210098:	50012800 	b	296(0x128) # 2101c0 <_ZN71_$LT$core..ops..range..Range$LT$Idx$GT$$u20$as$u20$core..fmt..Debug$GT$3fmt17h7f3f6bbdafedf2c5E+0x504>
  21009c:	28c022e8 	ld.d	$r8,$r23,8(0x8)
  2100a0:	03815c04 	ori	$r4,$r0,0x57
  2100a4:	0380c006 	ori	$r6,$r0,0x30
  2100a8:	03804007 	ori	$r7,$r0,0x10
  2100ac:	00150005 	move	$r5,$r0
  2100b0:	00150109 	move	$r9,$r8
  2100b4:	03403d08 	andi	$r8,$r8,0xf
  2100b8:	0240290a 	sltui	$r10,$r8,10(0xa)
  2100bc:	0013a88b 	masknez	$r11,$r4,$r10
  2100c0:	001328ca 	maskeqz	$r10,$r6,$r10
  2100c4:	00152d4a 	or	$r10,$r10,$r11
  2100c8:	0010a148 	add.d	$r8,$r10,$r8
  2100cc:	0010970a 	add.d	$r10,$r24,$r5
  2100d0:	2901fd48 	st.b	$r8,$r10,127(0x7f)
  2100d4:	02fffca5 	addi.d	$r5,$r5,-1(0xfff)
  2100d8:	00451128 	srli.d	$r8,$r9,0x4
  2100dc:	6fffd527 	bgeu	$r9,$r7,-44(0x3ffd4) # 2100b0 <_ZN71_$LT$core..ops..range..Range$LT$Idx$GT$$u20$as$u20$core..fmt..Debug$GT$3fmt17h7f3f6bbdafedf2c5E+0x3f4>
  2100e0:	50004800 	b	72(0x48) # 210128 <_ZN71_$LT$core..ops..range..Range$LT$Idx$GT$$u20$as$u20$core..fmt..Debug$GT$3fmt17h7f3f6bbdafedf2c5E+0x46c>
  2100e4:	28c022e8 	ld.d	$r8,$r23,8(0x8)
  2100e8:	0380dc04 	ori	$r4,$r0,0x37
  2100ec:	0380c006 	ori	$r6,$r0,0x30
  2100f0:	03804007 	ori	$r7,$r0,0x10
  2100f4:	00150005 	move	$r5,$r0
  2100f8:	00150109 	move	$r9,$r8
  2100fc:	03403d08 	andi	$r8,$r8,0xf
  210100:	0240290a 	sltui	$r10,$r8,10(0xa)
  210104:	0013a88b 	masknez	$r11,$r4,$r10
  210108:	001328ca 	maskeqz	$r10,$r6,$r10
  21010c:	00152d4a 	or	$r10,$r10,$r11
  210110:	0010a148 	add.d	$r8,$r10,$r8
  210114:	0010970a 	add.d	$r10,$r24,$r5
  210118:	2901fd48 	st.b	$r8,$r10,127(0x7f)
  21011c:	02fffca5 	addi.d	$r5,$r5,-1(0xfff)
  210120:	00451128 	srli.d	$r8,$r9,0x4
  210124:	6fffd527 	bgeu	$r9,$r7,-44(0x3ffd4) # 2100f8 <_ZN71_$LT$core..ops..range..Range$LT$Idx$GT$$u20$as$u20$core..fmt..Debug$GT$3fmt17h7f3f6bbdafedf2c5E+0x43c>
  210128:	02c200a4 	addi.d	$r4,$r5,128(0x80)
  21012c:	03820406 	ori	$r6,$r0,0x81
  210130:	6c00d486 	bgeu	$r4,$r6,212(0xd4) # 210204 <_ZN71_$LT$core..ops..range..Range$LT$Idx$GT$$u20$as$u20$core..fmt..Debug$GT$3fmt17h7f3f6bbdafedf2c5E+0x548>
  210134:	00119408 	sub.d	$r8,$r0,$r5
  210138:	00109704 	add.d	$r4,$r24,$r5
  21013c:	02c20087 	addi.d	$r7,$r4,128(0x80)
  210140:	1a0000c4 	pcalau12i	$r4,6(0x6)
  210144:	02c59885 	addi.d	$r5,$r4,358(0x166)
  210148:	03800806 	ori	$r6,$r0,0x2
  21014c:	001502c4 	move	$r4,$r22
  210150:	50008c00 	b	140(0x8c) # 2101dc <_ZN71_$LT$core..ops..range..Range$LT$Idx$GT$$u20$as$u20$core..fmt..Debug$GT$3fmt17h7f3f6bbdafedf2c5E+0x520>
  210154:	03809c05 	ori	$r5,$r0,0x27
  210158:	03818c06 	ori	$r6,$r0,0x63
  21015c:	6fff08c4 	bgeu	$r6,$r4,-248(0x3ff08) # 210064 <_ZN71_$LT$core..ops..range..Range$LT$Idx$GT$$u20$as$u20$core..fmt..Debug$GT$3fmt17h7f3f6bbdafedf2c5E+0x3a8>
  210160:	14000026 	lu12i.w	$r6,1(0x1)
  210164:	0391ecc6 	ori	$r6,$r6,0x47b
  210168:	00cf0887 	bstrpick.d	$r7,$r4,0xf,0x2
  21016c:	001d98e6 	mul.d	$r6,$r7,$r6
  210170:	004544c6 	srli.d	$r6,$r6,0x11
  210174:	02be7007 	addi.w	$r7,$r0,-100(0xf9c)
  210178:	001d9cc7 	mul.d	$r7,$r6,$r7
  21017c:	001090e4 	add.d	$r4,$r7,$r4
  210180:	00cf0084 	bstrpick.d	$r4,$r4,0xf,0x0
  210184:	02fff8a5 	addi.d	$r5,$r5,-2(0xffe)
  210188:	1a0000c7 	pcalau12i	$r7,6(0x6)
  21018c:	02f4f4e7 	addi.d	$r7,$r7,-707(0xd3d)
  210190:	00410488 	slli.d	$r8,$r4,0x1
  210194:	382020e8 	ldx.bu	$r8,$r7,$r8
  210198:	381060a8 	stx.b	$r8,$r5,$r24
  21019c:	002c1c84 	alsl.d	$r4,$r4,$r7,0x1
  2101a0:	00109707 	add.d	$r7,$r24,$r5
  2101a4:	2a000484 	ld.bu	$r4,$r4,1(0x1)
  2101a8:	290004e4 	st.b	$r4,$r7,1(0x1)
  2101ac:	03802804 	ori	$r4,$r0,0xa
  2101b0:	6ffec0c4 	bgeu	$r6,$r4,-320(0x3fec0) # 210070 <_ZN71_$LT$core..ops..range..Range$LT$Idx$GT$$u20$as$u20$core..fmt..Debug$GT$3fmt17h7f3f6bbdafedf2c5E+0x3b4>
  2101b4:	02fffca4 	addi.d	$r4,$r5,-1(0xfff)
  2101b8:	02c0c0c5 	addi.d	$r5,$r6,48(0x30)
  2101bc:	38106085 	stx.b	$r5,$r4,$r24
  2101c0:	00109307 	add.d	$r7,$r24,$r4
  2101c4:	03809c05 	ori	$r5,$r0,0x27
  2101c8:	001190a8 	sub.d	$r8,$r5,$r4
  2101cc:	1a0000c4 	pcalau12i	$r4,6(0x6)
  2101d0:	02c42085 	addi.d	$r5,$r4,264(0x108)
  2101d4:	001502c4 	move	$r4,$r22
  2101d8:	00150006 	move	$r6,$r0
  2101dc:	540c7800 	bl	3192(0xc78) # 210e54 <_ZN4core3fmt9Formatter12pad_integral17hfdb629c44e553f8dE>
  2101e0:	00150099 	move	$r25,$r4
  2101e4:	00150324 	move	$r4,$r25
  2101e8:	28c22079 	ld.d	$r25,$r3,136(0x88)
  2101ec:	28c24078 	ld.d	$r24,$r3,144(0x90)
  2101f0:	28c26077 	ld.d	$r23,$r3,152(0x98)
  2101f4:	28c28076 	ld.d	$r22,$r3,160(0xa0)
  2101f8:	28c2a061 	ld.d	$r1,$r3,168(0xa8)
  2101fc:	02c2c063 	addi.d	$r3,$r3,176(0xb0)
  210200:	4c000020 	jirl	$r0,$r1,0
  210204:	03820005 	ori	$r5,$r0,0x80
  210208:	1a000106 	pcalau12i	$r6,8(0x8)
  21020c:	02ccc0c6 	addi.d	$r6,$r6,816(0x330)
  210210:	54036000 	bl	864(0x360) # 210570 <_ZN4core5slice5index26slice_start_index_len_fail17h7935edb336fdba66E>
  210214:	38600400 	amswap.w	$r0,$r1,$r0

0000000000210218 <_ZN4core6result13unwrap_failed17h1feb0e9befb8d2f9E>:
_ZN4core6result13unwrap_failed17h1feb0e9befb8d2f9E():
  210218:	02fe4063 	addi.d	$r3,$r3,-112(0xf90)
  21021c:	29c02065 	st.d	$r5,$r3,8(0x8)
  210220:	29c00064 	st.d	$r4,$r3,0
  210224:	29c06067 	st.d	$r7,$r3,24(0x18)
  210228:	29c04066 	st.d	$r6,$r3,16(0x10)
  21022c:	29c10060 	st.d	$r0,$r3,64(0x40)
  210230:	1a000104 	pcalau12i	$r4,8(0x8)
  210234:	02c0c084 	addi.d	$r4,$r4,48(0x30)
  210238:	29c08064 	st.d	$r4,$r3,32(0x20)
  21023c:	03800804 	ori	$r4,$r0,0x2
  210240:	29c0a064 	st.d	$r4,$r3,40(0x28)
  210244:	29c0e064 	st.d	$r4,$r3,56(0x38)
  210248:	02c14064 	addi.d	$r4,$r3,80(0x50)
  21024c:	29c0c064 	st.d	$r4,$r3,48(0x30)
  210250:	1a000024 	pcalau12i	$r4,1(0x1)
  210254:	02ef4084 	addi.d	$r4,$r4,-1072(0xbd0)
  210258:	29c1a064 	st.d	$r4,$r3,104(0x68)
  21025c:	02c04064 	addi.d	$r4,$r3,16(0x10)
  210260:	29c18064 	st.d	$r4,$r3,96(0x60)
  210264:	1bffff84 	pcalau12i	$r4,-4(0xffffc)
  210268:	02c19084 	addi.d	$r4,$r4,100(0x64)
  21026c:	29c16064 	st.d	$r4,$r3,88(0x58)
  210270:	02c00064 	addi.d	$r4,$r3,0
  210274:	29c14064 	st.d	$r4,$r3,80(0x50)
  210278:	02c08064 	addi.d	$r4,$r3,32(0x20)
  21027c:	00150105 	move	$r5,$r8
  210280:	54015c00 	bl	348(0x15c) # 2103dc <_ZN4core9panicking9panic_fmt17ha745c27c594dd0a5E>
  210284:	38600400 	amswap.w	$r0,$r1,$r0

0000000000210288 <_ZN4core9panicking5panic17hd6bc259b6eb19bb3E>:
_ZN4core9panicking5panic17hd6bc259b6eb19bb3E():
  210288:	02ff0063 	addi.d	$r3,$r3,-64(0xfc0)
  21028c:	03800407 	ori	$r7,$r0,0x1
  210290:	29c02067 	st.d	$r7,$r3,8(0x8)
  210294:	02c0c067 	addi.d	$r7,$r3,48(0x30)
  210298:	29c00067 	st.d	$r7,$r3,0
  21029c:	29c08060 	st.d	$r0,$r3,32(0x20)
  2102a0:	29c06060 	st.d	$r0,$r3,24(0x18)
  2102a4:	1a0000c7 	pcalau12i	$r7,6(0x6)
  2102a8:	02c420e7 	addi.d	$r7,$r7,264(0x108)
  2102ac:	29c04067 	st.d	$r7,$r3,16(0x10)
  2102b0:	29c0e065 	st.d	$r5,$r3,56(0x38)
  2102b4:	29c0c064 	st.d	$r4,$r3,48(0x30)
  2102b8:	02c00064 	addi.d	$r4,$r3,0
  2102bc:	001500c5 	move	$r5,$r6
  2102c0:	54011c00 	bl	284(0x11c) # 2103dc <_ZN4core9panicking9panic_fmt17ha745c27c594dd0a5E>
  2102c4:	38600400 	amswap.w	$r0,$r1,$r0

00000000002102c8 <_ZN4core9panicking19assert_failed_inner17h0bbe304d8af4bed6E>:
_ZN4core9panicking19assert_failed_inner17h0bbe304d8af4bed6E():
  2102c8:	02fcc063 	addi.d	$r3,$r3,-208(0xf30)
  2102cc:	29c00064 	st.d	$r4,$r3,0
  2102d0:	1a0000e4 	pcalau12i	$r4,7(0x7)
  2102d4:	02c94084 	addi.d	$r4,$r4,592(0x250)
  2102d8:	29c02064 	st.d	$r4,$r3,8(0x8)
  2102dc:	29c06064 	st.d	$r4,$r3,24(0x18)
  2102e0:	29c04065 	st.d	$r5,$r3,16(0x10)
  2102e4:	03800804 	ori	$r4,$r0,0x2
  2102e8:	29c0a064 	st.d	$r4,$r3,40(0x28)
  2102ec:	1a0000a4 	pcalau12i	$r4,5(0x5)
  2102f0:	02d80484 	addi.d	$r4,$r4,1537(0x601)
  2102f4:	29c08064 	st.d	$r4,$r3,32(0x20)
  2102f8:	28c000c4 	ld.d	$r4,$r6,0
  2102fc:	44003080 	bnez	$r4,48(0x30) # 21032c <_ZN4core9panicking19assert_failed_inner17h0bbe304d8af4bed6E+0x64>
  210300:	29c30060 	st.d	$r0,$r3,192(0xc0)
  210304:	03801004 	ori	$r4,$r0,0x4
  210308:	29c2a064 	st.d	$r4,$r3,168(0xa8)
  21030c:	1a000104 	pcalau12i	$r4,8(0x8)
  210310:	02c30084 	addi.d	$r4,$r4,192(0xc0)
  210314:	29c28064 	st.d	$r4,$r3,160(0xa0)
  210318:	03800c04 	ori	$r4,$r0,0x3
  21031c:	29c2e064 	st.d	$r4,$r3,184(0xb8)
  210320:	02c18064 	addi.d	$r4,$r3,96(0x60)
  210324:	29c2c064 	st.d	$r4,$r3,176(0xb0)
  210328:	50006c00 	b	108(0x6c) # 210394 <_ZN4core9panicking19assert_failed_inner17h0bbe304d8af4bed6E+0xcc>
  21032c:	28c0a0c4 	ld.d	$r4,$r6,40(0x28)
  210330:	29c16064 	st.d	$r4,$r3,88(0x58)
  210334:	28c080c4 	ld.d	$r4,$r6,32(0x20)
  210338:	29c14064 	st.d	$r4,$r3,80(0x50)
  21033c:	28c060c4 	ld.d	$r4,$r6,24(0x18)
  210340:	29c12064 	st.d	$r4,$r3,72(0x48)
  210344:	28c040c4 	ld.d	$r4,$r6,16(0x10)
  210348:	29c10064 	st.d	$r4,$r3,64(0x40)
  21034c:	28c020c4 	ld.d	$r4,$r6,8(0x8)
  210350:	29c0e064 	st.d	$r4,$r3,56(0x38)
  210354:	28c000c4 	ld.d	$r4,$r6,0
  210358:	29c0c064 	st.d	$r4,$r3,48(0x30)
  21035c:	29c30060 	st.d	$r0,$r3,192(0xc0)
  210360:	1a000104 	pcalau12i	$r4,8(0x8)
  210364:	02c40084 	addi.d	$r4,$r4,256(0x100)
  210368:	29c28064 	st.d	$r4,$r3,160(0xa0)
  21036c:	03801004 	ori	$r4,$r0,0x4
  210370:	29c2a064 	st.d	$r4,$r3,168(0xa8)
  210374:	29c2e064 	st.d	$r4,$r3,184(0xb8)
  210378:	02c18064 	addi.d	$r4,$r3,96(0x60)
  21037c:	29c2c064 	st.d	$r4,$r3,176(0xb0)
  210380:	1a000024 	pcalau12i	$r4,1(0x1)
  210384:	02f90084 	addi.d	$r4,$r4,-448(0xe40)
  210388:	29c26064 	st.d	$r4,$r3,152(0x98)
  21038c:	02c0c064 	addi.d	$r4,$r3,48(0x30)
  210390:	29c24064 	st.d	$r4,$r3,144(0x90)
  210394:	02c04064 	addi.d	$r4,$r3,16(0x10)
  210398:	29c20064 	st.d	$r4,$r3,128(0x80)
  21039c:	1a000024 	pcalau12i	$r4,1(0x1)
  2103a0:	02ef4084 	addi.d	$r4,$r4,-1072(0xbd0)
  2103a4:	29c22064 	st.d	$r4,$r3,136(0x88)
  2103a8:	29c1e064 	st.d	$r4,$r3,120(0x78)
  2103ac:	02c00064 	addi.d	$r4,$r3,0
  2103b0:	29c1c064 	st.d	$r4,$r3,112(0x70)
  2103b4:	1bffff84 	pcalau12i	$r4,-4(0xffffc)
  2103b8:	02c19084 	addi.d	$r4,$r4,100(0x64)
  2103bc:	29c1a064 	st.d	$r4,$r3,104(0x68)
  2103c0:	02c08064 	addi.d	$r4,$r3,32(0x20)
  2103c4:	29c18064 	st.d	$r4,$r3,96(0x60)
  2103c8:	02c28064 	addi.d	$r4,$r3,160(0xa0)
  2103cc:	1a0000e5 	pcalau12i	$r5,7(0x7)
  2103d0:	02cf60a5 	addi.d	$r5,$r5,984(0x3d8)
  2103d4:	54000800 	bl	8(0x8) # 2103dc <_ZN4core9panicking9panic_fmt17ha745c27c594dd0a5E>
  2103d8:	38600400 	amswap.w	$r0,$r1,$r0

00000000002103dc <_ZN4core9panicking9panic_fmt17ha745c27c594dd0a5E>:
_ZN4core9panicking9panic_fmt17ha745c27c594dd0a5E():
  2103dc:	02ff4063 	addi.d	$r3,$r3,-48(0xfd0)
  2103e0:	29c08064 	st.d	$r4,$r3,32(0x20)
  2103e4:	1a000104 	pcalau12i	$r4,8(0x8)
  2103e8:	02c20084 	addi.d	$r4,$r4,128(0x80)
  2103ec:	29c04064 	st.d	$r4,$r3,16(0x10)
  2103f0:	1a0000c4 	pcalau12i	$r4,6(0x6)
  2103f4:	02c42084 	addi.d	$r4,$r4,264(0x108)
  2103f8:	29c02064 	st.d	$r4,$r3,8(0x8)
  2103fc:	03800404 	ori	$r4,$r0,0x1
  210400:	2900a064 	st.b	$r4,$r3,40(0x28)
  210404:	29c06065 	st.d	$r5,$r3,24(0x18)
  210408:	02c02064 	addi.d	$r4,$r3,8(0x8)
  21040c:	57bc6fff 	bl	-17300(0xfffbc6c) # 20c078 <rust_begin_unwind>
  210410:	38600400 	amswap.w	$r0,$r1,$r0

0000000000210414 <_ZN4core5slice5index24slice_end_index_len_fail17h69ee3763533eb493E>:
_ZN4core5slice5index24slice_end_index_len_fail17h69ee3763533eb493E():
  210414:	02fe8063 	addi.d	$r3,$r3,-96(0xfa0)
  210418:	29c00064 	st.d	$r4,$r3,0
  21041c:	29c02065 	st.d	$r5,$r3,8(0x8)
  210420:	29c0c060 	st.d	$r0,$r3,48(0x30)
  210424:	1a000104 	pcalau12i	$r4,8(0x8)
  210428:	02c58084 	addi.d	$r4,$r4,352(0x160)
  21042c:	29c04064 	st.d	$r4,$r3,16(0x10)
  210430:	03800804 	ori	$r4,$r0,0x2
  210434:	29c06064 	st.d	$r4,$r3,24(0x18)
  210438:	29c0a064 	st.d	$r4,$r3,40(0x28)
  21043c:	02c10064 	addi.d	$r4,$r3,64(0x40)
  210440:	29c08064 	st.d	$r4,$r3,32(0x20)
  210444:	02c02064 	addi.d	$r4,$r3,8(0x8)
  210448:	29c14064 	st.d	$r4,$r3,80(0x50)
  21044c:	1bffffe4 	pcalau12i	$r4,-1(0xfffff)
  210450:	02cf4084 	addi.d	$r4,$r4,976(0x3d0)
  210454:	29c16064 	st.d	$r4,$r3,88(0x58)
  210458:	29c12064 	st.d	$r4,$r3,72(0x48)
  21045c:	02c00064 	addi.d	$r4,$r3,0
  210460:	29c10064 	st.d	$r4,$r3,64(0x40)
  210464:	02c04064 	addi.d	$r4,$r3,16(0x10)
  210468:	001500c5 	move	$r5,$r6
  21046c:	57ff73ff 	bl	-144(0xfffff70) # 2103dc <_ZN4core9panicking9panic_fmt17ha745c27c594dd0a5E>
  210470:	38600400 	amswap.w	$r0,$r1,$r0

0000000000210474 <_ZN4core5slice5index22slice_index_order_fail17h463cb24654d29f77E>:
_ZN4core5slice5index22slice_index_order_fail17h463cb24654d29f77E():
  210474:	02fe8063 	addi.d	$r3,$r3,-96(0xfa0)
  210478:	29c00064 	st.d	$r4,$r3,0
  21047c:	29c02065 	st.d	$r5,$r3,8(0x8)
  210480:	29c0c060 	st.d	$r0,$r3,48(0x30)
  210484:	1a000104 	pcalau12i	$r4,8(0x8)
  210488:	02c60084 	addi.d	$r4,$r4,384(0x180)
  21048c:	29c04064 	st.d	$r4,$r3,16(0x10)
  210490:	03800804 	ori	$r4,$r0,0x2
  210494:	29c06064 	st.d	$r4,$r3,24(0x18)
  210498:	29c0a064 	st.d	$r4,$r3,40(0x28)
  21049c:	02c10064 	addi.d	$r4,$r3,64(0x40)
  2104a0:	29c08064 	st.d	$r4,$r3,32(0x20)
  2104a4:	02c02064 	addi.d	$r4,$r3,8(0x8)
  2104a8:	29c14064 	st.d	$r4,$r3,80(0x50)
  2104ac:	1bffffe4 	pcalau12i	$r4,-1(0xfffff)
  2104b0:	02cf4084 	addi.d	$r4,$r4,976(0x3d0)
  2104b4:	29c16064 	st.d	$r4,$r3,88(0x58)
  2104b8:	29c12064 	st.d	$r4,$r3,72(0x48)
  2104bc:	02c00064 	addi.d	$r4,$r3,0
  2104c0:	29c10064 	st.d	$r4,$r3,64(0x40)
  2104c4:	02c04064 	addi.d	$r4,$r3,16(0x10)
  2104c8:	001500c5 	move	$r5,$r6
  2104cc:	57ff13ff 	bl	-240(0xfffff10) # 2103dc <_ZN4core9panicking9panic_fmt17ha745c27c594dd0a5E>
  2104d0:	38600400 	amswap.w	$r0,$r1,$r0

00000000002104d4 <_ZN4core9panicking18panic_bounds_check17h5afa83c7f9faa757E>:
_ZN4core9panicking18panic_bounds_check17h5afa83c7f9faa757E():
  2104d4:	02fe8063 	addi.d	$r3,$r3,-96(0xfa0)
  2104d8:	29c02065 	st.d	$r5,$r3,8(0x8)
  2104dc:	29c00064 	st.d	$r4,$r3,0
  2104e0:	29c0c060 	st.d	$r0,$r3,48(0x30)
  2104e4:	1a000104 	pcalau12i	$r4,8(0x8)
  2104e8:	02c28084 	addi.d	$r4,$r4,160(0xa0)
  2104ec:	29c04064 	st.d	$r4,$r3,16(0x10)
  2104f0:	03800804 	ori	$r4,$r0,0x2
  2104f4:	29c06064 	st.d	$r4,$r3,24(0x18)
  2104f8:	29c0a064 	st.d	$r4,$r3,40(0x28)
  2104fc:	02c10064 	addi.d	$r4,$r3,64(0x40)
  210500:	29c08064 	st.d	$r4,$r3,32(0x20)
  210504:	02c00064 	addi.d	$r4,$r3,0
  210508:	29c14064 	st.d	$r4,$r3,80(0x50)
  21050c:	1bffffe4 	pcalau12i	$r4,-1(0xfffff)
  210510:	02cf4084 	addi.d	$r4,$r4,976(0x3d0)
  210514:	29c16064 	st.d	$r4,$r3,88(0x58)
  210518:	29c12064 	st.d	$r4,$r3,72(0x48)
  21051c:	02c02064 	addi.d	$r4,$r3,8(0x8)
  210520:	29c10064 	st.d	$r4,$r3,64(0x40)
  210524:	02c04064 	addi.d	$r4,$r3,16(0x10)
  210528:	001500c5 	move	$r5,$r6
  21052c:	57feb3ff 	bl	-336(0xffffeb0) # 2103dc <_ZN4core9panicking9panic_fmt17ha745c27c594dd0a5E>
  210530:	38600400 	amswap.w	$r0,$r1,$r0

0000000000210534 <_ZN4core9panicking18panic_nounwind_fmt17hc3d80818bb5b1bd9E>:
_ZN4core9panicking18panic_nounwind_fmt17hc3d80818bb5b1bd9E():
  210534:	02ff4063 	addi.d	$r3,$r3,-48(0xfd0)
  210538:	29c08064 	st.d	$r4,$r3,32(0x20)
  21053c:	1a000104 	pcalau12i	$r4,8(0x8)
  210540:	02c20084 	addi.d	$r4,$r4,128(0x80)
  210544:	29c04064 	st.d	$r4,$r3,16(0x10)
  210548:	1a0000c4 	pcalau12i	$r4,6(0x6)
  21054c:	02c42084 	addi.d	$r4,$r4,264(0x108)
  210550:	29c02064 	st.d	$r4,$r3,8(0x8)
  210554:	2900a060 	st.b	$r0,$r3,40(0x28)
  210558:	1a0000e4 	pcalau12i	$r4,7(0x7)
  21055c:	02c42084 	addi.d	$r4,$r4,264(0x108)
  210560:	29c06064 	st.d	$r4,$r3,24(0x18)
  210564:	02c02064 	addi.d	$r4,$r3,8(0x8)
  210568:	57bb13ff 	bl	-17648(0xfffbb10) # 20c078 <rust_begin_unwind>
  21056c:	38600400 	amswap.w	$r0,$r1,$r0

0000000000210570 <_ZN4core5slice5index26slice_start_index_len_fail17h7935edb336fdba66E>:
_ZN4core5slice5index26slice_start_index_len_fail17h7935edb336fdba66E():
  210570:	02fe8063 	addi.d	$r3,$r3,-96(0xfa0)
  210574:	29c00064 	st.d	$r4,$r3,0
  210578:	29c02065 	st.d	$r5,$r3,8(0x8)
  21057c:	29c0c060 	st.d	$r0,$r3,48(0x30)
  210580:	1a000104 	pcalau12i	$r4,8(0x8)
  210584:	02c50084 	addi.d	$r4,$r4,320(0x140)
  210588:	29c04064 	st.d	$r4,$r3,16(0x10)
  21058c:	03800804 	ori	$r4,$r0,0x2
  210590:	29c06064 	st.d	$r4,$r3,24(0x18)
  210594:	29c0a064 	st.d	$r4,$r3,40(0x28)
  210598:	02c10064 	addi.d	$r4,$r3,64(0x40)
  21059c:	29c08064 	st.d	$r4,$r3,32(0x20)
  2105a0:	02c02064 	addi.d	$r4,$r3,8(0x8)
  2105a4:	29c14064 	st.d	$r4,$r3,80(0x50)
  2105a8:	1bffffe4 	pcalau12i	$r4,-1(0xfffff)
  2105ac:	02cf4084 	addi.d	$r4,$r4,976(0x3d0)
  2105b0:	29c16064 	st.d	$r4,$r3,88(0x58)
  2105b4:	29c12064 	st.d	$r4,$r3,72(0x48)
  2105b8:	02c00064 	addi.d	$r4,$r3,0
  2105bc:	29c10064 	st.d	$r4,$r3,64(0x40)
  2105c0:	02c04064 	addi.d	$r4,$r3,16(0x10)
  2105c4:	001500c5 	move	$r5,$r6
  2105c8:	57fe17ff 	bl	-492(0xffffe14) # 2103dc <_ZN4core9panicking9panic_fmt17ha745c27c594dd0a5E>
  2105cc:	38600400 	amswap.w	$r0,$r1,$r0

00000000002105d0 <_ZN68_$LT$core..num..error..ParseIntError$u20$as$u20$core..fmt..Debug$GT$3fmt17h25935cc11561603fE>:
_ZN68_$LT$core..num..error..ParseIntError$u20$as$u20$core..fmt..Debug$GT$3fmt17h25935cc11561603fE():
  2105d0:	02ff4063 	addi.d	$r3,$r3,-48(0xfd0)
  2105d4:	29c0a061 	st.d	$r1,$r3,40(0x28)
  2105d8:	29c08076 	st.d	$r22,$r3,32(0x20)
  2105dc:	001500b6 	move	$r22,$r5
  2105e0:	29c02064 	st.d	$r4,$r3,8(0x8)
  2105e4:	28c0a0a4 	ld.d	$r4,$r5,40(0x28)
  2105e8:	28c06087 	ld.d	$r7,$r4,24(0x18)
  2105ec:	28c080a4 	ld.d	$r4,$r5,32(0x20)
  2105f0:	1a0000a5 	pcalau12i	$r5,5(0x5)
  2105f4:	02da50a5 	addi.d	$r5,$r5,1684(0x694)
  2105f8:	03803406 	ori	$r6,$r0,0xd
  2105fc:	4c0000e1 	jirl	$r1,$r7,0
  210600:	29006460 	st.b	$r0,$r3,25(0x19)
  210604:	29006064 	st.b	$r4,$r3,24(0x18)
  210608:	29c04076 	st.d	$r22,$r3,16(0x10)
  21060c:	02c04064 	addi.d	$r4,$r3,16(0x10)
  210610:	1a000085 	pcalau12i	$r5,4(0x4)
  210614:	02d690a5 	addi.d	$r5,$r5,1444(0x5a4)
  210618:	03801006 	ori	$r6,$r0,0x4
  21061c:	02c02067 	addi.d	$r7,$r3,8(0x8)
  210620:	1a000008 	pcalau12i	$r8,0
  210624:	02db1108 	addi.d	$r8,$r8,1732(0x6c4)
  210628:	57f207ff 	bl	-3580(0xffff204) # 20f82c <_ZN4core3fmt8builders11DebugStruct5field17h320ddce9d02d7eafE>
  21062c:	28006064 	ld.b	$r4,$r3,24(0x18)
  210630:	2a006465 	ld.bu	$r5,$r3,25(0x19)
  210634:	400020a0 	beqz	$r5,32(0x20) # 210654 <_ZN68_$LT$core..num..error..ParseIntError$u20$as$u20$core..fmt..Debug$GT$3fmt17h25935cc11561603fE+0x84>
  210638:	0343fc84 	andi	$r4,$r4,0xff
  21063c:	40003080 	beqz	$r4,48(0x30) # 21066c <_ZN68_$LT$core..num..error..ParseIntError$u20$as$u20$core..fmt..Debug$GT$3fmt17h25935cc11561603fE+0x9c>
  210640:	03800404 	ori	$r4,$r0,0x1
  210644:	28c08076 	ld.d	$r22,$r3,32(0x20)
  210648:	28c0a061 	ld.d	$r1,$r3,40(0x28)
  21064c:	02c0c063 	addi.d	$r3,$r3,48(0x30)
  210650:	4c000020 	jirl	$r0,$r1,0
  210654:	0343fc84 	andi	$r4,$r4,0xff
  210658:	00129004 	sltu	$r4,$r0,$r4
  21065c:	28c08076 	ld.d	$r22,$r3,32(0x20)
  210660:	28c0a061 	ld.d	$r1,$r3,40(0x28)
  210664:	02c0c063 	addi.d	$r3,$r3,48(0x30)
  210668:	4c000020 	jirl	$r0,$r1,0
  21066c:	28c04065 	ld.d	$r5,$r3,16(0x10)
  210670:	2a00d0a4 	ld.bu	$r4,$r5,52(0x34)
  210674:	03401084 	andi	$r4,$r4,0x4
  210678:	44002080 	bnez	$r4,32(0x20) # 210698 <_ZN68_$LT$core..num..error..ParseIntError$u20$as$u20$core..fmt..Debug$GT$3fmt17h25935cc11561603fE+0xc8>
  21067c:	28c080a4 	ld.d	$r4,$r5,32(0x20)
  210680:	28c0a0a5 	ld.d	$r5,$r5,40(0x28)
  210684:	28c060a7 	ld.d	$r7,$r5,24(0x18)
  210688:	1a0000c5 	pcalau12i	$r5,6(0x6)
  21068c:	02f824a5 	addi.d	$r5,$r5,-503(0xe09)
  210690:	03800806 	ori	$r6,$r0,0x2
  210694:	50001c00 	b	28(0x1c) # 2106b0 <_ZN68_$LT$core..num..error..ParseIntError$u20$as$u20$core..fmt..Debug$GT$3fmt17h25935cc11561603fE+0xe0>
  210698:	28c080a4 	ld.d	$r4,$r5,32(0x20)
  21069c:	28c0a0a5 	ld.d	$r5,$r5,40(0x28)
  2106a0:	28c060a7 	ld.d	$r7,$r5,24(0x18)
  2106a4:	1a0000c5 	pcalau12i	$r5,6(0x6)
  2106a8:	02f820a5 	addi.d	$r5,$r5,-504(0xe08)
  2106ac:	03800406 	ori	$r6,$r0,0x1
  2106b0:	4c0000e1 	jirl	$r1,$r7,0
  2106b4:	28c08076 	ld.d	$r22,$r3,32(0x20)
  2106b8:	28c0a061 	ld.d	$r1,$r3,40(0x28)
  2106bc:	02c0c063 	addi.d	$r3,$r3,48(0x30)
  2106c0:	4c000020 	jirl	$r0,$r1,0

00000000002106c4 <_ZN42_$LT$$RF$T$u20$as$u20$core..fmt..Debug$GT$3fmt17h5dfd5e3a9b100691E>:
_ZN42_$LT$$RF$T$u20$as$u20$core..fmt..Debug$GT$3fmt17h5dfd5e3a9b100691E():
  2106c4:	28c00084 	ld.d	$r4,$r4,0
  2106c8:	2a000084 	ld.bu	$r4,$r4,0
  2106cc:	00410c84 	slli.d	$r4,$r4,0x3
  2106d0:	1a000106 	pcalau12i	$r6,8(0x8)
  2106d4:	02c680c6 	addi.d	$r6,$r6,416(0x1a0)
  2106d8:	380c10c7 	ldx.d	$r7,$r6,$r4
  2106dc:	1a0000a6 	pcalau12i	$r6,5(0x5)
  2106e0:	02db20c6 	addi.d	$r6,$r6,1736(0x6c8)
  2106e4:	380c10c6 	ldx.d	$r6,$r6,$r4
  2106e8:	28c080a4 	ld.d	$r4,$r5,32(0x20)
  2106ec:	28c0a0a5 	ld.d	$r5,$r5,40(0x28)
  2106f0:	28c060a8 	ld.d	$r8,$r5,24(0x18)
  2106f4:	001500e5 	move	$r5,$r7
  2106f8:	4c000100 	jirl	$r0,$r8,0

00000000002106fc <_ZN4core7unicode9printable5check17hb959a424f3f478efE.llvm.17787663036333801864>:
_ZN4core7unicode9printable5check17hb959a424f3f478efE.llvm.17787663036333801864():
  2106fc:	002c14c6 	alsl.d	$r6,$r6,$r5,0x1
  210700:	00cf208b 	bstrpick.d	$r11,$r4,0xf,0x8
  210704:	0343fd6d 	andi	$r13,$r11,0xff
  210708:	0343fc8e 	andi	$r14,$r4,0xff
  21070c:	0015000c 	move	$r12,$r0
  210710:	2a0004b0 	ld.bu	$r16,$r5,1(0x1)
  210714:	0010c18b 	add.d	$r11,$r12,$r16
  210718:	02c008af 	addi.d	$r15,$r5,2(0x2)
  21071c:	2a0000a5 	ld.bu	$r5,$r5,0
  210720:	5c002cad 	bne	$r5,$r13,44(0x2c) # 21074c <_ZN4core7unicode9printable5check17hb959a424f3f478efE.llvm.17787663036333801864+0x50>
  210724:	6800a56c 	bltu	$r11,$r12,164(0xa4) # 2107c8 <_ZN4core7unicode9printable5check17hb959a424f3f478efE.llvm.17787663036333801864+0xcc>
  210728:	6800b90b 	bltu	$r8,$r11,184(0xb8) # 2107e0 <_ZN4core7unicode9printable5check17hb959a424f3f478efE.llvm.17787663036333801864+0xe4>
  21072c:	0010b0e5 	add.d	$r5,$r7,$r12
  210730:	40002200 	beqz	$r16,32(0x20) # 210750 <_ZN4core7unicode9printable5check17hb959a424f3f478efE.llvm.17787663036333801864+0x54>
  210734:	02fffe10 	addi.d	$r16,$r16,-1(0xfff)
  210738:	02c004ac 	addi.d	$r12,$r5,1(0x1)
  21073c:	2a0000b1 	ld.bu	$r17,$r5,0
  210740:	00150185 	move	$r5,$r12
  210744:	5fffee2e 	bne	$r17,$r14,-20(0x3ffec) # 210730 <_ZN4core7unicode9printable5check17hb959a424f3f478efE.llvm.17787663036333801864+0x34>
  210748:	50007800 	b	120(0x78) # 2107c0 <_ZN4core7unicode9printable5check17hb959a424f3f478efE.llvm.17787663036333801864+0xc4>
  21074c:	680011a5 	bltu	$r13,$r5,16(0x10) # 21075c <_ZN4core7unicode9printable5check17hb959a424f3f478efE.llvm.17787663036333801864+0x60>
  210750:	0015016c 	move	$r12,$r11
  210754:	001501e5 	move	$r5,$r15
  210758:	5fffb9e6 	bne	$r15,$r6,-72(0x3ffb8) # 210710 <_ZN4core7unicode9printable5check17hb959a424f3f478efE.llvm.17787663036333801864+0x14>
  21075c:	03800405 	ori	$r5,$r0,0x1
  210760:	00cf0084 	bstrpick.d	$r4,$r4,0xf,0x0
  210764:	0010a926 	add.d	$r6,$r9,$r10
  210768:	02c00527 	addi.d	$r7,$r9,1(0x1)
  21076c:	28000129 	ld.b	$r9,$r9,0
  210770:	60001920 	blt	$r9,$r0,24(0x18) # 210788 <_ZN4core7unicode9printable5check17hb959a424f3f478efE.llvm.17787663036333801864+0x8c>
  210774:	0343fd28 	andi	$r8,$r9,0xff
  210778:	001500e9 	move	$r9,$r7
  21077c:	00112084 	sub.w	$r4,$r4,$r8
  210780:	64002080 	bge	$r4,$r0,32(0x20) # 2107a0 <_ZN4core7unicode9printable5check17hb959a424f3f478efE.llvm.17787663036333801864+0xa4>
  210784:	50003400 	b	52(0x34) # 2107b8 <_ZN4core7unicode9printable5check17hb959a424f3f478efE.llvm.17787663036333801864+0xbc>
  210788:	580070e6 	beq	$r7,$r6,112(0x70) # 2107f8 <_ZN4core7unicode9printable5check17hb959a424f3f478efE.llvm.17787663036333801864+0xfc>
  21078c:	2a0000e8 	ld.bu	$r8,$r7,0
  210790:	008e2128 	bstrins.d	$r8,$r9,0xe,0x8
  210794:	02c004e9 	addi.d	$r9,$r7,1(0x1)
  210798:	00112084 	sub.w	$r4,$r4,$r8
  21079c:	60001c80 	blt	$r4,$r0,28(0x1c) # 2107b8 <_ZN4core7unicode9printable5check17hb959a424f3f478efE.llvm.17787663036333801864+0xbc>
  2107a0:	03c004a5 	xori	$r5,$r5,0x1
  2107a4:	40001520 	beqz	$r9,20(0x14) # 2107b8 <_ZN4core7unicode9printable5check17hb959a424f3f478efE.llvm.17787663036333801864+0xbc>
  2107a8:	00159927 	xor	$r7,$r9,$r6
  2107ac:	00129c07 	sltu	$r7,$r0,$r7
  2107b0:	00109d27 	add.d	$r7,$r9,$r7
  2107b4:	5fffb926 	bne	$r9,$r6,-72(0x3ffb8) # 21076c <_ZN4core7unicode9printable5check17hb959a424f3f478efE.llvm.17787663036333801864+0x70>
  2107b8:	034004a4 	andi	$r4,$r5,0x1
  2107bc:	4c000020 	jirl	$r0,$r1,0
  2107c0:	03400404 	andi	$r4,$r0,0x1
  2107c4:	4c000020 	jirl	$r0,$r1,0
  2107c8:	1a000104 	pcalau12i	$r4,8(0x8)
  2107cc:	02c78086 	addi.d	$r6,$r4,480(0x1e0)
  2107d0:	00150184 	move	$r4,$r12
  2107d4:	00150165 	move	$r5,$r11
  2107d8:	57fc9fff 	bl	-868(0xffffc9c) # 210474 <_ZN4core5slice5index22slice_index_order_fail17h463cb24654d29f77E>
  2107dc:	38600400 	amswap.w	$r0,$r1,$r0
  2107e0:	1a000104 	pcalau12i	$r4,8(0x8)
  2107e4:	02c78086 	addi.d	$r6,$r4,480(0x1e0)
  2107e8:	00150164 	move	$r4,$r11
  2107ec:	00150105 	move	$r5,$r8
  2107f0:	57fc27ff 	bl	-988(0xffffc24) # 210414 <_ZN4core5slice5index24slice_end_index_len_fail17h69ee3763533eb493E>
  2107f4:	38600400 	amswap.w	$r0,$r1,$r0
  2107f8:	1a0000c4 	pcalau12i	$r4,6(0x6)
  2107fc:	02c9c084 	addi.d	$r4,$r4,624(0x270)
  210800:	0380ac05 	ori	$r5,$r0,0x2b
  210804:	1a000106 	pcalau12i	$r6,8(0x8)
  210808:	02c720c6 	addi.d	$r6,$r6,456(0x1c8)
  21080c:	57fa7fff 	bl	-1412(0xffffa7c) # 210288 <_ZN4core9panicking5panic17hd6bc259b6eb19bb3E>
  210810:	38600400 	amswap.w	$r0,$r1,$r0

0000000000210814 <_ZN4core3str16slice_error_fail17hc0ef9e80b77f6408E>:
_ZN4core3str16slice_error_fail17hc0ef9e80b77f6408E():
  210814:	54000800 	bl	8(0x8) # 21081c <_ZN4core3str19slice_error_fail_rt17h0e3b58a278516a94E>
  210818:	38600400 	amswap.w	$r0,$r1,$r0

000000000021081c <_ZN4core3str19slice_error_fail_rt17h0e3b58a278516a94E>:
_ZN4core3str19slice_error_fail_rt17h0e3b58a278516a94E():
  21081c:	02fcc063 	addi.d	$r3,$r3,-208(0xf30)
  210820:	29c02067 	st.d	$r7,$r3,8(0x8)
  210824:	29c00066 	st.d	$r6,$r3,0
  210828:	03840409 	ori	$r9,$r0,0x101
  21082c:	680018a9 	bltu	$r5,$r9,24(0x18) # 210844 <_ZN4core3str19slice_error_fail_rt17h0e3b58a278516a94E+0x28>
  210830:	2804008a 	ld.b	$r10,$r4,256(0x100)
  210834:	02befc09 	addi.w	$r9,$r0,-65(0xfbf)
  210838:	6400312a 	bge	$r9,$r10,48(0x30) # 210868 <_ZN4core3str19slice_error_fail_rt17h0e3b58a278516a94E+0x4c>
  21083c:	03840009 	ori	$r9,$r0,0x100
  210840:	50004c00 	b	76(0x4c) # 21088c <_ZN4core3str19slice_error_fail_rt17h0e3b58a278516a94E+0x70>
  210844:	29c06065 	st.d	$r5,$r3,24(0x18)
  210848:	29c04064 	st.d	$r4,$r3,16(0x10)
  21084c:	1a0000c9 	pcalau12i	$r9,6(0x6)
  210850:	02c42129 	addi.d	$r9,$r9,264(0x108)
  210854:	0015000a 	move	$r10,$r0
  210858:	29c0a06a 	st.d	$r10,$r3,40(0x28)
  21085c:	29c08069 	st.d	$r9,$r3,32(0x20)
  210860:	6c004ca6 	bgeu	$r5,$r6,76(0x4c) # 2108ac <_ZN4core3str19slice_error_fail_rt17h0e3b58a278516a94E+0x90>
  210864:	5000b400 	b	180(0xb4) # 210918 <_ZN4core3str19slice_error_fail_rt17h0e3b58a278516a94E+0xfc>
  210868:	2803fc8a 	ld.b	$r10,$r4,255(0xff)
  21086c:	64000d2a 	bge	$r9,$r10,12(0xc) # 210878 <_ZN4core3str19slice_error_fail_rt17h0e3b58a278516a94E+0x5c>
  210870:	0383fc09 	ori	$r9,$r0,0xff
  210874:	50001800 	b	24(0x18) # 21088c <_ZN4core3str19slice_error_fail_rt17h0e3b58a278516a94E+0x70>
  210878:	2803f88a 	ld.b	$r10,$r4,254(0xfe)
  21087c:	64000d2a 	bge	$r9,$r10,12(0xc) # 210888 <_ZN4core3str19slice_error_fail_rt17h0e3b58a278516a94E+0x6c>
  210880:	0383f809 	ori	$r9,$r0,0xfe
  210884:	50000800 	b	8(0x8) # 21088c <_ZN4core3str19slice_error_fail_rt17h0e3b58a278516a94E+0x70>
  210888:	0383f409 	ori	$r9,$r0,0xfd
  21088c:	29c06069 	st.d	$r9,$r3,24(0x18)
  210890:	29c04064 	st.d	$r4,$r3,16(0x10)
  210894:	0380140a 	ori	$r10,$r0,0x5
  210898:	1a0000c9 	pcalau12i	$r9,6(0x6)
  21089c:	02f24529 	addi.d	$r9,$r9,-879(0xc91)
  2108a0:	29c0a06a 	st.d	$r10,$r3,40(0x28)
  2108a4:	29c08069 	st.d	$r9,$r3,32(0x20)
  2108a8:	680070a6 	bltu	$r5,$r6,112(0x70) # 210918 <_ZN4core3str19slice_error_fail_rt17h0e3b58a278516a94E+0xfc>
  2108ac:	68006ca7 	bltu	$r5,$r7,108(0x6c) # 210918 <_ZN4core3str19slice_error_fail_rt17h0e3b58a278516a94E+0xfc>
  2108b0:	6c00e4e6 	bgeu	$r7,$r6,228(0xe4) # 210994 <_ZN4core3str19slice_error_fail_rt17h0e3b58a278516a94E+0x178>
  2108b4:	29c1c060 	st.d	$r0,$r3,112(0x70)
  2108b8:	1a000104 	pcalau12i	$r4,8(0x8)
  2108bc:	02c92084 	addi.d	$r4,$r4,584(0x248)
  2108c0:	29c14064 	st.d	$r4,$r3,80(0x50)
  2108c4:	03801004 	ori	$r4,$r0,0x4
  2108c8:	29c16064 	st.d	$r4,$r3,88(0x58)
  2108cc:	29c1a064 	st.d	$r4,$r3,104(0x68)
  2108d0:	02c20064 	addi.d	$r4,$r3,128(0x80)
  2108d4:	29c18064 	st.d	$r4,$r3,96(0x60)
  2108d8:	02c08064 	addi.d	$r4,$r3,32(0x20)
  2108dc:	29c2c064 	st.d	$r4,$r3,176(0xb0)
  2108e0:	1bffff84 	pcalau12i	$r4,-4(0xffffc)
  2108e4:	02c19084 	addi.d	$r4,$r4,100(0x64)
  2108e8:	29c2e064 	st.d	$r4,$r3,184(0xb8)
  2108ec:	29c2a064 	st.d	$r4,$r3,168(0xa8)
  2108f0:	02c04064 	addi.d	$r4,$r3,16(0x10)
  2108f4:	29c28064 	st.d	$r4,$r3,160(0xa0)
  2108f8:	02c02064 	addi.d	$r4,$r3,8(0x8)
  2108fc:	29c24064 	st.d	$r4,$r3,144(0x90)
  210900:	1bffffe4 	pcalau12i	$r4,-1(0xfffff)
  210904:	02cf4084 	addi.d	$r4,$r4,976(0x3d0)
  210908:	29c26064 	st.d	$r4,$r3,152(0x98)
  21090c:	29c22064 	st.d	$r4,$r3,136(0x88)
  210910:	02c00064 	addi.d	$r4,$r3,0
  210914:	50006c00 	b	108(0x6c) # 210980 <_ZN4core3str19slice_error_fail_rt17h0e3b58a278516a94E+0x164>
  210918:	001298a4 	sltu	$r4,$r5,$r6
  21091c:	001390e5 	masknez	$r5,$r7,$r4
  210920:	001310c4 	maskeqz	$r4,$r6,$r4
  210924:	00151484 	or	$r4,$r4,$r5
  210928:	29c10064 	st.d	$r4,$r3,64(0x40)
  21092c:	29c1c060 	st.d	$r0,$r3,112(0x70)
  210930:	1a000104 	pcalau12i	$r4,8(0x8)
  210934:	02ca2084 	addi.d	$r4,$r4,648(0x288)
  210938:	29c14064 	st.d	$r4,$r3,80(0x50)
  21093c:	03800c04 	ori	$r4,$r0,0x3
  210940:	29c16064 	st.d	$r4,$r3,88(0x58)
  210944:	29c1a064 	st.d	$r4,$r3,104(0x68)
  210948:	02c20064 	addi.d	$r4,$r3,128(0x80)
  21094c:	29c18064 	st.d	$r4,$r3,96(0x60)
  210950:	02c08064 	addi.d	$r4,$r3,32(0x20)
  210954:	29c28064 	st.d	$r4,$r3,160(0xa0)
  210958:	1bffff84 	pcalau12i	$r4,-4(0xffffc)
  21095c:	02c19084 	addi.d	$r4,$r4,100(0x64)
  210960:	29c2a064 	st.d	$r4,$r3,168(0xa8)
  210964:	29c26064 	st.d	$r4,$r3,152(0x98)
  210968:	02c04064 	addi.d	$r4,$r3,16(0x10)
  21096c:	29c24064 	st.d	$r4,$r3,144(0x90)
  210970:	1bffffe4 	pcalau12i	$r4,-1(0xfffff)
  210974:	02cf4084 	addi.d	$r4,$r4,976(0x3d0)
  210978:	29c22064 	st.d	$r4,$r3,136(0x88)
  21097c:	02c10064 	addi.d	$r4,$r3,64(0x40)
  210980:	29c20064 	st.d	$r4,$r3,128(0x80)
  210984:	02c14064 	addi.d	$r4,$r3,80(0x50)
  210988:	00150105 	move	$r5,$r8
  21098c:	57fa53ff 	bl	-1456(0xffffa50) # 2103dc <_ZN4core9panicking9panic_fmt17ha745c27c594dd0a5E>
  210990:	38600400 	amswap.w	$r0,$r1,$r0
  210994:	40001cc0 	beqz	$r6,28(0x1c) # 2109b0 <_ZN4core3str19slice_error_fail_rt17h0e3b58a278516a94E+0x194>
  210998:	6c0014c5 	bgeu	$r6,$r5,20(0x14) # 2109ac <_ZN4core3str19slice_error_fail_rt17h0e3b58a278516a94E+0x190>
  21099c:	38001889 	ldx.b	$r9,$r4,$r6
  2109a0:	02bf000a 	addi.w	$r10,$r0,-64(0xfc0)
  2109a4:	64000d2a 	bge	$r9,$r10,12(0xc) # 2109b0 <_ZN4core3str19slice_error_fail_rt17h0e3b58a278516a94E+0x194>
  2109a8:	50000c00 	b	12(0xc) # 2109b4 <_ZN4core3str19slice_error_fail_rt17h0e3b58a278516a94E+0x198>
  2109ac:	5c0008c5 	bne	$r6,$r5,8(0x8) # 2109b4 <_ZN4core3str19slice_error_fail_rt17h0e3b58a278516a94E+0x198>
  2109b0:	001500e6 	move	$r6,$r7
  2109b4:	29c0c066 	st.d	$r6,$r3,48(0x30)
  2109b8:	001500a7 	move	$r7,$r5
  2109bc:	6c0068c5 	bgeu	$r6,$r5,104(0x68) # 210a24 <_ZN4core3str19slice_error_fail_rt17h0e3b58a278516a94E+0x208>
  2109c0:	02fff4c7 	addi.d	$r7,$r6,-3(0xffd)
  2109c4:	00129cc9 	sltu	$r9,$r6,$r7
  2109c8:	0013a4e7 	masknez	$r7,$r7,$r9
  2109cc:	00132409 	maskeqz	$r9,$r0,$r9
  2109d0:	00151d27 	or	$r7,$r9,$r7
  2109d4:	02c004c9 	addi.d	$r9,$r6,1(0x1)
  2109d8:	6c001d27 	bgeu	$r9,$r7,28(0x1c) # 2109f4 <_ZN4core3str19slice_error_fail_rt17h0e3b58a278516a94E+0x1d8>
  2109dc:	1a000104 	pcalau12i	$r4,8(0x8)
  2109e0:	02cae086 	addi.d	$r6,$r4,696(0x2b8)
  2109e4:	001500e4 	move	$r4,$r7
  2109e8:	00150125 	move	$r5,$r9
  2109ec:	57fa8bff 	bl	-1400(0xffffa88) # 210474 <_ZN4core5slice5index22slice_index_order_fail17h463cb24654d29f77E>
  2109f0:	38600400 	amswap.w	$r0,$r1,$r0
  2109f4:	00109c8a 	add.d	$r10,$r4,$r7
  2109f8:	0010a489 	add.d	$r9,$r4,$r9
  2109fc:	0011a929 	sub.d	$r9,$r9,$r10
  210a00:	0010988a 	add.d	$r10,$r4,$r6
  210a04:	02bf0006 	addi.w	$r6,$r0,-64(0xfc0)
  210a08:	40001920 	beqz	$r9,24(0x18) # 210a20 <_ZN4core3str19slice_error_fail_rt17h0e3b58a278516a94E+0x204>
  210a0c:	02fffd4b 	addi.d	$r11,$r10,-1(0xfff)
  210a10:	02fffd29 	addi.d	$r9,$r9,-1(0xfff)
  210a14:	2800014c 	ld.b	$r12,$r10,0
  210a18:	0015016a 	move	$r10,$r11
  210a1c:	63ffed86 	blt	$r12,$r6,-20(0x3ffec) # 210a08 <_ZN4core3str19slice_error_fail_rt17h0e3b58a278516a94E+0x1ec>
  210a20:	00109d27 	add.d	$r7,$r9,$r7
  210a24:	40002ce0 	beqz	$r7,44(0x2c) # 210a50 <_ZN4core3str19slice_error_fail_rt17h0e3b58a278516a94E+0x234>
  210a28:	6c0020e5 	bgeu	$r7,$r5,32(0x20) # 210a48 <_ZN4core3str19slice_error_fail_rt17h0e3b58a278516a94E+0x22c>
  210a2c:	38001c86 	ldx.b	$r6,$r4,$r7
  210a30:	02befc09 	addi.w	$r9,$r0,-65(0xfbf)
  210a34:	60001926 	blt	$r9,$r6,24(0x18) # 210a4c <_ZN4core3str19slice_error_fail_rt17h0e3b58a278516a94E+0x230>
  210a38:	001500e6 	move	$r6,$r7
  210a3c:	001500a7 	move	$r7,$r5
  210a40:	57fdd7ff 	bl	-556(0xffffdd4) # 210814 <_ZN4core3str16slice_error_fail17hc0ef9e80b77f6408E>
  210a44:	38600400 	amswap.w	$r0,$r1,$r0
  210a48:	5ffff0a7 	bne	$r5,$r7,-16(0x3fff0) # 210a38 <_ZN4core3str19slice_error_fail_rt17h0e3b58a278516a94E+0x21c>
  210a4c:	00119ca5 	sub.d	$r5,$r5,$r7
  210a50:	44001ca0 	bnez	$r5,28(0x1c) # 210a6c <_ZN4core3str19slice_error_fail_rt17h0e3b58a278516a94E+0x250>
  210a54:	1a0000c4 	pcalau12i	$r4,6(0x6)
  210a58:	02c9c084 	addi.d	$r4,$r4,624(0x270)
  210a5c:	0380ac05 	ori	$r5,$r0,0x2b
  210a60:	00150106 	move	$r6,$r8
  210a64:	57f827ff 	bl	-2012(0xffff824) # 210288 <_ZN4core9panicking5panic17hd6bc259b6eb19bb3E>
  210a68:	38600400 	amswap.w	$r0,$r1,$r0
  210a6c:	00109c84 	add.d	$r4,$r4,$r7
  210a70:	28000086 	ld.b	$r6,$r4,0
  210a74:	02bffc05 	addi.w	$r5,$r0,-1(0xfff)
  210a78:	640014a6 	bge	$r5,$r6,20(0x14) # 210a8c <_ZN4core3str19slice_error_fail_rt17h0e3b58a278516a94E+0x270>
  210a7c:	0343fcc4 	andi	$r4,$r6,0xff
  210a80:	2980f064 	st.w	$r4,$r3,60(0x3c)
  210a84:	03800404 	ori	$r4,$r0,0x1
  210a88:	50009800 	b	152(0x98) # 210b20 <_ZN4core3str19slice_error_fail_rt17h0e3b58a278516a94E+0x304>
  210a8c:	2a000485 	ld.bu	$r5,$r4,1(0x1)
  210a90:	03407cc9 	andi	$r9,$r6,0x1f
  210a94:	02bf7c0a 	addi.w	$r10,$r0,-33(0xfdf)
  210a98:	6c003546 	bgeu	$r10,$r6,52(0x34) # 210acc <_ZN4core3str19slice_error_fail_rt17h0e3b58a278516a94E+0x2b0>
  210a9c:	0340fcaa 	andi	$r10,$r5,0x3f
  210aa0:	2a000885 	ld.bu	$r5,$r4,2(0x2)
  210aa4:	00bf1945 	bstrins.d	$r5,$r10,0x3f,0x6
  210aa8:	02bfc00a 	addi.w	$r10,$r0,-16(0xff0)
  210aac:	680028ca 	bltu	$r6,$r10,40(0x28) # 210ad4 <_ZN4core3str19slice_error_fail_rt17h0e3b58a278516a94E+0x2b8>
  210ab0:	00414926 	slli.d	$r6,$r9,0x12
  210ab4:	14003809 	lu12i.w	$r9,448(0x1c0)
  210ab8:	0014a4c6 	and	$r6,$r6,$r9
  210abc:	2a000c84 	ld.bu	$r4,$r4,3(0x3)
  210ac0:	00bf18a4 	bstrins.d	$r4,$r5,0x3f,0x6
  210ac4:	00151885 	or	$r5,$r4,$r6
  210ac8:	50001400 	b	20(0x14) # 210adc <_ZN4core3str19slice_error_fail_rt17h0e3b58a278516a94E+0x2c0>
  210acc:	00bf1925 	bstrins.d	$r5,$r9,0x3f,0x6
  210ad0:	50000c00 	b	12(0xc) # 210adc <_ZN4core3str19slice_error_fail_rt17h0e3b58a278516a94E+0x2c0>
  210ad4:	00413124 	slli.d	$r4,$r9,0xc
  210ad8:	001510a5 	or	$r5,$r5,$r4
  210adc:	2980f065 	st.w	$r5,$r3,60(0x3c)
  210ae0:	00df00a4 	bstrpick.d	$r4,$r5,0x1f,0x0
  210ae4:	03820005 	ori	$r5,$r0,0x80
  210ae8:	6c000c85 	bgeu	$r4,$r5,12(0xc) # 210af4 <_ZN4core3str19slice_error_fail_rt17h0e3b58a278516a94E+0x2d8>
  210aec:	03800404 	ori	$r4,$r0,0x1
  210af0:	50003000 	b	48(0x30) # 210b20 <_ZN4core3str19slice_error_fail_rt17h0e3b58a278516a94E+0x304>
  210af4:	03a00005 	ori	$r5,$r0,0x800
  210af8:	6c000c85 	bgeu	$r4,$r5,12(0xc) # 210b04 <_ZN4core3str19slice_error_fail_rt17h0e3b58a278516a94E+0x2e8>
  210afc:	03800804 	ori	$r4,$r0,0x2
  210b00:	50002000 	b	32(0x20) # 210b20 <_ZN4core3str19slice_error_fail_rt17h0e3b58a278516a94E+0x304>
  210b04:	14000205 	lu12i.w	$r5,16(0x10)
  210b08:	00129484 	sltu	$r4,$r4,$r5
  210b0c:	03801005 	ori	$r5,$r0,0x4
  210b10:	001390a5 	masknez	$r5,$r5,$r4
  210b14:	03800c06 	ori	$r6,$r0,0x3
  210b18:	001310c4 	maskeqz	$r4,$r6,$r4
  210b1c:	00151484 	or	$r4,$r4,$r5
  210b20:	29c10067 	st.d	$r7,$r3,64(0x40)
  210b24:	00109c84 	add.d	$r4,$r4,$r7
  210b28:	29c12064 	st.d	$r4,$r3,72(0x48)
  210b2c:	29c1c060 	st.d	$r0,$r3,112(0x70)
  210b30:	1a000104 	pcalau12i	$r4,8(0x8)
  210b34:	02c7e084 	addi.d	$r4,$r4,504(0x1f8)
  210b38:	29c14064 	st.d	$r4,$r3,80(0x50)
  210b3c:	03801404 	ori	$r4,$r0,0x5
  210b40:	29c16064 	st.d	$r4,$r3,88(0x58)
  210b44:	29c1a064 	st.d	$r4,$r3,104(0x68)
  210b48:	02c20064 	addi.d	$r4,$r3,128(0x80)
  210b4c:	29c18064 	st.d	$r4,$r3,96(0x60)
  210b50:	02c08064 	addi.d	$r4,$r3,32(0x20)
  210b54:	29c30064 	st.d	$r4,$r3,192(0xc0)
  210b58:	1bffff84 	pcalau12i	$r4,-4(0xffffc)
  210b5c:	02c19084 	addi.d	$r4,$r4,100(0x64)
  210b60:	29c32064 	st.d	$r4,$r3,200(0xc8)
  210b64:	29c2e064 	st.d	$r4,$r3,184(0xb8)
  210b68:	02c04064 	addi.d	$r4,$r3,16(0x10)
  210b6c:	29c2c064 	st.d	$r4,$r3,176(0xb0)
  210b70:	1a000004 	pcalau12i	$r4,0
  210b74:	02f2f084 	addi.d	$r4,$r4,-836(0xcbc)
  210b78:	29c2a064 	st.d	$r4,$r3,168(0xa8)
  210b7c:	02c10064 	addi.d	$r4,$r3,64(0x40)
  210b80:	29c28064 	st.d	$r4,$r3,160(0xa0)
  210b84:	1a000044 	pcalau12i	$r4,2(0x2)
  210b88:	02f3c084 	addi.d	$r4,$r4,-784(0xcf0)
  210b8c:	29c26064 	st.d	$r4,$r3,152(0x98)
  210b90:	02c0f064 	addi.d	$r4,$r3,60(0x3c)
  210b94:	29c24064 	st.d	$r4,$r3,144(0x90)
  210b98:	1bffffe4 	pcalau12i	$r4,-1(0xfffff)
  210b9c:	02cf4084 	addi.d	$r4,$r4,976(0x3d0)
  210ba0:	29c22064 	st.d	$r4,$r3,136(0x88)
  210ba4:	02c0c064 	addi.d	$r4,$r3,48(0x30)
  210ba8:	53fddbff 	b	-552(0xffffdd8) # 210980 <_ZN4core3str19slice_error_fail_rt17h0e3b58a278516a94E+0x164>

0000000000210bac <_ZN4core3ops8function6FnOnce9call_once17h700e2adc563c8093E.llvm.9571667565736584280>:
_ZN4core3ops8function6FnOnce9call_once17h700e2adc563c8093E.llvm.9571667565736584280():
  210bac:	28c00084 	ld.d	$r4,$r4,0
  210bb0:	50000000 	b	0 # 210bb0 <_ZN4core3ops8function6FnOnce9call_once17h700e2adc563c8093E.llvm.9571667565736584280+0x4>

0000000000210bb4 <_ZN69_$LT$core..alloc..layout..LayoutError$u20$as$u20$core..fmt..Debug$GT$3fmt17hab03313358a6d6aaE>:
_ZN69_$LT$core..alloc..layout..LayoutError$u20$as$u20$core..fmt..Debug$GT$3fmt17hab03313358a6d6aaE():
  210bb4:	28c080a4 	ld.d	$r4,$r5,32(0x20)
  210bb8:	28c0a0a5 	ld.d	$r5,$r5,40(0x28)
  210bbc:	28c060a7 	ld.d	$r7,$r5,24(0x18)
  210bc0:	1a0000c5 	pcalau12i	$r5,6(0x6)
  210bc4:	02f434a5 	addi.d	$r5,$r5,-755(0xd0d)
  210bc8:	03802c06 	ori	$r6,$r0,0xb
  210bcc:	4c0000e0 	jirl	$r0,$r7,0

0000000000210bd0 <_ZN42_$LT$$RF$T$u20$as$u20$core..fmt..Debug$GT$3fmt17h2de0ec5ac2e826f2E>:
_ZN42_$LT$$RF$T$u20$as$u20$core..fmt..Debug$GT$3fmt17h2de0ec5ac2e826f2E():
  210bd0:	28c00086 	ld.d	$r6,$r4,0
  210bd4:	28c02084 	ld.d	$r4,$r4,8(0x8)
  210bd8:	28c06087 	ld.d	$r7,$r4,24(0x18)
  210bdc:	001500c4 	move	$r4,$r6
  210be0:	4c0000e0 	jirl	$r0,$r7,0

0000000000210be4 <_ZN4core3fmt5write17hf855db0f875ea3deE>:
_ZN4core3fmt5write17hf855db0f875ea3deE():
  210be4:	02fdc063 	addi.d	$r3,$r3,-144(0xf70)
  210be8:	29c22061 	st.d	$r1,$r3,136(0x88)
  210bec:	29c20076 	st.d	$r22,$r3,128(0x80)
  210bf0:	29c1e077 	st.d	$r23,$r3,120(0x78)
  210bf4:	29c1c078 	st.d	$r24,$r3,112(0x70)
  210bf8:	29c1a079 	st.d	$r25,$r3,104(0x68)
  210bfc:	29c1807a 	st.d	$r26,$r3,96(0x60)
  210c00:	29c1607b 	st.d	$r27,$r3,88(0x58)
  210c04:	29c1407c 	st.d	$r28,$r3,80(0x50)
  210c08:	29c1207d 	st.d	$r29,$r3,72(0x48)
  210c0c:	001500d6 	move	$r22,$r6
  210c10:	03800c06 	ori	$r6,$r0,0x3
  210c14:	29010066 	st.b	$r6,$r3,64(0x40)
  210c18:	03808006 	ori	$r6,$r0,0x20
  210c1c:	29c0e066 	st.d	$r6,$r3,56(0x38)
  210c20:	29c0c065 	st.d	$r5,$r3,48(0x30)
  210c24:	29c0a064 	st.d	$r4,$r3,40(0x28)
  210c28:	29c06060 	st.d	$r0,$r3,24(0x18)
  210c2c:	29c02060 	st.d	$r0,$r3,8(0x8)
  210c30:	28c082c5 	ld.d	$r5,$r22,32(0x20)
  210c34:	400124a0 	beqz	$r5,292(0x124) # 210d58 <_ZN4core3fmt5write17hf855db0f875ea3deE+0x174>
  210c38:	28c0a2c4 	ld.d	$r4,$r22,40(0x28)
  210c3c:	40019880 	beqz	$r4,408(0x198) # 210dd4 <_ZN4core3fmt5write17hf855db0f875ea3deE+0x1f0>
  210c40:	02c060b9 	addi.d	$r25,$r5,24(0x18)
  210c44:	0380e005 	ori	$r5,$r0,0x38
  210c48:	001d949a 	mul.d	$r26,$r4,$r5
  210c4c:	28c002c5 	ld.d	$r5,$r22,0
  210c50:	02c020bb 	addi.d	$r27,$r5,8(0x8)
  210c54:	02fffc84 	addi.d	$r4,$r4,-1(0xfff)
  210c58:	00fc0084 	bstrpick.d	$r4,$r4,0x3c,0x0
  210c5c:	02c00498 	addi.d	$r24,$r4,1(0x1)
  210c60:	0380041c 	ori	$r28,$r0,0x1
  210c64:	02c02077 	addi.d	$r23,$r3,8(0x8)
  210c68:	1a000024 	pcalau12i	$r4,1(0x1)
  210c6c:	02eeb09d 	addi.d	$r29,$r4,-1108(0xbac)
  210c70:	28c00366 	ld.d	$r6,$r27,0
  210c74:	40001cc0 	beqz	$r6,28(0x1c) # 210c90 <_ZN4core3fmt5write17hf855db0f875ea3deE+0xac>
  210c78:	28c0c064 	ld.d	$r4,$r3,48(0x30)
  210c7c:	28c06087 	ld.d	$r7,$r4,24(0x18)
  210c80:	28ffe365 	ld.d	$r5,$r27,-8(0xff8)
  210c84:	28c0a064 	ld.d	$r4,$r3,40(0x28)
  210c88:	4c0000e1 	jirl	$r1,$r7,0
  210c8c:	44017c80 	bnez	$r4,380(0x17c) # 210e08 <_ZN4core3fmt5write17hf855db0f875ea3deE+0x224>
  210c90:	28c042c5 	ld.d	$r5,$r22,16(0x10)
  210c94:	28804324 	ld.w	$r4,$r25,16(0x10)
  210c98:	2980e064 	st.w	$r4,$r3,56(0x38)
  210c9c:	28006324 	ld.b	$r4,$r25,24(0x18)
  210ca0:	29010064 	st.b	$r4,$r3,64(0x40)
  210ca4:	28805324 	ld.w	$r4,$r25,20(0x14)
  210ca8:	2980f064 	st.w	$r4,$r3,60(0x3c)
  210cac:	28c00324 	ld.d	$r4,$r25,0
  210cb0:	28ffe326 	ld.d	$r6,$r25,-8(0xff8)
  210cb4:	400028c0 	beqz	$r6,40(0x28) # 210cdc <_ZN4core3fmt5write17hf855db0f875ea3deE+0xf8>
  210cb8:	5c0010dc 	bne	$r6,$r28,16(0x10) # 210cc8 <_ZN4core3fmt5write17hf855db0f875ea3deE+0xe4>
  210cbc:	002d9486 	alsl.d	$r6,$r4,$r5,0x4
  210cc0:	28c020c6 	ld.d	$r6,$r6,8(0x8)
  210cc4:	58000cdd 	beq	$r6,$r29,12(0xc) # 210cd0 <_ZN4core3fmt5write17hf855db0f875ea3deE+0xec>
  210cc8:	00150006 	move	$r6,$r0
  210ccc:	50001400 	b	20(0x14) # 210ce0 <_ZN4core3fmt5write17hf855db0f875ea3deE+0xfc>
  210cd0:	00411084 	slli.d	$r4,$r4,0x4
  210cd4:	380c10a4 	ldx.d	$r4,$r5,$r4
  210cd8:	28c00084 	ld.d	$r4,$r4,0
  210cdc:	00150386 	move	$r6,$r28
  210ce0:	29c04064 	st.d	$r4,$r3,16(0x10)
  210ce4:	29c02066 	st.d	$r6,$r3,8(0x8)
  210ce8:	28ffc324 	ld.d	$r4,$r25,-16(0xff0)
  210cec:	28ffa326 	ld.d	$r6,$r25,-24(0xfe8)
  210cf0:	400028c0 	beqz	$r6,40(0x28) # 210d18 <_ZN4core3fmt5write17hf855db0f875ea3deE+0x134>
  210cf4:	5c0010dc 	bne	$r6,$r28,16(0x10) # 210d04 <_ZN4core3fmt5write17hf855db0f875ea3deE+0x120>
  210cf8:	002d9486 	alsl.d	$r6,$r4,$r5,0x4
  210cfc:	28c020c6 	ld.d	$r6,$r6,8(0x8)
  210d00:	58000cdd 	beq	$r6,$r29,12(0xc) # 210d0c <_ZN4core3fmt5write17hf855db0f875ea3deE+0x128>
  210d04:	00150006 	move	$r6,$r0
  210d08:	50001400 	b	20(0x14) # 210d1c <_ZN4core3fmt5write17hf855db0f875ea3deE+0x138>
  210d0c:	00411084 	slli.d	$r4,$r4,0x4
  210d10:	380c10a4 	ldx.d	$r4,$r5,$r4
  210d14:	28c00084 	ld.d	$r4,$r4,0
  210d18:	00150386 	move	$r6,$r28
  210d1c:	29c08064 	st.d	$r4,$r3,32(0x20)
  210d20:	29c06066 	st.d	$r6,$r3,24(0x18)
  210d24:	28c02326 	ld.d	$r6,$r25,8(0x8)
  210d28:	004110c4 	slli.d	$r4,$r6,0x4
  210d2c:	380c10a4 	ldx.d	$r4,$r5,$r4
  210d30:	002d94c5 	alsl.d	$r5,$r6,$r5,0x4
  210d34:	28c020a6 	ld.d	$r6,$r5,8(0x8)
  210d38:	001502e5 	move	$r5,$r23
  210d3c:	4c0000c1 	jirl	$r1,$r6,0
  210d40:	4400c880 	bnez	$r4,200(0xc8) # 210e08 <_ZN4core3fmt5write17hf855db0f875ea3deE+0x224>
  210d44:	02c0e339 	addi.d	$r25,$r25,56(0x38)
  210d48:	02c0437b 	addi.d	$r27,$r27,16(0x10)
  210d4c:	02ff235a 	addi.d	$r26,$r26,-56(0xfc8)
  210d50:	47ff235f 	bnez	$r26,-224(0x7fff20) # 210c70 <_ZN4core3fmt5write17hf855db0f875ea3deE+0x8c>
  210d54:	50007400 	b	116(0x74) # 210dc8 <_ZN4core3fmt5write17hf855db0f875ea3deE+0x1e4>
  210d58:	28c062c4 	ld.d	$r4,$r22,24(0x18)
  210d5c:	40007880 	beqz	$r4,120(0x78) # 210dd4 <_ZN4core3fmt5write17hf855db0f875ea3deE+0x1f0>
  210d60:	28c042c5 	ld.d	$r5,$r22,16(0x10)
  210d64:	00411099 	slli.d	$r25,$r4,0x4
  210d68:	02c020ba 	addi.d	$r26,$r5,8(0x8)
  210d6c:	28c002c5 	ld.d	$r5,$r22,0
  210d70:	02c020bb 	addi.d	$r27,$r5,8(0x8)
  210d74:	02fffc84 	addi.d	$r4,$r4,-1(0xfff)
  210d78:	00fb0084 	bstrpick.d	$r4,$r4,0x3b,0x0
  210d7c:	02c00498 	addi.d	$r24,$r4,1(0x1)
  210d80:	02c02077 	addi.d	$r23,$r3,8(0x8)
  210d84:	28c00366 	ld.d	$r6,$r27,0
  210d88:	40001cc0 	beqz	$r6,28(0x1c) # 210da4 <_ZN4core3fmt5write17hf855db0f875ea3deE+0x1c0>
  210d8c:	28c0c064 	ld.d	$r4,$r3,48(0x30)
  210d90:	28c06087 	ld.d	$r7,$r4,24(0x18)
  210d94:	28ffe365 	ld.d	$r5,$r27,-8(0xff8)
  210d98:	28c0a064 	ld.d	$r4,$r3,40(0x28)
  210d9c:	4c0000e1 	jirl	$r1,$r7,0
  210da0:	44006880 	bnez	$r4,104(0x68) # 210e08 <_ZN4core3fmt5write17hf855db0f875ea3deE+0x224>
  210da4:	28ffe344 	ld.d	$r4,$r26,-8(0xff8)
  210da8:	28c00346 	ld.d	$r6,$r26,0
  210dac:	001502e5 	move	$r5,$r23
  210db0:	4c0000c1 	jirl	$r1,$r6,0
  210db4:	44005480 	bnez	$r4,84(0x54) # 210e08 <_ZN4core3fmt5write17hf855db0f875ea3deE+0x224>
  210db8:	02c0435a 	addi.d	$r26,$r26,16(0x10)
  210dbc:	02c0437b 	addi.d	$r27,$r27,16(0x10)
  210dc0:	02ffc339 	addi.d	$r25,$r25,-16(0xff0)
  210dc4:	47ffc33f 	bnez	$r25,-64(0x7fffc0) # 210d84 <_ZN4core3fmt5write17hf855db0f875ea3deE+0x1a0>
  210dc8:	28c022c4 	ld.d	$r4,$r22,8(0x8)
  210dcc:	68001704 	bltu	$r24,$r4,20(0x14) # 210de0 <_ZN4core3fmt5write17hf855db0f875ea3deE+0x1fc>
  210dd0:	50004000 	b	64(0x40) # 210e10 <_ZN4core3fmt5write17hf855db0f875ea3deE+0x22c>
  210dd4:	00150018 	move	$r24,$r0
  210dd8:	28c022c4 	ld.d	$r4,$r22,8(0x8)
  210ddc:	6c003704 	bgeu	$r24,$r4,52(0x34) # 210e10 <_ZN4core3fmt5write17hf855db0f875ea3deE+0x22c>
  210de0:	28c002c4 	ld.d	$r4,$r22,0
  210de4:	00411305 	slli.d	$r5,$r24,0x4
  210de8:	380c1485 	ldx.d	$r5,$r4,$r5
  210dec:	002d9304 	alsl.d	$r4,$r24,$r4,0x4
  210df0:	28c02086 	ld.d	$r6,$r4,8(0x8)
  210df4:	28c0c064 	ld.d	$r4,$r3,48(0x30)
  210df8:	28c06087 	ld.d	$r7,$r4,24(0x18)
  210dfc:	28c0a064 	ld.d	$r4,$r3,40(0x28)
  210e00:	4c0000e1 	jirl	$r1,$r7,0
  210e04:	40000c80 	beqz	$r4,12(0xc) # 210e10 <_ZN4core3fmt5write17hf855db0f875ea3deE+0x22c>
  210e08:	03800404 	ori	$r4,$r0,0x1
  210e0c:	50000800 	b	8(0x8) # 210e14 <_ZN4core3fmt5write17hf855db0f875ea3deE+0x230>
  210e10:	00150004 	move	$r4,$r0
  210e14:	28c1207d 	ld.d	$r29,$r3,72(0x48)
  210e18:	28c1407c 	ld.d	$r28,$r3,80(0x50)
  210e1c:	28c1607b 	ld.d	$r27,$r3,88(0x58)
  210e20:	28c1807a 	ld.d	$r26,$r3,96(0x60)
  210e24:	28c1a079 	ld.d	$r25,$r3,104(0x68)
  210e28:	28c1c078 	ld.d	$r24,$r3,112(0x70)
  210e2c:	28c1e077 	ld.d	$r23,$r3,120(0x78)
  210e30:	28c20076 	ld.d	$r22,$r3,128(0x80)
  210e34:	28c22061 	ld.d	$r1,$r3,136(0x88)
  210e38:	02c24063 	addi.d	$r3,$r3,144(0x90)
  210e3c:	4c000020 	jirl	$r0,$r1,0

0000000000210e40 <_ZN59_$LT$core..fmt..Arguments$u20$as$u20$core..fmt..Display$GT$3fmt17hbd216ba504bfd519E>:
_ZN59_$LT$core..fmt..Arguments$u20$as$u20$core..fmt..Display$GT$3fmt17hbd216ba504bfd519E():
  210e40:	00150086 	move	$r6,$r4
  210e44:	28c0a0a7 	ld.d	$r7,$r5,40(0x28)
  210e48:	28c080a4 	ld.d	$r4,$r5,32(0x20)
  210e4c:	001500e5 	move	$r5,$r7
  210e50:	53fd97ff 	b	-620(0xffffd94) # 210be4 <_ZN4core3fmt5write17hf855db0f875ea3deE>

0000000000210e54 <_ZN4core3fmt9Formatter12pad_integral17hfdb629c44e553f8dE>:
_ZN4core3fmt9Formatter12pad_integral17hfdb629c44e553f8dE():
  210e54:	02fe4063 	addi.d	$r3,$r3,-112(0xf90)
  210e58:	29c1a061 	st.d	$r1,$r3,104(0x68)
  210e5c:	29c18076 	st.d	$r22,$r3,96(0x60)
  210e60:	29c16077 	st.d	$r23,$r3,88(0x58)
  210e64:	29c14078 	st.d	$r24,$r3,80(0x50)
  210e68:	29c12079 	st.d	$r25,$r3,72(0x48)
  210e6c:	29c1007a 	st.d	$r26,$r3,64(0x40)
  210e70:	29c0e07b 	st.d	$r27,$r3,56(0x38)
  210e74:	29c0c07c 	st.d	$r28,$r3,48(0x30)
  210e78:	29c0a07d 	st.d	$r29,$r3,40(0x28)
  210e7c:	29c0807e 	st.d	$r30,$r3,32(0x20)
  210e80:	29c0607f 	st.d	$r31,$r3,24(0x18)
  210e84:	00150116 	move	$r22,$r8
  210e88:	001500fd 	move	$r29,$r7
  210e8c:	001500d8 	move	$r24,$r6
  210e90:	001500ba 	move	$r26,$r5
  210e94:	00150099 	move	$r25,$r4
  210e98:	2a80d084 	ld.wu	$r4,$r4,52(0x34)
  210e9c:	03400487 	andi	$r7,$r4,0x1
  210ea0:	024004e6 	sltui	$r6,$r7,1(0x1)
  210ea4:	0380ac05 	ori	$r5,$r0,0x2b
  210ea8:	001398a5 	masknez	$r5,$r5,$r6
  210eac:	14002208 	lu12i.w	$r8,272(0x110)
  210eb0:	00131906 	maskeqz	$r6,$r8,$r6
  210eb4:	0010d8ff 	add.d	$r31,$r7,$r22
  210eb8:	03401087 	andi	$r7,$r4,0x4
  210ebc:	440018e0 	bnez	$r7,24(0x18) # 210ed4 <_ZN4core3fmt9Formatter12pad_integral17hfdb629c44e553f8dE+0x80>
  210ec0:	0015001a 	move	$r26,$r0
  210ec4:	001514dc 	or	$r28,$r6,$r5
  210ec8:	28c00325 	ld.d	$r5,$r25,0
  210ecc:	44004ca0 	bnez	$r5,76(0x4c) # 210f18 <_ZN4core3fmt9Formatter12pad_integral17hfdb629c44e553f8dE+0xc4>
  210ed0:	50008800 	b	136(0x88) # 210f58 <_ZN4core3fmt9Formatter12pad_integral17hfdb629c44e553f8dE+0x104>
  210ed4:	40003300 	beqz	$r24,48(0x30) # 210f04 <_ZN4core3fmt9Formatter12pad_integral17hfdb629c44e553f8dE+0xb0>
  210ed8:	02befc08 	addi.w	$r8,$r0,-65(0xfbf)
  210edc:	00150309 	move	$r9,$r24
  210ee0:	00150007 	move	$r7,$r0
  210ee4:	0015034a 	move	$r10,$r26
  210ee8:	2800014b 	ld.b	$r11,$r10,0
  210eec:	00122d0b 	slt	$r11,$r8,$r11
  210ef0:	0010ace7 	add.d	$r7,$r7,$r11
  210ef4:	02c0054a 	addi.d	$r10,$r10,1(0x1)
  210ef8:	02fffd29 	addi.d	$r9,$r9,-1(0xfff)
  210efc:	47ffed3f 	bnez	$r9,-20(0x7fffec) # 210ee8 <_ZN4core3fmt9Formatter12pad_integral17hfdb629c44e553f8dE+0x94>
  210f00:	50000800 	b	8(0x8) # 210f08 <_ZN4core3fmt9Formatter12pad_integral17hfdb629c44e553f8dE+0xb4>
  210f04:	00150007 	move	$r7,$r0
  210f08:	0010fcff 	add.d	$r31,$r7,$r31
  210f0c:	001514dc 	or	$r28,$r6,$r5
  210f10:	28c00325 	ld.d	$r5,$r25,0
  210f14:	400044a0 	beqz	$r5,68(0x44) # 210f58 <_ZN4core3fmt9Formatter12pad_integral17hfdb629c44e553f8dE+0x104>
  210f18:	28c02337 	ld.d	$r23,$r25,8(0x8)
  210f1c:	6c003ff7 	bgeu	$r31,$r23,60(0x3c) # 210f58 <_ZN4core3fmt9Formatter12pad_integral17hfdb629c44e553f8dE+0x104>
  210f20:	03402084 	andi	$r4,$r4,0x8
  210f24:	29c0407d 	st.d	$r29,$r3,16(0x10)
  210f28:	4400d480 	bnez	$r4,212(0xd4) # 210ffc <_ZN4core3fmt9Formatter12pad_integral17hfdb629c44e553f8dE+0x1a8>
  210f2c:	0011feff 	sub.d	$r31,$r23,$r31
  210f30:	2a00e324 	ld.bu	$r4,$r25,56(0x38)
  210f34:	00410885 	slli.d	$r5,$r4,0x2
  210f38:	1a000086 	pcalau12i	$r6,4(0x4)
  210f3c:	02c320c6 	addi.d	$r6,$r6,200(0xc8)
  210f40:	380818a5 	ldx.w	$r5,$r5,$r6
  210f44:	001098a5 	add.d	$r5,$r5,$r6
  210f48:	4c0000a0 	jirl	$r0,$r5,0
  210f4c:	001503e4 	move	$r4,$r31
  210f50:	0015001f 	move	$r31,$r0
  210f54:	50015400 	b	340(0x154) # 2110a8 <_ZN4core3fmt9Formatter12pad_integral17hfdb629c44e553f8dE+0x254>
  210f58:	28c0a33b 	ld.d	$r27,$r25,40(0x28)
  210f5c:	28c08339 	ld.d	$r25,$r25,32(0x20)
  210f60:	00150324 	move	$r4,$r25
  210f64:	00150365 	move	$r5,$r27
  210f68:	00150386 	move	$r6,$r28
  210f6c:	00150347 	move	$r7,$r26
  210f70:	00150308 	move	$r8,$r24
  210f74:	5401e000 	bl	480(0x1e0) # 211154 <_ZN4core3fmt9Formatter12pad_integral12write_prefix17h90342626b4128f62E>
  210f78:	40004080 	beqz	$r4,64(0x40) # 210fb8 <_ZN4core3fmt9Formatter12pad_integral17hfdb629c44e553f8dE+0x164>
  210f7c:	0380041b 	ori	$r27,$r0,0x1
  210f80:	00150364 	move	$r4,$r27
  210f84:	28c0607f 	ld.d	$r31,$r3,24(0x18)
  210f88:	28c0807e 	ld.d	$r30,$r3,32(0x20)
  210f8c:	28c0a07d 	ld.d	$r29,$r3,40(0x28)
  210f90:	28c0c07c 	ld.d	$r28,$r3,48(0x30)
  210f94:	28c0e07b 	ld.d	$r27,$r3,56(0x38)
  210f98:	28c1007a 	ld.d	$r26,$r3,64(0x40)
  210f9c:	28c12079 	ld.d	$r25,$r3,72(0x48)
  210fa0:	28c14078 	ld.d	$r24,$r3,80(0x50)
  210fa4:	28c16077 	ld.d	$r23,$r3,88(0x58)
  210fa8:	28c18076 	ld.d	$r22,$r3,96(0x60)
  210fac:	28c1a061 	ld.d	$r1,$r3,104(0x68)
  210fb0:	02c1c063 	addi.d	$r3,$r3,112(0x70)
  210fb4:	4c000020 	jirl	$r0,$r1,0
  210fb8:	28c06367 	ld.d	$r7,$r27,24(0x18)
  210fbc:	00150324 	move	$r4,$r25
  210fc0:	001503a5 	move	$r5,$r29
  210fc4:	001502c6 	move	$r6,$r22
  210fc8:	28c0607f 	ld.d	$r31,$r3,24(0x18)
  210fcc:	28c0807e 	ld.d	$r30,$r3,32(0x20)
  210fd0:	28c0a07d 	ld.d	$r29,$r3,40(0x28)
  210fd4:	28c0c07c 	ld.d	$r28,$r3,48(0x30)
  210fd8:	28c0e07b 	ld.d	$r27,$r3,56(0x38)
  210fdc:	28c1007a 	ld.d	$r26,$r3,64(0x40)
  210fe0:	28c12079 	ld.d	$r25,$r3,72(0x48)
  210fe4:	28c14078 	ld.d	$r24,$r3,80(0x50)
  210fe8:	28c16077 	ld.d	$r23,$r3,88(0x58)
  210fec:	28c18076 	ld.d	$r22,$r3,96(0x60)
  210ff0:	28c1a061 	ld.d	$r1,$r3,104(0x68)
  210ff4:	02c1c063 	addi.d	$r3,$r3,112(0x70)
  210ff8:	4c0000e0 	jirl	$r0,$r7,0
  210ffc:	2880c324 	ld.w	$r4,$r25,48(0x30)
  211000:	29c02064 	st.d	$r4,$r3,8(0x8)
  211004:	0380c004 	ori	$r4,$r0,0x30
  211008:	2980c324 	st.w	$r4,$r25,48(0x30)
  21100c:	2800e324 	ld.b	$r4,$r25,56(0x38)
  211010:	29c00064 	st.d	$r4,$r3,0
  211014:	0380041b 	ori	$r27,$r0,0x1
  211018:	2900e33b 	st.b	$r27,$r25,56(0x38)
  21101c:	28c0833d 	ld.d	$r29,$r25,32(0x20)
  211020:	28c0a33e 	ld.d	$r30,$r25,40(0x28)
  211024:	001503a4 	move	$r4,$r29
  211028:	001503c5 	move	$r5,$r30
  21102c:	00150386 	move	$r6,$r28
  211030:	00150347 	move	$r7,$r26
  211034:	00150308 	move	$r8,$r24
  211038:	54011c00 	bl	284(0x11c) # 211154 <_ZN4core3fmt9Formatter12pad_integral12write_prefix17h90342626b4128f62E>
  21103c:	47ff449f 	bnez	$r4,-188(0x7fff44) # 210f80 <_ZN4core3fmt9Formatter12pad_integral17hfdb629c44e553f8dE+0x12c>
  211040:	0011fee4 	sub.d	$r4,$r23,$r31
  211044:	02c00497 	addi.d	$r23,$r4,1(0x1)
  211048:	0380c018 	ori	$r24,$r0,0x30
  21104c:	02fffef7 	addi.d	$r23,$r23,-1(0xfff)
  211050:	40001ee0 	beqz	$r23,28(0x1c) # 21106c <_ZN4core3fmt9Formatter12pad_integral17hfdb629c44e553f8dE+0x218>
  211054:	28c083c6 	ld.d	$r6,$r30,32(0x20)
  211058:	001503a4 	move	$r4,$r29
  21105c:	00150305 	move	$r5,$r24
  211060:	4c0000c1 	jirl	$r1,$r6,0
  211064:	43ffe89f 	beqz	$r4,-24(0x7fffe8) # 21104c <_ZN4core3fmt9Formatter12pad_integral17hfdb629c44e553f8dE+0x1f8>
  211068:	53ff1bff 	b	-232(0xfffff18) # 210f80 <_ZN4core3fmt9Formatter12pad_integral17hfdb629c44e553f8dE+0x12c>
  21106c:	28c063c7 	ld.d	$r7,$r30,24(0x18)
  211070:	001503a4 	move	$r4,$r29
  211074:	28c04065 	ld.d	$r5,$r3,16(0x10)
  211078:	001502c6 	move	$r6,$r22
  21107c:	4c0000e1 	jirl	$r1,$r7,0
  211080:	47ff009f 	bnez	$r4,-256(0x7fff00) # 210f80 <_ZN4core3fmt9Formatter12pad_integral17hfdb629c44e553f8dE+0x12c>
  211084:	28c00064 	ld.d	$r4,$r3,0
  211088:	2900e324 	st.b	$r4,$r25,56(0x38)
  21108c:	28c02064 	ld.d	$r4,$r3,8(0x8)
  211090:	2980c324 	st.w	$r4,$r25,48(0x30)
  211094:	0015001b 	move	$r27,$r0
  211098:	53feebff 	b	-280(0xffffee8) # 210f80 <_ZN4core3fmt9Formatter12pad_integral17hfdb629c44e553f8dE+0x12c>
  21109c:	004507e4 	srli.d	$r4,$r31,0x1
  2110a0:	02c007e5 	addi.d	$r5,$r31,1(0x1)
  2110a4:	004504bf 	srli.d	$r31,$r5,0x1
  2110a8:	02c00497 	addi.d	$r23,$r4,1(0x1)
  2110ac:	2880c33d 	ld.w	$r29,$r25,48(0x30)
  2110b0:	28c0a33e 	ld.d	$r30,$r25,40(0x28)
  2110b4:	28c08339 	ld.d	$r25,$r25,32(0x20)
  2110b8:	0380041b 	ori	$r27,$r0,0x1
  2110bc:	02fffef7 	addi.d	$r23,$r23,-1(0xfff)
  2110c0:	40001ee0 	beqz	$r23,28(0x1c) # 2110dc <_ZN4core3fmt9Formatter12pad_integral17hfdb629c44e553f8dE+0x288>
  2110c4:	28c083c6 	ld.d	$r6,$r30,32(0x20)
  2110c8:	00150324 	move	$r4,$r25
  2110cc:	001503a5 	move	$r5,$r29
  2110d0:	4c0000c1 	jirl	$r1,$r6,0
  2110d4:	43ffe89f 	beqz	$r4,-24(0x7fffe8) # 2110bc <_ZN4core3fmt9Formatter12pad_integral17hfdb629c44e553f8dE+0x268>
  2110d8:	53feabff 	b	-344(0xffffea8) # 210f80 <_ZN4core3fmt9Formatter12pad_integral17hfdb629c44e553f8dE+0x12c>
  2110dc:	00df03a4 	bstrpick.d	$r4,$r29,0x1f,0x0
  2110e0:	14002205 	lu12i.w	$r5,272(0x110)
  2110e4:	5bfe9c85 	beq	$r4,$r5,-356(0x3fe9c) # 210f80 <_ZN4core3fmt9Formatter12pad_integral17hfdb629c44e553f8dE+0x12c>
  2110e8:	00150324 	move	$r4,$r25
  2110ec:	001503c5 	move	$r5,$r30
  2110f0:	00150386 	move	$r6,$r28
  2110f4:	00150347 	move	$r7,$r26
  2110f8:	00150308 	move	$r8,$r24
  2110fc:	54005800 	bl	88(0x58) # 211154 <_ZN4core3fmt9Formatter12pad_integral12write_prefix17h90342626b4128f62E>
  211100:	47fe809f 	bnez	$r4,-384(0x7ffe80) # 210f80 <_ZN4core3fmt9Formatter12pad_integral17hfdb629c44e553f8dE+0x12c>
  211104:	28c063c7 	ld.d	$r7,$r30,24(0x18)
  211108:	00150324 	move	$r4,$r25
  21110c:	28c04065 	ld.d	$r5,$r3,16(0x10)
  211110:	001502c6 	move	$r6,$r22
  211114:	4c0000e1 	jirl	$r1,$r7,0
  211118:	47fe689f 	bnez	$r4,-408(0x7ffe68) # 210f80 <_ZN4core3fmt9Formatter12pad_integral17hfdb629c44e553f8dE+0x12c>
  21111c:	00150016 	move	$r22,$r0
  211120:	58002bf6 	beq	$r31,$r22,40(0x28) # 211148 <_ZN4core3fmt9Formatter12pad_integral17hfdb629c44e553f8dE+0x2f4>
  211124:	28c083c6 	ld.d	$r6,$r30,32(0x20)
  211128:	00150324 	move	$r4,$r25
  21112c:	001503a5 	move	$r5,$r29
  211130:	4c0000c1 	jirl	$r1,$r6,0
  211134:	02c006d6 	addi.d	$r22,$r22,1(0x1)
  211138:	43ffe89f 	beqz	$r4,-24(0x7fffe8) # 211120 <_ZN4core3fmt9Formatter12pad_integral17hfdb629c44e553f8dE+0x2cc>
  21113c:	02fffec4 	addi.d	$r4,$r22,-1(0xfff)
  211140:	0012fc9b 	sltu	$r27,$r4,$r31
  211144:	53fe3fff 	b	-452(0xffffe3c) # 210f80 <_ZN4core3fmt9Formatter12pad_integral17hfdb629c44e553f8dE+0x12c>
  211148:	001503e4 	move	$r4,$r31
  21114c:	0012fffb 	sltu	$r27,$r31,$r31
  211150:	53fe33ff 	b	-464(0xffffe30) # 210f80 <_ZN4core3fmt9Formatter12pad_integral17hfdb629c44e553f8dE+0x12c>

0000000000211154 <_ZN4core3fmt9Formatter12pad_integral12write_prefix17h90342626b4128f62E>:
_ZN4core3fmt9Formatter12pad_integral12write_prefix17h90342626b4128f62E():
  211154:	02ff4063 	addi.d	$r3,$r3,-48(0xfd0)
  211158:	29c0a061 	st.d	$r1,$r3,40(0x28)
  21115c:	29c08076 	st.d	$r22,$r3,32(0x20)
  211160:	29c06077 	st.d	$r23,$r3,24(0x18)
  211164:	29c04078 	st.d	$r24,$r3,16(0x10)
  211168:	29c02079 	st.d	$r25,$r3,8(0x8)
  21116c:	00150116 	move	$r22,$r8
  211170:	001500f7 	move	$r23,$r7
  211174:	001500b9 	move	$r25,$r5
  211178:	00150098 	move	$r24,$r4
  21117c:	00df00c4 	bstrpick.d	$r4,$r6,0x1f,0x0
  211180:	14002205 	lu12i.w	$r5,272(0x110)
  211184:	58002085 	beq	$r4,$r5,32(0x20) # 2111a4 <_ZN4core3fmt9Formatter12pad_integral12write_prefix17h90342626b4128f62E+0x50>
  211188:	28c08327 	ld.d	$r7,$r25,32(0x20)
  21118c:	00150304 	move	$r4,$r24
  211190:	001500c5 	move	$r5,$r6
  211194:	4c0000e1 	jirl	$r1,$r7,0
  211198:	40000c80 	beqz	$r4,12(0xc) # 2111a4 <_ZN4core3fmt9Formatter12pad_integral12write_prefix17h90342626b4128f62E+0x50>
  21119c:	03800404 	ori	$r4,$r0,0x1
  2111a0:	50003800 	b	56(0x38) # 2111d8 <_ZN4core3fmt9Formatter12pad_integral12write_prefix17h90342626b4128f62E+0x84>
  2111a4:	400032e0 	beqz	$r23,48(0x30) # 2111d4 <_ZN4core3fmt9Formatter12pad_integral12write_prefix17h90342626b4128f62E+0x80>
  2111a8:	28c06327 	ld.d	$r7,$r25,24(0x18)
  2111ac:	00150304 	move	$r4,$r24
  2111b0:	001502e5 	move	$r5,$r23
  2111b4:	001502c6 	move	$r6,$r22
  2111b8:	28c02079 	ld.d	$r25,$r3,8(0x8)
  2111bc:	28c04078 	ld.d	$r24,$r3,16(0x10)
  2111c0:	28c06077 	ld.d	$r23,$r3,24(0x18)
  2111c4:	28c08076 	ld.d	$r22,$r3,32(0x20)
  2111c8:	28c0a061 	ld.d	$r1,$r3,40(0x28)
  2111cc:	02c0c063 	addi.d	$r3,$r3,48(0x30)
  2111d0:	4c0000e0 	jirl	$r0,$r7,0
  2111d4:	00150004 	move	$r4,$r0
  2111d8:	28c02079 	ld.d	$r25,$r3,8(0x8)
  2111dc:	28c04078 	ld.d	$r24,$r3,16(0x10)
  2111e0:	28c06077 	ld.d	$r23,$r3,24(0x18)
  2111e4:	28c08076 	ld.d	$r22,$r3,32(0x20)
  2111e8:	28c0a061 	ld.d	$r1,$r3,40(0x28)
  2111ec:	02c0c063 	addi.d	$r3,$r3,48(0x30)
  2111f0:	4c000020 	jirl	$r0,$r1,0

00000000002111f4 <_ZN4core3fmt9Formatter3pad17h0d87367d3c6ceb71E>:
_ZN4core3fmt9Formatter3pad17h0d87367d3c6ceb71E():
  2111f4:	02fec063 	addi.d	$r3,$r3,-80(0xfb0)
  2111f8:	29c12061 	st.d	$r1,$r3,72(0x48)
  2111fc:	29c10076 	st.d	$r22,$r3,64(0x40)
  211200:	29c0e077 	st.d	$r23,$r3,56(0x38)
  211204:	29c0c078 	st.d	$r24,$r3,48(0x30)
  211208:	29c0a079 	st.d	$r25,$r3,40(0x28)
  21120c:	29c0807a 	st.d	$r26,$r3,32(0x20)
  211210:	29c0607b 	st.d	$r27,$r3,24(0x18)
  211214:	29c0407c 	st.d	$r28,$r3,16(0x10)
  211218:	29c0207d 	st.d	$r29,$r3,8(0x8)
  21121c:	001500d6 	move	$r22,$r6
  211220:	001500b7 	move	$r23,$r5
  211224:	28c04086 	ld.d	$r6,$r4,16(0x10)
  211228:	28c00085 	ld.d	$r5,$r4,0
  21122c:	001518a7 	or	$r7,$r5,$r6
  211230:	400364e0 	beqz	$r7,868(0x364) # 211594 <_ZN4core3fmt9Formatter3pad17h0d87367d3c6ceb71E+0x3a0>
  211234:	4000d0c0 	beqz	$r6,208(0xd0) # 211304 <_ZN4core3fmt9Formatter3pad17h0d87367d3c6ceb71E+0x110>
  211238:	0010dae7 	add.d	$r7,$r23,$r22
  21123c:	28c06088 	ld.d	$r8,$r4,24(0x18)
  211240:	40006100 	beqz	$r8,96(0x60) # 2112a0 <_ZN4core3fmt9Formatter3pad17h0d87367d3c6ceb71E+0xac>
  211244:	02bffc09 	addi.w	$r9,$r0,-1(0xfff)
  211248:	02bf800a 	addi.w	$r10,$r0,-32(0xfe0)
  21124c:	02bfc00b 	addi.w	$r11,$r0,-16(0xff0)
  211250:	00150006 	move	$r6,$r0
  211254:	001502ec 	move	$r12,$r23
  211258:	50001800 	b	24(0x18) # 211270 <_ZN4core3fmt9Formatter3pad17h0d87367d3c6ceb71E+0x7c>
  21125c:	02c005ac 	addi.d	$r12,$r13,1(0x1)
  211260:	0011b58d 	sub.d	$r13,$r12,$r13
  211264:	001099a6 	add.d	$r6,$r13,$r6
  211268:	02fffd08 	addi.d	$r8,$r8,-1(0xfff)
  21126c:	40003d00 	beqz	$r8,60(0x3c) # 2112a8 <_ZN4core3fmt9Formatter3pad17h0d87367d3c6ceb71E+0xb4>
  211270:	58009587 	beq	$r12,$r7,148(0x94) # 211304 <_ZN4core3fmt9Formatter3pad17h0d87367d3c6ceb71E+0x110>
  211274:	0015018d 	move	$r13,$r12
  211278:	2800018c 	ld.b	$r12,$r12,0
  21127c:	63ffe12c 	blt	$r9,$r12,-32(0x3ffe0) # 21125c <_ZN4core3fmt9Formatter3pad17h0d87367d3c6ceb71E+0x68>
  211280:	6800118a 	bltu	$r12,$r10,16(0x10) # 211290 <_ZN4core3fmt9Formatter3pad17h0d87367d3c6ceb71E+0x9c>
  211284:	6800158b 	bltu	$r12,$r11,20(0x14) # 211298 <_ZN4core3fmt9Formatter3pad17h0d87367d3c6ceb71E+0xa4>
  211288:	02c011ac 	addi.d	$r12,$r13,4(0x4)
  21128c:	53ffd7ff 	b	-44(0xfffffd4) # 211260 <_ZN4core3fmt9Formatter3pad17h0d87367d3c6ceb71E+0x6c>
  211290:	02c009ac 	addi.d	$r12,$r13,2(0x2)
  211294:	53ffcfff 	b	-52(0xfffffcc) # 211260 <_ZN4core3fmt9Formatter3pad17h0d87367d3c6ceb71E+0x6c>
  211298:	02c00dac 	addi.d	$r12,$r13,3(0x3)
  21129c:	53ffc7ff 	b	-60(0xfffffc4) # 211260 <_ZN4core3fmt9Formatter3pad17h0d87367d3c6ceb71E+0x6c>
  2112a0:	00150006 	move	$r6,$r0
  2112a4:	001502ec 	move	$r12,$r23
  2112a8:	58005d87 	beq	$r12,$r7,92(0x5c) # 211304 <_ZN4core3fmt9Formatter3pad17h0d87367d3c6ceb71E+0x110>
  2112ac:	28000187 	ld.b	$r7,$r12,0
  2112b0:	02bffc08 	addi.w	$r8,$r0,-1(0xfff)
  2112b4:	64000d07 	bge	$r8,$r7,12(0xc) # 2112c0 <_ZN4core3fmt9Formatter3pad17h0d87367d3c6ceb71E+0xcc>
  2112b8:	440010c0 	bnez	$r6,16(0x10) # 2112c8 <_ZN4core3fmt9Formatter3pad17h0d87367d3c6ceb71E+0xd4>
  2112bc:	50002800 	b	40(0x28) # 2112e4 <_ZN4core3fmt9Formatter3pad17h0d87367d3c6ceb71E+0xf0>
  2112c0:	02bf8008 	addi.w	$r8,$r0,-32(0xfe0)
  2112c4:	400020c0 	beqz	$r6,32(0x20) # 2112e4 <_ZN4core3fmt9Formatter3pad17h0d87367d3c6ceb71E+0xf0>
  2112c8:	6c0018d6 	bgeu	$r6,$r22,24(0x18) # 2112e0 <_ZN4core3fmt9Formatter3pad17h0d87367d3c6ceb71E+0xec>
  2112cc:	38001ae7 	ldx.b	$r7,$r23,$r6
  2112d0:	02bf0008 	addi.w	$r8,$r0,-64(0xfc0)
  2112d4:	640010e8 	bge	$r7,$r8,16(0x10) # 2112e4 <_ZN4core3fmt9Formatter3pad17h0d87367d3c6ceb71E+0xf0>
  2112d8:	00150007 	move	$r7,$r0
  2112dc:	50000c00 	b	12(0xc) # 2112e8 <_ZN4core3fmt9Formatter3pad17h0d87367d3c6ceb71E+0xf4>
  2112e0:	5ffff8d6 	bne	$r6,$r22,-8(0x3fff8) # 2112d8 <_ZN4core3fmt9Formatter3pad17h0d87367d3c6ceb71E+0xe4>
  2112e4:	001502e7 	move	$r7,$r23
  2112e8:	024004e8 	sltui	$r8,$r7,1(0x1)
  2112ec:	0013a0e7 	masknez	$r7,$r7,$r8
  2112f0:	001322e9 	maskeqz	$r9,$r23,$r8
  2112f4:	00151d37 	or	$r23,$r9,$r7
  2112f8:	0013a0c6 	masknez	$r6,$r6,$r8
  2112fc:	001322c7 	maskeqz	$r7,$r22,$r8
  211300:	001518f6 	or	$r22,$r7,$r6
  211304:	400290a0 	beqz	$r5,656(0x290) # 211594 <_ZN4core3fmt9Formatter3pad17h0d87367d3c6ceb71E+0x3a0>
  211308:	28c02085 	ld.d	$r5,$r4,8(0x8)
  21130c:	03808006 	ori	$r6,$r0,0x20
  211310:	6c0036c6 	bgeu	$r22,$r6,52(0x34) # 211344 <_ZN4core3fmt9Formatter3pad17h0d87367d3c6ceb71E+0x150>
  211314:	4000aac0 	beqz	$r22,168(0xa8) # 2113bc <_ZN4core3fmt9Formatter3pad17h0d87367d3c6ceb71E+0x1c8>
  211318:	02befc07 	addi.w	$r7,$r0,-65(0xfbf)
  21131c:	001502c8 	move	$r8,$r22
  211320:	00150006 	move	$r6,$r0
  211324:	001502e9 	move	$r9,$r23
  211328:	2800012a 	ld.b	$r10,$r9,0
  21132c:	001228ea 	slt	$r10,$r7,$r10
  211330:	0010a8c6 	add.d	$r6,$r6,$r10
  211334:	02c00529 	addi.d	$r9,$r9,1(0x1)
  211338:	02fffd08 	addi.d	$r8,$r8,-1(0xfff)
  21133c:	47ffed1f 	bnez	$r8,-20(0x7fffec) # 211328 <_ZN4core3fmt9Formatter3pad17h0d87367d3c6ceb71E+0x134>
  211340:	50022000 	b	544(0x220) # 211560 <_ZN4core3fmt9Formatter3pad17h0d87367d3c6ceb71E+0x36c>
  211344:	02c01ee6 	addi.d	$r6,$r23,7(0x7)
  211348:	02bfe00a 	addi.w	$r10,$r0,-8(0xff8)
  21134c:	0014a8c7 	and	$r7,$r6,$r10
  211350:	00119eeb 	sub.d	$r11,$r23,$r7
  211354:	0010aec6 	add.d	$r6,$r22,$r11
  211358:	03401cc8 	andi	$r8,$r6,0x7
  21135c:	5c000ee7 	bne	$r23,$r7,12(0xc) # 211368 <_ZN4core3fmt9Formatter3pad17h0d87367d3c6ceb71E+0x174>
  211360:	00150009 	move	$r9,$r0
  211364:	50002800 	b	40(0x28) # 21138c <_ZN4core3fmt9Formatter3pad17h0d87367d3c6ceb71E+0x198>
  211368:	02befc0c 	addi.w	$r12,$r0,-65(0xfbf)
  21136c:	00150009 	move	$r9,$r0
  211370:	001502ed 	move	$r13,$r23
  211374:	280001ae 	ld.b	$r14,$r13,0
  211378:	0012398e 	slt	$r14,$r12,$r14
  21137c:	0010b929 	add.d	$r9,$r9,$r14
  211380:	02c005ad 	addi.d	$r13,$r13,1(0x1)
  211384:	02c0056b 	addi.d	$r11,$r11,1(0x1)
  211388:	47ffed7f 	bnez	$r11,-20(0x7fffec) # 211374 <_ZN4core3fmt9Formatter3pad17h0d87367d3c6ceb71E+0x180>
  21138c:	40003900 	beqz	$r8,56(0x38) # 2113c4 <_ZN4core3fmt9Formatter3pad17h0d87367d3c6ceb71E+0x1d0>
  211390:	0014a8ca 	and	$r10,$r6,$r10
  211394:	0010a8ea 	add.d	$r10,$r7,$r10
  211398:	02befc0c 	addi.w	$r12,$r0,-65(0xfbf)
  21139c:	0015000b 	move	$r11,$r0
  2113a0:	2800014d 	ld.b	$r13,$r10,0
  2113a4:	0012358d 	slt	$r13,$r12,$r13
  2113a8:	0010b56b 	add.d	$r11,$r11,$r13
  2113ac:	02c0054a 	addi.d	$r10,$r10,1(0x1)
  2113b0:	02fffd08 	addi.d	$r8,$r8,-1(0xfff)
  2113b4:	47ffed1f 	bnez	$r8,-20(0x7fffec) # 2113a0 <_ZN4core3fmt9Formatter3pad17h0d87367d3c6ceb71E+0x1ac>
  2113b8:	50001000 	b	16(0x10) # 2113c8 <_ZN4core3fmt9Formatter3pad17h0d87367d3c6ceb71E+0x1d4>
  2113bc:	00150006 	move	$r6,$r0
  2113c0:	5001a000 	b	416(0x1a0) # 211560 <_ZN4core3fmt9Formatter3pad17h0d87367d3c6ceb71E+0x36c>
  2113c4:	0015000b 	move	$r11,$r0
  2113c8:	00450ccd 	srli.d	$r13,$r6,0x3
  2113cc:	0010a566 	add.d	$r6,$r11,$r9
  2113d0:	03830009 	ori	$r9,$r0,0xc0
  2113d4:	50004c00 	b	76(0x4c) # 211420 <_ZN4core3fmt9Formatter3pad17h0d87367d3c6ceb71E+0x22c>
  2113d8:	03400d8f 	andi	$r15,$r12,0x3
  2113dc:	0011b14d 	sub.d	$r13,$r10,$r12
  2113e0:	002d1d87 	alsl.d	$r7,$r12,$r7,0x3
  2113e4:	1401fe0c 	lu12i.w	$r12,4080(0xff0)
  2113e8:	0383fd8c 	ori	$r12,$r12,0xff
  2113ec:	17e01fec 	lu32i.d	$r12,-65281(0xf00ff)
  2113f0:	03003d8c 	lu52i.d	$r12,$r12,15(0xf)
  2113f4:	0014b1d0 	and	$r16,$r14,$r12
  2113f8:	004521ce 	srli.d	$r14,$r14,0x8
  2113fc:	0014b1cc 	and	$r12,$r14,$r12
  211400:	0010c18c 	add.d	$r12,$r12,$r16
  211404:	1400020e 	lu12i.w	$r14,16(0x10)
  211408:	038005ce 	ori	$r14,$r14,0x1
  21140c:	1620002e 	lu32i.d	$r14,65537(0x10001)
  211410:	001db98c 	mul.d	$r12,$r12,$r14
  211414:	0045c18c 	srli.d	$r12,$r12,0x30
  211418:	00109986 	add.d	$r6,$r12,$r6
  21141c:	4400bde0 	bnez	$r15,188(0xbc) # 2114d8 <_ZN4core3fmt9Formatter3pad17h0d87367d3c6ceb71E+0x2e4>
  211420:	400141a0 	beqz	$r13,320(0x140) # 211560 <_ZN4core3fmt9Formatter3pad17h0d87367d3c6ceb71E+0x36c>
  211424:	001501aa 	move	$r10,$r13
  211428:	024301ab 	sltui	$r11,$r13,192(0xc0)
  21142c:	0013ad28 	masknez	$r8,$r9,$r11
  211430:	00132dac 	maskeqz	$r12,$r13,$r11
  211434:	0015218c 	or	$r12,$r12,$r8
  211438:	0343f18d 	andi	$r13,$r12,0xfc
  21143c:	002d1da8 	alsl.d	$r8,$r13,$r7,0x3
  211440:	0015000e 	move	$r14,$r0
  211444:	43ff95bf 	beqz	$r13,-108(0x7fff94) # 2113d8 <_ZN4core3fmt9Formatter3pad17h0d87367d3c6ceb71E+0x1e4>
  211448:	001500ed 	move	$r13,$r7
  21144c:	28c001af 	ld.d	$r15,$r13,0
  211450:	004519f0 	srli.d	$r16,$r15,0x6
  211454:	001401ef 	nor	$r15,$r15,$r0
  211458:	00451def 	srli.d	$r15,$r15,0x7
  21145c:	001541ef 	or	$r15,$r15,$r16
  211460:	14020210 	lu12i.w	$r16,4112(0x1010)
  211464:	03840610 	ori	$r16,$r16,0x101
  211468:	16202030 	lu32i.d	$r16,65793(0x10101)
  21146c:	03004210 	lu52i.d	$r16,$r16,16(0x10)
  211470:	0014c1ef 	and	$r15,$r15,$r16
  211474:	0010b9ee 	add.d	$r14,$r15,$r14
  211478:	28c021af 	ld.d	$r15,$r13,8(0x8)
  21147c:	004519f1 	srli.d	$r17,$r15,0x6
  211480:	001401ef 	nor	$r15,$r15,$r0
  211484:	00451def 	srli.d	$r15,$r15,0x7
  211488:	001545ef 	or	$r15,$r15,$r17
  21148c:	0014c1ef 	and	$r15,$r15,$r16
  211490:	0010b9ee 	add.d	$r14,$r15,$r14
  211494:	28c041af 	ld.d	$r15,$r13,16(0x10)
  211498:	004519f1 	srli.d	$r17,$r15,0x6
  21149c:	001401ef 	nor	$r15,$r15,$r0
  2114a0:	00451def 	srli.d	$r15,$r15,0x7
  2114a4:	001545ef 	or	$r15,$r15,$r17
  2114a8:	0014c1ef 	and	$r15,$r15,$r16
  2114ac:	0010b9ee 	add.d	$r14,$r15,$r14
  2114b0:	28c061af 	ld.d	$r15,$r13,24(0x18)
  2114b4:	004519f1 	srli.d	$r17,$r15,0x6
  2114b8:	001401ef 	nor	$r15,$r15,$r0
  2114bc:	00451def 	srli.d	$r15,$r15,0x7
  2114c0:	001545ef 	or	$r15,$r15,$r17
  2114c4:	0014c1ef 	and	$r15,$r15,$r16
  2114c8:	0010b9ee 	add.d	$r14,$r15,$r14
  2114cc:	02c081ad 	addi.d	$r13,$r13,32(0x20)
  2114d0:	5fff7da8 	bne	$r13,$r8,-132(0x3ff7c) # 21144c <_ZN4core3fmt9Formatter3pad17h0d87367d3c6ceb71E+0x258>
  2114d4:	53ff07ff 	b	-252(0xfffff04) # 2113d8 <_ZN4core3fmt9Formatter3pad17h0d87367d3c6ceb71E+0x1e4>
  2114d8:	0013ad27 	masknez	$r7,$r9,$r11
  2114dc:	00132d49 	maskeqz	$r9,$r10,$r11
  2114e0:	00151d27 	or	$r7,$r9,$r7
  2114e4:	03400ce7 	andi	$r7,$r7,0x3
  2114e8:	00410ce9 	slli.d	$r9,$r7,0x3
  2114ec:	00150007 	move	$r7,$r0
  2114f0:	28c0010a 	ld.d	$r10,$r8,0
  2114f4:	0045194b 	srli.d	$r11,$r10,0x6
  2114f8:	0014014a 	nor	$r10,$r10,$r0
  2114fc:	00451d4a 	srli.d	$r10,$r10,0x7
  211500:	00152d4a 	or	$r10,$r10,$r11
  211504:	1402020b 	lu12i.w	$r11,4112(0x1010)
  211508:	0384056b 	ori	$r11,$r11,0x101
  21150c:	1620202b 	lu32i.d	$r11,65793(0x10101)
  211510:	0300416b 	lu52i.d	$r11,$r11,16(0x10)
  211514:	0014ad4a 	and	$r10,$r10,$r11
  211518:	00109d47 	add.d	$r7,$r10,$r7
  21151c:	02c02108 	addi.d	$r8,$r8,8(0x8)
  211520:	02ffe129 	addi.d	$r9,$r9,-8(0xff8)
  211524:	47ffcd3f 	bnez	$r9,-52(0x7fffcc) # 2114f0 <_ZN4core3fmt9Formatter3pad17h0d87367d3c6ceb71E+0x2fc>
  211528:	1401fe08 	lu12i.w	$r8,4080(0xff0)
  21152c:	0383fd08 	ori	$r8,$r8,0xff
  211530:	17e01fe8 	lu32i.d	$r8,-65281(0xf00ff)
  211534:	03003d08 	lu52i.d	$r8,$r8,15(0xf)
  211538:	0014a0e9 	and	$r9,$r7,$r8
  21153c:	004520e7 	srli.d	$r7,$r7,0x8
  211540:	0014a0e7 	and	$r7,$r7,$r8
  211544:	0010a4e7 	add.d	$r7,$r7,$r9
  211548:	14000208 	lu12i.w	$r8,16(0x10)
  21154c:	03800508 	ori	$r8,$r8,0x1
  211550:	16200028 	lu32i.d	$r8,65537(0x10001)
  211554:	001da0e7 	mul.d	$r7,$r7,$r8
  211558:	0045c0e7 	srli.d	$r7,$r7,0x30
  21155c:	001098e6 	add.d	$r6,$r7,$r6
  211560:	6c0034c5 	bgeu	$r6,$r5,52(0x34) # 211594 <_ZN4core3fmt9Formatter3pad17h0d87367d3c6ceb71E+0x3a0>
  211564:	001198bb 	sub.d	$r27,$r5,$r6
  211568:	2a00e085 	ld.bu	$r5,$r4,56(0x38)
  21156c:	004108a5 	slli.d	$r5,$r5,0x2
  211570:	1a000066 	pcalau12i	$r6,3(0x3)
  211574:	02c360c6 	addi.d	$r6,$r6,216(0xd8)
  211578:	380818a5 	ldx.w	$r5,$r5,$r6
  21157c:	001098a6 	add.d	$r6,$r5,$r6
  211580:	00150005 	move	$r5,$r0
  211584:	4c0000c0 	jirl	$r0,$r6,0
  211588:	00150365 	move	$r5,$r27
  21158c:	0015001b 	move	$r27,$r0
  211590:	50005400 	b	84(0x54) # 2115e4 <_ZN4core3fmt9Formatter3pad17h0d87367d3c6ceb71E+0x3f0>
  211594:	28c08085 	ld.d	$r5,$r4,32(0x20)
  211598:	28c0a084 	ld.d	$r4,$r4,40(0x28)
  21159c:	28c06087 	ld.d	$r7,$r4,24(0x18)
  2115a0:	001500a4 	move	$r4,$r5
  2115a4:	001502e5 	move	$r5,$r23
  2115a8:	001502c6 	move	$r6,$r22
  2115ac:	28c0207d 	ld.d	$r29,$r3,8(0x8)
  2115b0:	28c0407c 	ld.d	$r28,$r3,16(0x10)
  2115b4:	28c0607b 	ld.d	$r27,$r3,24(0x18)
  2115b8:	28c0807a 	ld.d	$r26,$r3,32(0x20)
  2115bc:	28c0a079 	ld.d	$r25,$r3,40(0x28)
  2115c0:	28c0c078 	ld.d	$r24,$r3,48(0x30)
  2115c4:	28c0e077 	ld.d	$r23,$r3,56(0x38)
  2115c8:	28c10076 	ld.d	$r22,$r3,64(0x40)
  2115cc:	28c12061 	ld.d	$r1,$r3,72(0x48)
  2115d0:	02c14063 	addi.d	$r3,$r3,80(0x50)
  2115d4:	4c0000e0 	jirl	$r0,$r7,0
  2115d8:	00450765 	srli.d	$r5,$r27,0x1
  2115dc:	02c00766 	addi.d	$r6,$r27,1(0x1)
  2115e0:	004504db 	srli.d	$r27,$r6,0x1
  2115e4:	02c004bd 	addi.d	$r29,$r5,1(0x1)
  2115e8:	2880c098 	ld.w	$r24,$r4,48(0x30)
  2115ec:	28c0a09c 	ld.d	$r28,$r4,40(0x28)
  2115f0:	28c08099 	ld.d	$r25,$r4,32(0x20)
  2115f4:	0380041a 	ori	$r26,$r0,0x1
  2115f8:	02ffffbd 	addi.d	$r29,$r29,-1(0xfff)
  2115fc:	40001fa0 	beqz	$r29,28(0x1c) # 211618 <_ZN4core3fmt9Formatter3pad17h0d87367d3c6ceb71E+0x424>
  211600:	28c08386 	ld.d	$r6,$r28,32(0x20)
  211604:	00150324 	move	$r4,$r25
  211608:	00150305 	move	$r5,$r24
  21160c:	4c0000c1 	jirl	$r1,$r6,0
  211610:	43ffe89f 	beqz	$r4,-24(0x7fffe8) # 2115f8 <_ZN4core3fmt9Formatter3pad17h0d87367d3c6ceb71E+0x404>
  211614:	50005800 	b	88(0x58) # 21166c <_ZN4core3fmt9Formatter3pad17h0d87367d3c6ceb71E+0x478>
  211618:	00df0304 	bstrpick.d	$r4,$r24,0x1f,0x0
  21161c:	14002205 	lu12i.w	$r5,272(0x110)
  211620:	58004c85 	beq	$r4,$r5,76(0x4c) # 21166c <_ZN4core3fmt9Formatter3pad17h0d87367d3c6ceb71E+0x478>
  211624:	28c06387 	ld.d	$r7,$r28,24(0x18)
  211628:	00150324 	move	$r4,$r25
  21162c:	001502e5 	move	$r5,$r23
  211630:	001502c6 	move	$r6,$r22
  211634:	4c0000e1 	jirl	$r1,$r7,0
  211638:	44003480 	bnez	$r4,52(0x34) # 21166c <_ZN4core3fmt9Formatter3pad17h0d87367d3c6ceb71E+0x478>
  21163c:	00150016 	move	$r22,$r0
  211640:	58002776 	beq	$r27,$r22,36(0x24) # 211664 <_ZN4core3fmt9Formatter3pad17h0d87367d3c6ceb71E+0x470>
  211644:	28c08386 	ld.d	$r6,$r28,32(0x20)
  211648:	00150324 	move	$r4,$r25
  21164c:	00150305 	move	$r5,$r24
  211650:	4c0000c1 	jirl	$r1,$r6,0
  211654:	02c006d6 	addi.d	$r22,$r22,1(0x1)
  211658:	43ffe89f 	beqz	$r4,-24(0x7fffe8) # 211640 <_ZN4core3fmt9Formatter3pad17h0d87367d3c6ceb71E+0x44c>
  21165c:	02fffec4 	addi.d	$r4,$r22,-1(0xfff)
  211660:	50000800 	b	8(0x8) # 211668 <_ZN4core3fmt9Formatter3pad17h0d87367d3c6ceb71E+0x474>
  211664:	00150364 	move	$r4,$r27
  211668:	0012ec9a 	sltu	$r26,$r4,$r27
  21166c:	00150344 	move	$r4,$r26
  211670:	28c0207d 	ld.d	$r29,$r3,8(0x8)
  211674:	28c0407c 	ld.d	$r28,$r3,16(0x10)
  211678:	28c0607b 	ld.d	$r27,$r3,24(0x18)
  21167c:	28c0807a 	ld.d	$r26,$r3,32(0x20)
  211680:	28c0a079 	ld.d	$r25,$r3,40(0x28)
  211684:	28c0c078 	ld.d	$r24,$r3,48(0x30)
  211688:	28c0e077 	ld.d	$r23,$r3,56(0x38)
  21168c:	28c10076 	ld.d	$r22,$r3,64(0x40)
  211690:	28c12061 	ld.d	$r1,$r3,72(0x48)
  211694:	02c14063 	addi.d	$r3,$r3,80(0x50)
  211698:	4c000020 	jirl	$r0,$r1,0

000000000021169c <_ZN4core3fmt9Formatter25debug_tuple_field1_finish17h10568bd546b30080E>:
_ZN4core3fmt9Formatter25debug_tuple_field1_finish17h10568bd546b30080E():
  21169c:	02fd4063 	addi.d	$r3,$r3,-176(0xf50)
  2116a0:	29c2a061 	st.d	$r1,$r3,168(0xa8)
  2116a4:	29c28076 	st.d	$r22,$r3,160(0xa0)
  2116a8:	29c26077 	st.d	$r23,$r3,152(0x98)
  2116ac:	29c24078 	st.d	$r24,$r3,144(0x90)
  2116b0:	29c22079 	st.d	$r25,$r3,136(0x88)
  2116b4:	29c2007a 	st.d	$r26,$r3,128(0x80)
  2116b8:	29c1e07b 	st.d	$r27,$r3,120(0x78)
  2116bc:	29c1c07c 	st.d	$r28,$r3,112(0x70)
  2116c0:	29c1a07d 	st.d	$r29,$r3,104(0x68)
  2116c4:	00150118 	move	$r24,$r8
  2116c8:	001500f9 	move	$r25,$r7
  2116cc:	00150096 	move	$r22,$r4
  2116d0:	28c0809a 	ld.d	$r26,$r4,32(0x20)
  2116d4:	28c0a09b 	ld.d	$r27,$r4,40(0x28)
  2116d8:	28c0637d 	ld.d	$r29,$r27,24(0x18)
  2116dc:	00150344 	move	$r4,$r26
  2116e0:	4c0003a1 	jirl	$r1,$r29,0
  2116e4:	03800417 	ori	$r23,$r0,0x1
  2116e8:	44010880 	bnez	$r4,264(0x108) # 2117f0 <_ZN4core3fmt9Formatter25debug_tuple_field1_finish17h10568bd546b30080E+0x154>
  2116ec:	2a80d2dc 	ld.wu	$r28,$r22,52(0x34)
  2116f0:	03401384 	andi	$r4,$r28,0x4
  2116f4:	44003480 	bnez	$r4,52(0x34) # 211728 <_ZN4core3fmt9Formatter25debug_tuple_field1_finish17h10568bd546b30080E+0x8c>
  2116f8:	1a000084 	pcalau12i	$r4,4(0x4)
  2116fc:	02c98885 	addi.d	$r5,$r4,610(0x262)
  211700:	03800417 	ori	$r23,$r0,0x1
  211704:	00150344 	move	$r4,$r26
  211708:	001502e6 	move	$r6,$r23
  21170c:	4c0003a1 	jirl	$r1,$r29,0
  211710:	4400e080 	bnez	$r4,224(0xe0) # 2117f0 <_ZN4core3fmt9Formatter25debug_tuple_field1_finish17h10568bd546b30080E+0x154>
  211714:	00150324 	move	$r4,$r25
  211718:	001502c5 	move	$r5,$r22
  21171c:	4c000301 	jirl	$r1,$r24,0
  211720:	4000b080 	beqz	$r4,176(0xb0) # 2117d0 <_ZN4core3fmt9Formatter25debug_tuple_field1_finish17h10568bd546b30080E+0x134>
  211724:	5000cc00 	b	204(0xcc) # 2117f0 <_ZN4core3fmt9Formatter25debug_tuple_field1_finish17h10568bd546b30080E+0x154>
  211728:	1a000084 	pcalau12i	$r4,4(0x4)
  21172c:	02c98c85 	addi.d	$r5,$r4,611(0x263)
  211730:	03800806 	ori	$r6,$r0,0x2
  211734:	00150344 	move	$r4,$r26
  211738:	4c0003a1 	jirl	$r1,$r29,0
  21173c:	4400b480 	bnez	$r4,180(0xb4) # 2117f0 <_ZN4core3fmt9Formatter25debug_tuple_field1_finish17h10568bd546b30080E+0x154>
  211740:	03800417 	ori	$r23,$r0,0x1
  211744:	29009c77 	st.b	$r23,$r3,39(0x27)
  211748:	02c09c64 	addi.d	$r4,$r3,39(0x27)
  21174c:	29c06064 	st.d	$r4,$r3,24(0x18)
  211750:	29c0407b 	st.d	$r27,$r3,16(0x10)
  211754:	29c0207a 	st.d	$r26,$r3,8(0x8)
  211758:	28c002c4 	ld.d	$r4,$r22,0
  21175c:	28c022c5 	ld.d	$r5,$r22,8(0x8)
  211760:	28c042c6 	ld.d	$r6,$r22,16(0x10)
  211764:	28c062c7 	ld.d	$r7,$r22,24(0x18)
  211768:	2880c2c8 	ld.w	$r8,$r22,48(0x30)
  21176c:	2800e2c9 	ld.b	$r9,$r22,56(0x38)
  211770:	29018069 	st.b	$r9,$r3,96(0x60)
  211774:	29816068 	st.w	$r8,$r3,88(0x58)
  211778:	2981707c 	st.w	$r28,$r3,92(0x5c)
  21177c:	1a0000e8 	pcalau12i	$r8,7(0x7)
  211780:	02cb4108 	addi.d	$r8,$r8,720(0x2d0)
  211784:	29c14068 	st.d	$r8,$r3,80(0x50)
  211788:	02c02068 	addi.d	$r8,$r3,8(0x8)
  21178c:	29c12068 	st.d	$r8,$r3,72(0x48)
  211790:	29c10067 	st.d	$r7,$r3,64(0x40)
  211794:	29c0e066 	st.d	$r6,$r3,56(0x38)
  211798:	29c0c065 	st.d	$r5,$r3,48(0x30)
  21179c:	29c0a064 	st.d	$r4,$r3,40(0x28)
  2117a0:	02c0a065 	addi.d	$r5,$r3,40(0x28)
  2117a4:	00150324 	move	$r4,$r25
  2117a8:	4c000301 	jirl	$r1,$r24,0
  2117ac:	44004480 	bnez	$r4,68(0x44) # 2117f0 <_ZN4core3fmt9Formatter25debug_tuple_field1_finish17h10568bd546b30080E+0x154>
  2117b0:	28c14064 	ld.d	$r4,$r3,80(0x50)
  2117b4:	28c06087 	ld.d	$r7,$r4,24(0x18)
  2117b8:	28c12064 	ld.d	$r4,$r3,72(0x48)
  2117bc:	1a000085 	pcalau12i	$r5,4(0x4)
  2117c0:	02c980a5 	addi.d	$r5,$r5,608(0x260)
  2117c4:	03800806 	ori	$r6,$r0,0x2
  2117c8:	4c0000e1 	jirl	$r1,$r7,0
  2117cc:	44002480 	bnez	$r4,36(0x24) # 2117f0 <_ZN4core3fmt9Formatter25debug_tuple_field1_finish17h10568bd546b30080E+0x154>
  2117d0:	28c082c4 	ld.d	$r4,$r22,32(0x20)
  2117d4:	28c0a2c5 	ld.d	$r5,$r22,40(0x28)
  2117d8:	28c060a7 	ld.d	$r7,$r5,24(0x18)
  2117dc:	1a0000a5 	pcalau12i	$r5,5(0x5)
  2117e0:	02f830a5 	addi.d	$r5,$r5,-500(0xe0c)
  2117e4:	03800406 	ori	$r6,$r0,0x1
  2117e8:	4c0000e1 	jirl	$r1,$r7,0
  2117ec:	00150097 	move	$r23,$r4
  2117f0:	001502e4 	move	$r4,$r23
  2117f4:	28c1a07d 	ld.d	$r29,$r3,104(0x68)
  2117f8:	28c1c07c 	ld.d	$r28,$r3,112(0x70)
  2117fc:	28c1e07b 	ld.d	$r27,$r3,120(0x78)
  211800:	28c2007a 	ld.d	$r26,$r3,128(0x80)
  211804:	28c22079 	ld.d	$r25,$r3,136(0x88)
  211808:	28c24078 	ld.d	$r24,$r3,144(0x90)
  21180c:	28c26077 	ld.d	$r23,$r3,152(0x98)
  211810:	28c28076 	ld.d	$r22,$r3,160(0xa0)
  211814:	28c2a061 	ld.d	$r1,$r3,168(0xa8)
  211818:	02c2c063 	addi.d	$r3,$r3,176(0xb0)
  21181c:	4c000020 	jirl	$r0,$r1,0

0000000000211820 <_ZN43_$LT$bool$u20$as$u20$core..fmt..Display$GT$3fmt17h5328e67ed875af27E>:
_ZN43_$LT$bool$u20$as$u20$core..fmt..Display$GT$3fmt17h5328e67ed875af27E():
  211820:	001500a7 	move	$r7,$r5
  211824:	2a000084 	ld.bu	$r4,$r4,0
  211828:	40001880 	beqz	$r4,24(0x18) # 211840 <_ZN43_$LT$bool$u20$as$u20$core..fmt..Display$GT$3fmt17h5328e67ed875af27E+0x20>
  21182c:	1a000064 	pcalau12i	$r4,3(0x3)
  211830:	02d64085 	addi.d	$r5,$r4,1424(0x590)
  211834:	03801006 	ori	$r6,$r0,0x4
  211838:	001500e4 	move	$r4,$r7
  21183c:	53f9bbff 	b	-1608(0xffff9b8) # 2111f4 <_ZN4core3fmt9Formatter3pad17h0d87367d3c6ceb71E>
  211840:	1a0000a4 	pcalau12i	$r4,5(0x5)
  211844:	02f4cc85 	addi.d	$r5,$r4,-717(0xd33)
  211848:	03801406 	ori	$r6,$r0,0x5
  21184c:	001500e4 	move	$r4,$r7
  211850:	53f9a7ff 	b	-1628(0xffff9a4) # 2111f4 <_ZN4core3fmt9Formatter3pad17h0d87367d3c6ceb71E>

0000000000211854 <_ZN4core4char7methods22_$LT$impl$u20$char$GT$16escape_debug_ext17h8c68dcdf4f48a4afE.619>:
_ZN4core4char7methods22_$LT$impl$u20$char$GT$16escape_debug_ext17h8c68dcdf4f48a4afE.619():
  211854:	02ff4063 	addi.d	$r3,$r3,-48(0xfd0)
  211858:	29c0a061 	st.d	$r1,$r3,40(0x28)
  21185c:	29c08076 	st.d	$r22,$r3,32(0x20)
  211860:	29c06077 	st.d	$r23,$r3,24(0x18)
  211864:	29c04078 	st.d	$r24,$r3,16(0x10)
  211868:	001500b7 	move	$r23,$r5
  21186c:	00150096 	move	$r22,$r4
  211870:	00df00a5 	bstrpick.d	$r5,$r5,0x1f,0x0
  211874:	03809c04 	ori	$r4,$r0,0x27
  211878:	68002485 	bltu	$r4,$r5,36(0x24) # 21189c <_ZN4core4char7methods22_$LT$impl$u20$char$GT$16escape_debug_ext17h8c68dcdf4f48a4afE.619+0x48>
  21187c:	004108a7 	slli.d	$r7,$r5,0x2
  211880:	1a000068 	pcalau12i	$r8,3(0x3)
  211884:	02c3a108 	addi.d	$r8,$r8,232(0xe8)
  211888:	380820e7 	ldx.w	$r7,$r7,$r8
  21188c:	0010a0e7 	add.d	$r7,$r7,$r8
  211890:	4c0000e0 	jirl	$r0,$r7,0
  211894:	0380c004 	ori	$r4,$r0,0x30
  211898:	5000e000 	b	224(0xe0) # 211978 <_ZN4core4char7methods22_$LT$impl$u20$char$GT$16escape_debug_ext17h8c68dcdf4f48a4afE.619+0x124>
  21189c:	03817004 	ori	$r4,$r0,0x5c
  2118a0:	5c0040a4 	bne	$r5,$r4,64(0x40) # 2118e0 <_ZN4core4char7methods22_$LT$impl$u20$char$GT$16escape_debug_ext17h8c68dcdf4f48a4afE.619+0x8c>
  2118a4:	290006c4 	st.b	$r4,$r22,1(0x1)
  2118a8:	5000d800 	b	216(0xd8) # 211980 <_ZN4core4char7methods22_$LT$impl$u20$char$GT$16escape_debug_ext17h8c68dcdf4f48a4afE.619+0x12c>
  2118ac:	0381d004 	ori	$r4,$r0,0x74
  2118b0:	5000c800 	b	200(0xc8) # 211978 <_ZN4core4char7methods22_$LT$impl$u20$char$GT$16escape_debug_ext17h8c68dcdf4f48a4afE.619+0x124>
  2118b4:	0381b804 	ori	$r4,$r0,0x6e
  2118b8:	5000c000 	b	192(0xc0) # 211978 <_ZN4core4char7methods22_$LT$impl$u20$char$GT$16escape_debug_ext17h8c68dcdf4f48a4afE.619+0x124>
  2118bc:	0381c804 	ori	$r4,$r0,0x72
  2118c0:	5000b800 	b	184(0xb8) # 211978 <_ZN4core4char7methods22_$LT$impl$u20$char$GT$16escape_debug_ext17h8c68dcdf4f48a4afE.619+0x124>
  2118c4:	14000204 	lu12i.w	$r4,16(0x10)
  2118c8:	001490c4 	and	$r4,$r6,$r4
  2118cc:	40001480 	beqz	$r4,20(0x14) # 2118e0 <_ZN4core4char7methods22_$LT$impl$u20$char$GT$16escape_debug_ext17h8c68dcdf4f48a4afE.619+0x8c>
  2118d0:	03808804 	ori	$r4,$r0,0x22
  2118d4:	5000a400 	b	164(0xa4) # 211978 <_ZN4core4char7methods22_$LT$impl$u20$char$GT$16escape_debug_ext17h8c68dcdf4f48a4afE.619+0x124>
  2118d8:	034400c7 	andi	$r7,$r6,0x100
  2118dc:	44009ce0 	bnez	$r7,156(0x9c) # 211978 <_ZN4core4char7methods22_$LT$impl$u20$char$GT$16escape_debug_ext17h8c68dcdf4f48a4afE.619+0x124>
  2118e0:	034004c4 	andi	$r4,$r6,0x1
  2118e4:	40018480 	beqz	$r4,388(0x184) # 211a68 <_ZN4core4char7methods22_$LT$impl$u20$char$GT$16escape_debug_ext17h8c68dcdf4f48a4afE.619+0x214>
  2118e8:	0380840d 	ori	$r13,$r0,0x21
  2118ec:	00412ee7 	slli.d	$r7,$r23,0xb
  2118f0:	1a000084 	pcalau12i	$r4,4(0x4)
  2118f4:	02ca5084 	addi.d	$r4,$r4,660(0x294)
  2118f8:	02a00006 	addi.w	$r6,$r0,-2048(0x800)
  2118fc:	00df00e8 	bstrpick.d	$r8,$r7,0x1f,0x0
  211900:	02bffc09 	addi.w	$r9,$r0,-1(0xfff)
  211904:	0380040a 	ori	$r10,$r0,0x1
  211908:	0383fc0b 	ori	$r11,$r0,0xff
  21190c:	00150007 	move	$r7,$r0
  211910:	001501ac 	move	$r12,$r13
  211914:	50001000 	b	16(0x10) # 211924 <_ZN4core4char7methods22_$LT$impl$u20$char$GT$16escape_debug_ext17h8c68dcdf4f48a4afE.619+0xd0>
  211918:	001501ac 	move	$r12,$r13
  21191c:	00119d8d 	sub.d	$r13,$r12,$r7
  211920:	6c0098ec 	bgeu	$r7,$r12,152(0x98) # 2119b8 <_ZN4core4char7methods22_$LT$impl$u20$char$GT$16escape_debug_ext17h8c68dcdf4f48a4afE.619+0x164>
  211924:	004505ad 	srli.d	$r13,$r13,0x1
  211928:	00109dad 	add.d	$r13,$r13,$r7
  21192c:	004109ae 	slli.d	$r14,$r13,0x2
  211930:	3808388e 	ldx.w	$r14,$r4,$r14
  211934:	00412dce 	slli.d	$r14,$r14,0xb
  211938:	001500cf 	move	$r15,$r6
  21193c:	1600000f 	lu32i.d	$r15,0
  211940:	0014bdce 	and	$r14,$r14,$r15
  211944:	0012a1cf 	sltu	$r15,$r14,$r8
  211948:	0015a1ce 	xor	$r14,$r14,$r8
  21194c:	0012b80e 	sltu	$r14,$r0,$r14
  211950:	0013bdce 	masknez	$r14,$r14,$r15
  211954:	00133d2f 	maskeqz	$r15,$r9,$r15
  211958:	001539ee 	or	$r14,$r15,$r14
  21195c:	5bffbdca 	beq	$r14,$r10,-68(0x3ffbc) # 211918 <_ZN4core4char7methods22_$LT$impl$u20$char$GT$16escape_debug_ext17h8c68dcdf4f48a4afE.619+0xc4>
  211960:	0343fdc7 	andi	$r7,$r14,0xff
  211964:	5c0050eb 	bne	$r7,$r11,80(0x50) # 2119b4 <_ZN4core4char7methods22_$LT$impl$u20$char$GT$16escape_debug_ext17h8c68dcdf4f48a4afE.619+0x160>
  211968:	02c005a7 	addi.d	$r7,$r13,1(0x1)
  21196c:	00119d8d 	sub.d	$r13,$r12,$r7
  211970:	6bffb4ec 	bltu	$r7,$r12,-76(0x3ffb4) # 211924 <_ZN4core4char7methods22_$LT$impl$u20$char$GT$16escape_debug_ext17h8c68dcdf4f48a4afE.619+0xd0>
  211974:	50004400 	b	68(0x44) # 2119b8 <_ZN4core4char7methods22_$LT$impl$u20$char$GT$16escape_debug_ext17h8c68dcdf4f48a4afE.619+0x164>
  211978:	290006c4 	st.b	$r4,$r22,1(0x1)
  21197c:	03817004 	ori	$r4,$r0,0x5c
  211980:	290002c4 	st.b	$r4,$r22,0
  211984:	03800804 	ori	$r4,$r0,0x2
  211988:	29002ec4 	st.b	$r4,$r22,11(0xb)
  21198c:	290026c0 	st.b	$r0,$r22,9(0x9)
  211990:	290022c0 	st.b	$r0,$r22,8(0x8)
  211994:	29001ec0 	st.b	$r0,$r22,7(0x7)
  211998:	29001ac0 	st.b	$r0,$r22,6(0x6)
  21199c:	290016c0 	st.b	$r0,$r22,5(0x5)
  2119a0:	290012c0 	st.b	$r0,$r22,4(0x4)
  2119a4:	29000ec0 	st.b	$r0,$r22,3(0x3)
  2119a8:	29000ac0 	st.b	$r0,$r22,2(0x2)
  2119ac:	29002ac0 	st.b	$r0,$r22,10(0xa)
  2119b0:	5002e400 	b	740(0x2e4) # 211c94 <_ZN4core4char7methods22_$LT$impl$u20$char$GT$16escape_debug_ext17h8c68dcdf4f48a4afE.619+0x440>
  2119b4:	02c005a7 	addi.d	$r7,$r13,1(0x1)
  2119b8:	03808008 	ori	$r8,$r0,0x20
  2119bc:	68030507 	bltu	$r8,$r7,772(0x304) # 211cc0 <_ZN4core4char7methods22_$LT$impl$u20$char$GT$16escape_debug_ext17h8c68dcdf4f48a4afE.619+0x46c>
  2119c0:	004108e6 	slli.d	$r6,$r7,0x2
  2119c4:	38281886 	ldx.wu	$r6,$r4,$r6
  2119c8:	004554c6 	srli.d	$r6,$r6,0x15
  2119cc:	5c0010e8 	bne	$r7,$r8,16(0x10) # 2119dc <_ZN4core4char7methods22_$LT$impl$u20$char$GT$16escape_debug_ext17h8c68dcdf4f48a4afE.619+0x188>
  2119d0:	03807c07 	ori	$r7,$r0,0x1f
  2119d4:	038b5c08 	ori	$r8,$r0,0x2d7
  2119d8:	50001800 	b	24(0x18) # 2119f0 <_ZN4core4char7methods22_$LT$impl$u20$char$GT$16escape_debug_ext17h8c68dcdf4f48a4afE.619+0x19c>
  2119dc:	002c90e8 	alsl.d	$r8,$r7,$r4,0x2
  2119e0:	2a801108 	ld.wu	$r8,$r8,4(0x4)
  2119e4:	00455508 	srli.d	$r8,$r8,0x15
  2119e8:	40006ce0 	beqz	$r7,108(0x6c) # 211a54 <_ZN4core4char7methods22_$LT$impl$u20$char$GT$16escape_debug_ext17h8c68dcdf4f48a4afE.619+0x200>
  2119ec:	02fffce7 	addi.d	$r7,$r7,-1(0xfff)
  2119f0:	004108e7 	slli.d	$r7,$r7,0x2
  2119f4:	38281c84 	ldx.wu	$r4,$r4,$r7
  2119f8:	00d40084 	bstrpick.d	$r4,$r4,0x14,0x0
  2119fc:	02c004c7 	addi.d	$r7,$r6,1(0x1)
  211a00:	58006107 	beq	$r8,$r7,96(0x60) # 211a60 <_ZN4core4char7methods22_$LT$impl$u20$char$GT$16escape_debug_ext17h8c68dcdf4f48a4afE.619+0x20c>
  211a04:	001192e9 	sub.d	$r9,$r23,$r4
  211a08:	038b5c04 	ori	$r4,$r0,0x2d7
  211a0c:	00129887 	sltu	$r7,$r4,$r6
  211a10:	00139c84 	masknez	$r4,$r4,$r7
  211a14:	00131cc7 	maskeqz	$r7,$r6,$r7
  211a18:	001510e4 	or	$r4,$r7,$r4
  211a1c:	02fffd07 	addi.d	$r7,$r8,-1(0xfff)
  211a20:	1a000088 	pcalau12i	$r8,4(0x4)
  211a24:	02cc6108 	addi.d	$r8,$r8,792(0x318)
  211a28:	00df0129 	bstrpick.d	$r9,$r9,0x1f,0x0
  211a2c:	0015000a 	move	$r10,$r0
  211a30:	58027c86 	beq	$r4,$r6,636(0x27c) # 211cac <_ZN4core4char7methods22_$LT$impl$u20$char$GT$16escape_debug_ext17h8c68dcdf4f48a4afE.619+0x458>
  211a34:	3820190b 	ldx.bu	$r11,$r8,$r6
  211a38:	0010ad4a 	add.d	$r10,$r10,$r11
  211a3c:	00df014b 	bstrpick.d	$r11,$r10,0x1f,0x0
  211a40:	6800212b 	bltu	$r9,$r11,32(0x20) # 211a60 <_ZN4core4char7methods22_$LT$impl$u20$char$GT$16escape_debug_ext17h8c68dcdf4f48a4afE.619+0x20c>
  211a44:	02c004c6 	addi.d	$r6,$r6,1(0x1)
  211a48:	5fffe8e6 	bne	$r7,$r6,-24(0x3ffe8) # 211a30 <_ZN4core4char7methods22_$LT$impl$u20$char$GT$16escape_debug_ext17h8c68dcdf4f48a4afE.619+0x1dc>
  211a4c:	001500e6 	move	$r6,$r7
  211a50:	50001000 	b	16(0x10) # 211a60 <_ZN4core4char7methods22_$LT$impl$u20$char$GT$16escape_debug_ext17h8c68dcdf4f48a4afE.619+0x20c>
  211a54:	00150004 	move	$r4,$r0
  211a58:	02c004c7 	addi.d	$r7,$r6,1(0x1)
  211a5c:	5fffa907 	bne	$r8,$r7,-88(0x3ffa8) # 211a04 <_ZN4core4char7methods22_$LT$impl$u20$char$GT$16escape_debug_ext17h8c68dcdf4f48a4afE.619+0x1b0>
  211a60:	034004c4 	andi	$r4,$r6,0x1
  211a64:	44000c80 	bnez	$r4,12(0xc) # 211a70 <_ZN4core4char7methods22_$LT$impl$u20$char$GT$16escape_debug_ext17h8c68dcdf4f48a4afE.619+0x21c>
  211a68:	03808004 	ori	$r4,$r0,0x20
  211a6c:	6c00c8a4 	bgeu	$r5,$r4,200(0xc8) # 211b34 <_ZN4core4char7methods22_$LT$impl$u20$char$GT$16escape_debug_ext17h8c68dcdf4f48a4afE.619+0x2e0>
  211a70:	00d752e4 	bstrpick.d	$r4,$r23,0x17,0x14
  211a74:	1a000085 	pcalau12i	$r5,4(0x4)
  211a78:	02e040a5 	addi.d	$r5,$r5,-2032(0x810)
  211a7c:	380010a4 	ldx.b	$r4,$r5,$r4
  211a80:	00d342e6 	bstrpick.d	$r6,$r23,0x13,0x10
  211a84:	380018a6 	ldx.b	$r6,$r5,$r6
  211a88:	00cf32e7 	bstrpick.d	$r7,$r23,0xf,0xc
  211a8c:	38001ca7 	ldx.b	$r7,$r5,$r7
  211a90:	00cb22e8 	bstrpick.d	$r8,$r23,0xb,0x8
  211a94:	380020a8 	ldx.b	$r8,$r5,$r8
  211a98:	00c712e9 	bstrpick.d	$r9,$r23,0x7,0x4
  211a9c:	380024a9 	ldx.b	$r9,$r5,$r9
  211aa0:	03403eea 	andi	$r10,$r23,0xf
  211aa4:	380028a5 	ldx.b	$r5,$r5,$r10
  211aa8:	29002060 	st.b	$r0,$r3,8(0x8)
  211aac:	29401860 	st.h	$r0,$r3,6(0x6)
  211ab0:	0381f40a 	ori	$r10,$r0,0x7d
  211ab4:	29003c6a 	st.b	$r10,$r3,15(0xf)
  211ab8:	29003865 	st.b	$r5,$r3,14(0xe)
  211abc:	29003469 	st.b	$r9,$r3,13(0xd)
  211ac0:	29003068 	st.b	$r8,$r3,12(0xc)
  211ac4:	29002c67 	st.b	$r7,$r3,11(0xb)
  211ac8:	29002866 	st.b	$r6,$r3,10(0xa)
  211acc:	29002464 	st.b	$r4,$r3,9(0x9)
  211ad0:	038006e4 	ori	$r4,$r23,0x1
  211ad4:	00df0084 	bstrpick.d	$r4,$r4,0x1f,0x0
  211ad8:	00002484 	clz.d	$r4,$r4
  211adc:	02ff8084 	addi.d	$r4,$r4,-32(0xfe0)
  211ae0:	00df0884 	bstrpick.d	$r4,$r4,0x1f,0x2
  211ae4:	02fff897 	addi.d	$r23,$r4,-2(0xffe)
  211ae8:	03802c04 	ori	$r4,$r0,0xb
  211aec:	6c01eee4 	bgeu	$r23,$r4,492(0x1ec) # 211cd8 <_ZN4core4char7methods22_$LT$impl$u20$char$GT$16escape_debug_ext17h8c68dcdf4f48a4afE.619+0x484>
  211af0:	02c01865 	addi.d	$r5,$r3,6(0x6)
  211af4:	0010dca4 	add.d	$r4,$r5,$r23
  211af8:	1a0000a6 	pcalau12i	$r6,5(0x5)
  211afc:	02f814c6 	addi.d	$r6,$r6,-507(0xe05)
  211b00:	280008c7 	ld.b	$r7,$r6,2(0x2)
  211b04:	29000887 	st.b	$r7,$r4,2(0x2)
  211b08:	280004c7 	ld.b	$r7,$r6,1(0x1)
  211b0c:	29000487 	st.b	$r7,$r4,1(0x1)
  211b10:	280000c4 	ld.b	$r4,$r6,0
  211b14:	381016e4 	stx.b	$r4,$r23,$r5
  211b18:	03802818 	ori	$r24,$r0,0xa
  211b1c:	001502c4 	move	$r4,$r22
  211b20:	00150306 	move	$r6,$r24
  211b24:	541da800 	bl	7592(0x1da8) # 2138cc <memcpy>
  211b28:	29002ed8 	st.b	$r24,$r22,11(0xb)
  211b2c:	29002ad7 	st.b	$r23,$r22,10(0xa)
  211b30:	50016400 	b	356(0x164) # 211c94 <_ZN4core4char7methods22_$LT$impl$u20$char$GT$16escape_debug_ext17h8c68dcdf4f48a4afE.619+0x440>
  211b34:	0381fc04 	ori	$r4,$r0,0x7f
  211b38:	680150a4 	bltu	$r5,$r4,336(0x150) # 211c88 <_ZN4core4char7methods22_$LT$impl$u20$char$GT$16escape_debug_ext17h8c68dcdf4f48a4afE.619+0x434>
  211b3c:	14000204 	lu12i.w	$r4,16(0x10)
  211b40:	6c002ca4 	bgeu	$r5,$r4,44(0x2c) # 211b6c <_ZN4core4char7methods22_$LT$impl$u20$char$GT$16escape_debug_ext17h8c68dcdf4f48a4afE.619+0x318>
  211b44:	1a0000a4 	pcalau12i	$r4,5(0x5)
  211b48:	02e7cc85 	addi.d	$r5,$r4,-1549(0x9f3)
  211b4c:	0380a006 	ori	$r6,$r0,0x28
  211b50:	1a0000a4 	pcalau12i	$r4,5(0x5)
  211b54:	02e90c87 	addi.d	$r7,$r4,-1469(0xa43)
  211b58:	03847c08 	ori	$r8,$r0,0x11f
  211b5c:	1a0000a4 	pcalau12i	$r4,5(0x5)
  211b60:	02ed8889 	addi.d	$r9,$r4,-1182(0xb62)
  211b64:	0384bc0a 	ori	$r10,$r0,0x12f
  211b68:	50003000 	b	48(0x30) # 211b98 <_ZN4core4char7methods22_$LT$impl$u20$char$GT$16escape_debug_ext17h8c68dcdf4f48a4afE.619+0x344>
  211b6c:	14000404 	lu12i.w	$r4,32(0x20)
  211b70:	6c0038a4 	bgeu	$r5,$r4,56(0x38) # 211ba8 <_ZN4core4char7methods22_$LT$impl$u20$char$GT$16escape_debug_ext17h8c68dcdf4f48a4afE.619+0x354>
  211b74:	1a000084 	pcalau12i	$r4,4(0x4)
  211b78:	02dc5485 	addi.d	$r5,$r4,1813(0x715)
  211b7c:	0380b006 	ori	$r6,$r0,0x2c
  211b80:	1a000084 	pcalau12i	$r4,4(0x4)
  211b84:	02ddb487 	addi.d	$r7,$r4,1901(0x76d)
  211b88:	03831008 	ori	$r8,$r0,0xc4
  211b8c:	1a0000a4 	pcalau12i	$r4,5(0x5)
  211b90:	02e0c489 	addi.d	$r9,$r4,-1999(0x831)
  211b94:	0387080a 	ori	$r10,$r0,0x1c2
  211b98:	001502e4 	move	$r4,$r23
  211b9c:	57eb63ff 	bl	-5280(0xfffeb60) # 2106fc <_ZN4core7unicode9printable5check17hb959a424f3f478efE.llvm.17787663036333801864>
  211ba0:	43fed09f 	beqz	$r4,-304(0x7ffed0) # 211a70 <_ZN4core4char7methods22_$LT$impl$u20$char$GT$16escape_debug_ext17h8c68dcdf4f48a4afE.619+0x21c>
  211ba4:	5000e400 	b	228(0xe4) # 211c88 <_ZN4core4char7methods22_$LT$impl$u20$char$GT$16escape_debug_ext17h8c68dcdf4f48a4afE.619+0x434>
  211ba8:	02bff806 	addi.w	$r6,$r0,-2(0xffe)
  211bac:	16000006 	lu32i.d	$r6,0
  211bb0:	02bf8005 	addi.w	$r5,$r0,-32(0xfe0)
  211bb4:	16000005 	lu32i.d	$r5,0
  211bb8:	15fffa84 	lu12i.w	$r4,-44(0xfffd4)
  211bbc:	15ffe3e7 	lu12i.w	$r7,-225(0xfff1f)
  211bc0:	03b840ec 	ori	$r12,$r7,0xe10
  211bc4:	15fff9ab 	lu12i.w	$r11,-51(0xfffcd)
  211bc8:	15fff9ca 	lu12i.w	$r10,-50(0xfffce)
  211bcc:	15fffa09 	lu12i.w	$r9,-48(0xfffd0)
  211bd0:	15fffa28 	lu12i.w	$r8,-47(0xfffd1)
  211bd4:	15fffa67 	lu12i.w	$r7,-45(0xfffd3)
  211bd8:	0010b2ec 	add.d	$r12,$r23,$r12
  211bdc:	00df018c 	bstrpick.d	$r12,$r12,0x1f,0x0
  211be0:	140005ed 	lu12i.w	$r13,47(0x2f)
  211be4:	03b841ad 	ori	$r13,$r13,0xe10
  211be8:	6bfe898d 	bltu	$r12,$r13,-376(0x3fe88) # 211a70 <_ZN4core4char7methods22_$LT$impl$u20$char$GT$16escape_debug_ext17h8c68dcdf4f48a4afE.619+0x21c>
  211bec:	03b1416b 	ori	$r11,$r11,0xc50
  211bf0:	0010aeeb 	add.d	$r11,$r23,$r11
  211bf4:	140015ac 	lu12i.w	$r12,173(0xad)
  211bf8:	03b5418c 	ori	$r12,$r12,0xd50
  211bfc:	00df016b 	bstrpick.d	$r11,$r11,0x1f,0x0
  211c00:	6bfe716c 	bltu	$r11,$r12,-400(0x3fe70) # 211a70 <_ZN4core4char7methods22_$LT$impl$u20$char$GT$16escape_debug_ext17h8c68dcdf4f48a4afE.619+0x21c>
  211c04:	03b2d54a 	ori	$r10,$r10,0xcb5
  211c08:	0010aaea 	add.d	$r10,$r23,$r10
  211c0c:	00df014a 	bstrpick.d	$r10,$r10,0x1f,0x0
  211c10:	0380140b 	ori	$r11,$r0,0x5
  211c14:	6bfe5d4b 	bltu	$r10,$r11,-420(0x3fe5c) # 211a70 <_ZN4core4char7methods22_$LT$impl$u20$char$GT$16escape_debug_ext17h8c68dcdf4f48a4afE.619+0x21c>
  211c18:	03978929 	ori	$r9,$r9,0x5e2
  211c1c:	0010a6e9 	add.d	$r9,$r23,$r9
  211c20:	00df0129 	bstrpick.d	$r9,$r9,0x1f,0x0
  211c24:	0397880a 	ori	$r10,$r0,0x5e2
  211c28:	6bfe492a 	bltu	$r9,$r10,-440(0x3fe48) # 211a70 <_ZN4core4char7methods22_$LT$impl$u20$char$GT$16escape_debug_ext17h8c68dcdf4f48a4afE.619+0x21c>
  211c2c:	03907d08 	ori	$r8,$r8,0x41f
  211c30:	0010a2e8 	add.d	$r8,$r23,$r8
  211c34:	00df0108 	bstrpick.d	$r8,$r8,0x1f,0x0
  211c38:	03b07c09 	ori	$r9,$r0,0xc1f
  211c3c:	6bfe3509 	bltu	$r8,$r9,-460(0x3fe34) # 211a70 <_ZN4core4char7methods22_$LT$impl$u20$char$GT$16escape_debug_ext17h8c68dcdf4f48a4afE.619+0x21c>
  211c40:	038578e7 	ori	$r7,$r7,0x15e
  211c44:	00109ee7 	add.d	$r7,$r23,$r7
  211c48:	00df00e7 	bstrpick.d	$r7,$r7,0x1f,0x0
  211c4c:	03803808 	ori	$r8,$r0,0xe
  211c50:	6bfe20e8 	bltu	$r7,$r8,-480(0x3fe20) # 211a70 <_ZN4core4char7methods22_$LT$impl$u20$char$GT$16escape_debug_ext17h8c68dcdf4f48a4afE.619+0x21c>
  211c54:	00149ae6 	and	$r6,$r23,$r6
  211c58:	14000567 	lu12i.w	$r7,43(0x2b)
  211c5c:	03a078e7 	ori	$r7,$r7,0x81e
  211c60:	5bfe10c7 	beq	$r6,$r7,-496(0x3fe10) # 211a70 <_ZN4core4char7methods22_$LT$impl$u20$char$GT$16escape_debug_ext17h8c68dcdf4f48a4afE.619+0x21c>
  211c64:	001496e5 	and	$r5,$r23,$r5
  211c68:	14000546 	lu12i.w	$r6,42(0x2a)
  211c6c:	039b80c6 	ori	$r6,$r6,0x6e0
  211c70:	5bfe00a6 	beq	$r5,$r6,-512(0x3fe00) # 211a70 <_ZN4core4char7methods22_$LT$impl$u20$char$GT$16escape_debug_ext17h8c68dcdf4f48a4afE.619+0x21c>
  211c74:	03a31884 	ori	$r4,$r4,0x8c6
  211c78:	001092e4 	add.d	$r4,$r23,$r4
  211c7c:	00df0084 	bstrpick.d	$r4,$r4,0x1f,0x0
  211c80:	03801805 	ori	$r5,$r0,0x6
  211c84:	6bfdec85 	bltu	$r4,$r5,-532(0x3fdec) # 211a70 <_ZN4core4char7methods22_$LT$impl$u20$char$GT$16escape_debug_ext17h8c68dcdf4f48a4afE.619+0x21c>
  211c88:	298012d7 	st.w	$r23,$r22,4(0x4)
  211c8c:	03820004 	ori	$r4,$r0,0x80
  211c90:	290002c4 	st.b	$r4,$r22,0
  211c94:	28c04078 	ld.d	$r24,$r3,16(0x10)
  211c98:	28c06077 	ld.d	$r23,$r3,24(0x18)
  211c9c:	28c08076 	ld.d	$r22,$r3,32(0x20)
  211ca0:	28c0a061 	ld.d	$r1,$r3,40(0x28)
  211ca4:	02c0c063 	addi.d	$r3,$r3,48(0x30)
  211ca8:	4c000020 	jirl	$r0,$r1,0
  211cac:	038b5c05 	ori	$r5,$r0,0x2d7
  211cb0:	1a0000e6 	pcalau12i	$r6,7(0x7)
  211cb4:	02c1a0c6 	addi.d	$r6,$r6,104(0x68)
  211cb8:	57e81fff 	bl	-6116(0xfffe81c) # 2104d4 <_ZN4core9panicking18panic_bounds_check17h5afa83c7f9faa757E>
  211cbc:	38600400 	amswap.w	$r0,$r1,$r0
  211cc0:	03808404 	ori	$r4,$r0,0x21
  211cc4:	1a0000e5 	pcalau12i	$r5,7(0x7)
  211cc8:	02c140a6 	addi.d	$r6,$r5,80(0x50)
  211ccc:	00150085 	move	$r5,$r4
  211cd0:	57e807ff 	bl	-6140(0xfffe804) # 2104d4 <_ZN4core9panicking18panic_bounds_check17h5afa83c7f9faa757E>
  211cd4:	38600400 	amswap.w	$r0,$r1,$r0
  211cd8:	03802805 	ori	$r5,$r0,0xa
  211cdc:	1a0000e4 	pcalau12i	$r4,7(0x7)
  211ce0:	02cd2086 	addi.d	$r6,$r4,840(0x348)
  211ce4:	001502e4 	move	$r4,$r23
  211ce8:	57e88bff 	bl	-6008(0xfffe888) # 210570 <_ZN4core5slice5index26slice_start_index_len_fail17h7935edb336fdba66E>
  211cec:	38600400 	amswap.w	$r0,$r1,$r0

0000000000211cf0 <_ZN41_$LT$char$u20$as$u20$core..fmt..Debug$GT$3fmt17h30449693f869872bE>:
_ZN41_$LT$char$u20$as$u20$core..fmt..Debug$GT$3fmt17h30449693f869872bE():
  211cf0:	02fec063 	addi.d	$r3,$r3,-80(0xfb0)
  211cf4:	29c12061 	st.d	$r1,$r3,72(0x48)
  211cf8:	29c10076 	st.d	$r22,$r3,64(0x40)
  211cfc:	29c0e077 	st.d	$r23,$r3,56(0x38)
  211d00:	29c0c078 	st.d	$r24,$r3,48(0x30)
  211d04:	29c0a079 	st.d	$r25,$r3,40(0x28)
  211d08:	29c0807a 	st.d	$r26,$r3,32(0x20)
  211d0c:	29c0607b 	st.d	$r27,$r3,24(0x18)
  211d10:	00150097 	move	$r23,$r4
  211d14:	28c080b6 	ld.d	$r22,$r5,32(0x20)
  211d18:	28c0a0a4 	ld.d	$r4,$r5,40(0x28)
  211d1c:	28c08086 	ld.d	$r6,$r4,32(0x20)
  211d20:	03809c05 	ori	$r5,$r0,0x27
  211d24:	001502c4 	move	$r4,$r22
  211d28:	29c00066 	st.d	$r6,$r3,0
  211d2c:	4c0000c1 	jirl	$r1,$r6,0
  211d30:	40002c80 	beqz	$r4,44(0x2c) # 211d5c <_ZN41_$LT$char$u20$as$u20$core..fmt..Debug$GT$3fmt17h30449693f869872bE+0x6c>
  211d34:	03800404 	ori	$r4,$r0,0x1
  211d38:	28c0607b 	ld.d	$r27,$r3,24(0x18)
  211d3c:	28c0807a 	ld.d	$r26,$r3,32(0x20)
  211d40:	28c0a079 	ld.d	$r25,$r3,40(0x28)
  211d44:	28c0c078 	ld.d	$r24,$r3,48(0x30)
  211d48:	28c0e077 	ld.d	$r23,$r3,56(0x38)
  211d4c:	28c10076 	ld.d	$r22,$r3,64(0x40)
  211d50:	28c12061 	ld.d	$r1,$r3,72(0x48)
  211d54:	02c14063 	addi.d	$r3,$r3,80(0x50)
  211d58:	4c000020 	jirl	$r0,$r1,0
  211d5c:	288002e5 	ld.w	$r5,$r23,0
  211d60:	02c02077 	addi.d	$r23,$r3,8(0x8)
  211d64:	03840406 	ori	$r6,$r0,0x101
  211d68:	001502e4 	move	$r4,$r23
  211d6c:	57faebff 	bl	-1304(0xffffae8) # 211854 <_ZN4core4char7methods22_$LT$impl$u20$char$GT$16escape_debug_ext17h8c68dcdf4f48a4afE.619>
  211d70:	03820019 	ori	$r25,$r0,0x80
  211d74:	2a002064 	ld.bu	$r4,$r3,8(0x8)
  211d78:	5c006899 	bne	$r4,$r25,104(0x68) # 211de0 <_ZN41_$LT$char$u20$as$u20$core..fmt..Debug$GT$3fmt17h30449693f869872bE+0xf0>
  211d7c:	0380281a 	ori	$r26,$r0,0xa
  211d80:	0015033b 	move	$r27,$r25
  211d84:	50002400 	b	36(0x24) # 211da8 <_ZN41_$LT$char$u20$as$u20$core..fmt..Debug$GT$3fmt17h30449693f869872bE+0xb8>
  211d88:	29804060 	st.w	$r0,$r3,16(0x10)
  211d8c:	28803065 	ld.w	$r5,$r3,12(0xc)
  211d90:	29c02060 	st.d	$r0,$r3,8(0x8)
  211d94:	0015001b 	move	$r27,$r0
  211d98:	001502c4 	move	$r4,$r22
  211d9c:	28c00066 	ld.d	$r6,$r3,0
  211da0:	4c0000c1 	jirl	$r1,$r6,0
  211da4:	47ff909f 	bnez	$r4,-112(0x7fff90) # 211d34 <_ZN41_$LT$char$u20$as$u20$core..fmt..Debug$GT$3fmt17h30449693f869872bE+0x44>
  211da8:	0343ff64 	andi	$r4,$r27,0xff
  211dac:	5bffdc99 	beq	$r4,$r25,-36(0x3ffdc) # 211d88 <_ZN41_$LT$char$u20$as$u20$core..fmt..Debug$GT$3fmt17h30449693f869872bE+0x98>
  211db0:	2a004878 	ld.bu	$r24,$r3,18(0x12)
  211db4:	2a004c64 	ld.bu	$r4,$r3,19(0x13)
  211db8:	6c008304 	bgeu	$r24,$r4,128(0x80) # 211e38 <_ZN41_$LT$char$u20$as$u20$core..fmt..Debug$GT$3fmt17h30449693f869872bE+0x148>
  211dbc:	02c00704 	addi.d	$r4,$r24,1(0x1)
  211dc0:	29004864 	st.b	$r4,$r3,18(0x12)
  211dc4:	6c00a71a 	bgeu	$r24,$r26,164(0xa4) # 211e68 <_ZN41_$LT$char$u20$as$u20$core..fmt..Debug$GT$3fmt17h30449693f869872bE+0x178>
  211dc8:	38205f05 	ldx.bu	$r5,$r24,$r23
  211dcc:	001502c4 	move	$r4,$r22
  211dd0:	28c00066 	ld.d	$r6,$r3,0
  211dd4:	4c0000c1 	jirl	$r1,$r6,0
  211dd8:	43ffd09f 	beqz	$r4,-48(0x7fffd0) # 211da8 <_ZN41_$LT$char$u20$as$u20$core..fmt..Debug$GT$3fmt17h30449693f869872bE+0xb8>
  211ddc:	53ff5bff 	b	-168(0xfffff58) # 211d34 <_ZN41_$LT$char$u20$as$u20$core..fmt..Debug$GT$3fmt17h30449693f869872bE+0x44>
  211de0:	2a004865 	ld.bu	$r5,$r3,18(0x12)
  211de4:	03802804 	ori	$r4,$r0,0xa
  211de8:	00129486 	sltu	$r6,$r4,$r5
  211dec:	00139884 	masknez	$r4,$r4,$r6
  211df0:	001318a6 	maskeqz	$r6,$r5,$r6
  211df4:	001510d8 	or	$r24,$r6,$r4
  211df8:	2a004c64 	ld.bu	$r4,$r3,19(0x13)
  211dfc:	001290a6 	sltu	$r6,$r5,$r4
  211e00:	00131884 	maskeqz	$r4,$r4,$r6
  211e04:	001398a6 	masknez	$r6,$r5,$r6
  211e08:	00151899 	or	$r25,$r4,$r6
  211e0c:	58002f25 	beq	$r25,$r5,44(0x2c) # 211e38 <_ZN41_$LT$char$u20$as$u20$core..fmt..Debug$GT$3fmt17h30449693f869872bE+0x148>
  211e10:	02c004ba 	addi.d	$r26,$r5,1(0x1)
  211e14:	2900487a 	st.b	$r26,$r3,18(0x12)
  211e18:	58005305 	beq	$r24,$r5,80(0x50) # 211e68 <_ZN41_$LT$char$u20$as$u20$core..fmt..Debug$GT$3fmt17h30449693f869872bE+0x178>
  211e1c:	38205ca5 	ldx.bu	$r5,$r5,$r23
  211e20:	001502c4 	move	$r4,$r22
  211e24:	28c00066 	ld.d	$r6,$r3,0
  211e28:	4c0000c1 	jirl	$r1,$r6,0
  211e2c:	00150345 	move	$r5,$r26
  211e30:	43ffdc9f 	beqz	$r4,-36(0x7fffdc) # 211e0c <_ZN41_$LT$char$u20$as$u20$core..fmt..Debug$GT$3fmt17h30449693f869872bE+0x11c>
  211e34:	53ff03ff 	b	-256(0xfffff00) # 211d34 <_ZN41_$LT$char$u20$as$u20$core..fmt..Debug$GT$3fmt17h30449693f869872bE+0x44>
  211e38:	03809c05 	ori	$r5,$r0,0x27
  211e3c:	001502c4 	move	$r4,$r22
  211e40:	28c00066 	ld.d	$r6,$r3,0
  211e44:	28c0607b 	ld.d	$r27,$r3,24(0x18)
  211e48:	28c0807a 	ld.d	$r26,$r3,32(0x20)
  211e4c:	28c0a079 	ld.d	$r25,$r3,40(0x28)
  211e50:	28c0c078 	ld.d	$r24,$r3,48(0x30)
  211e54:	28c0e077 	ld.d	$r23,$r3,56(0x38)
  211e58:	28c10076 	ld.d	$r22,$r3,64(0x40)
  211e5c:	28c12061 	ld.d	$r1,$r3,72(0x48)
  211e60:	02c14063 	addi.d	$r3,$r3,80(0x50)
  211e64:	4c0000c0 	jirl	$r0,$r6,0
  211e68:	03802805 	ori	$r5,$r0,0xa
  211e6c:	1a0000e4 	pcalau12i	$r4,7(0x7)
  211e70:	02cd8086 	addi.d	$r6,$r4,864(0x360)
  211e74:	00150304 	move	$r4,$r24
  211e78:	57e65fff 	bl	-6564(0xfffe65c) # 2104d4 <_ZN4core9panicking18panic_bounds_check17h5afa83c7f9faa757E>
  211e7c:	38600400 	amswap.w	$r0,$r1,$r0

0000000000211e80 <_ZN53_$LT$core..fmt..Error$u20$as$u20$core..fmt..Debug$GT$3fmt17h312c62a81aaf8c49E>:
_ZN53_$LT$core..fmt..Error$u20$as$u20$core..fmt..Debug$GT$3fmt17h312c62a81aaf8c49E():
  211e80:	28c080a4 	ld.d	$r4,$r5,32(0x20)
  211e84:	28c0a0a5 	ld.d	$r5,$r5,40(0x28)
  211e88:	28c060a7 	ld.d	$r7,$r5,24(0x18)
  211e8c:	1a0000a5 	pcalau12i	$r5,5(0x5)
  211e90:	02f4e0a5 	addi.d	$r5,$r5,-712(0xd38)
  211e94:	03801406 	ori	$r6,$r0,0x5
  211e98:	4c0000e0 	jirl	$r0,$r7,0

0000000000211e9c <_ZN44_$LT$$RF$T$u20$as$u20$core..fmt..Display$GT$3fmt17h0bc8058c0aa6f8a6E>:
_ZN44_$LT$$RF$T$u20$as$u20$core..fmt..Display$GT$3fmt17h0bc8058c0aa6f8a6E():
  211e9c:	001500a7 	move	$r7,$r5
  211ea0:	28c00084 	ld.d	$r4,$r4,0
  211ea4:	28c02086 	ld.d	$r6,$r4,8(0x8)
  211ea8:	28c00085 	ld.d	$r5,$r4,0
  211eac:	001500e4 	move	$r4,$r7
  211eb0:	53f347ff 	b	-3260(0xffff344) # 2111f4 <_ZN4core3fmt9Formatter3pad17h0d87367d3c6ceb71E>

0000000000211eb4 <_ZN5libax2io5stdio12__print_impl17h8b01988e25d041f4E>:
_ZN5libax2io5stdio12__print_impl17h8b01988e25d041f4E():
  211eb4:	02fe4063 	addi.d	$r3,$r3,-112(0xf90)
  211eb8:	29c1a061 	st.d	$r1,$r3,104(0x68)
  211ebc:	29c18076 	st.d	$r22,$r3,96(0x60)
  211ec0:	29c16077 	st.d	$r23,$r3,88(0x58)
  211ec4:	03801016 	ori	$r22,$r0,0x4
  211ec8:	00150005 	move	$r5,$r0
  211ecc:	040002c5 	csrxchg	$r5,$r22,0x0
  211ed0:	1a000d65 	pcalau12i	$r5,107(0x6b)
  211ed4:	02d0e0a5 	addi.d	$r5,$r5,1080(0x438)
  211ed8:	29c00065 	st.d	$r5,$r3,0
  211edc:	28c0a085 	ld.d	$r5,$r4,40(0x28)
  211ee0:	29c14065 	st.d	$r5,$r3,80(0x50)
  211ee4:	28c08085 	ld.d	$r5,$r4,32(0x20)
  211ee8:	29c12065 	st.d	$r5,$r3,72(0x48)
  211eec:	28c06085 	ld.d	$r5,$r4,24(0x18)
  211ef0:	29c10065 	st.d	$r5,$r3,64(0x40)
  211ef4:	28c04085 	ld.d	$r5,$r4,16(0x10)
  211ef8:	29c0e065 	st.d	$r5,$r3,56(0x38)
  211efc:	28c02085 	ld.d	$r5,$r4,8(0x8)
  211f00:	29c0c065 	st.d	$r5,$r3,48(0x30)
  211f04:	28c00084 	ld.d	$r4,$r4,0
  211f08:	29c0a064 	st.d	$r4,$r3,40(0x28)
  211f0c:	03805017 	ori	$r23,$r0,0x14
  211f10:	29804077 	st.w	$r23,$r3,16(0x10)
  211f14:	02c00064 	addi.d	$r4,$r3,0
  211f18:	29c02064 	st.d	$r4,$r3,8(0x8)
  211f1c:	02c02064 	addi.d	$r4,$r3,8(0x8)
  211f20:	1a0000e5 	pcalau12i	$r5,7(0x7)
  211f24:	02cde0a5 	addi.d	$r5,$r5,888(0x378)
  211f28:	02c0a066 	addi.d	$r6,$r3,40(0x28)
  211f2c:	57ecbbff 	bl	-4936(0xfffecb8) # 210be4 <_ZN4core3fmt5write17hf855db0f875ea3deE>
  211f30:	44002080 	bnez	$r4,32(0x20) # 211f50 <_ZN5libax2io5stdio12__print_impl17h8b01988e25d041f4E+0x9c>
  211f34:	001502c4 	move	$r4,$r22
  211f38:	040002c4 	csrxchg	$r4,$r22,0x0
  211f3c:	28c16077 	ld.d	$r23,$r3,88(0x58)
  211f40:	28c18076 	ld.d	$r22,$r3,96(0x60)
  211f44:	28c1a061 	ld.d	$r1,$r3,104(0x68)
  211f48:	02c1c063 	addi.d	$r3,$r3,112(0x70)
  211f4c:	4c000020 	jirl	$r0,$r1,0
  211f50:	2a804076 	ld.wu	$r22,$r3,16(0x10)
  211f54:	5c008ed7 	bne	$r22,$r23,140(0x8c) # 211fe0 <_ZN5libax2io5stdio12__print_impl17h8b01988e25d041f4E+0x12c>
  211f58:	1a000d64 	pcalau12i	$r4,107(0x6b)
  211f5c:	02d12084 	addi.d	$r4,$r4,1096(0x448)
  211f60:	28c00084 	ld.d	$r4,$r4,0
  211f64:	03800805 	ori	$r5,$r0,0x2
  211f68:	001290a6 	sltu	$r6,$r5,$r4
  211f6c:	02fff884 	addi.d	$r4,$r4,-2(0xffe)
  211f70:	00129004 	sltu	$r4,$r0,$r4
  211f74:	00139884 	masknez	$r4,$r4,$r6
  211f78:	02bffc07 	addi.w	$r7,$r0,-1(0xfff)
  211f7c:	001318e6 	maskeqz	$r6,$r7,$r6
  211f80:	001510c4 	or	$r4,$r6,$r4
  211f84:	03801816 	ori	$r22,$r0,0x6
  211f88:	58000c87 	beq	$r4,$r7,12(0xc) # 211f94 <_ZN5libax2io5stdio12__print_impl17h8b01988e25d041f4E+0xe0>
  211f8c:	0343fc84 	andi	$r4,$r4,0xff
  211f90:	44005080 	bnez	$r4,80(0x50) # 211fe0 <_ZN5libax2io5stdio12__print_impl17h8b01988e25d041f4E+0x12c>
  211f94:	29c12060 	st.d	$r0,$r3,72(0x48)
  211f98:	1a0000e4 	pcalau12i	$r4,7(0x7)
  211f9c:	02cea084 	addi.d	$r4,$r4,936(0x3a8)
  211fa0:	29c0a064 	st.d	$r4,$r3,40(0x28)
  211fa4:	03800404 	ori	$r4,$r0,0x1
  211fa8:	29c10064 	st.d	$r4,$r3,64(0x40)
  211fac:	02c06064 	addi.d	$r4,$r3,24(0x18)
  211fb0:	29c0e064 	st.d	$r4,$r3,56(0x38)
  211fb4:	1bfffec4 	pcalau12i	$r4,-10(0xffff6)
  211fb8:	02f8b084 	addi.d	$r4,$r4,-468(0xe2c)
  211fbc:	29c08064 	st.d	$r4,$r3,32(0x20)
  211fc0:	1a000064 	pcalau12i	$r4,3(0x3)
  211fc4:	02d5e084 	addi.d	$r4,$r4,1400(0x578)
  211fc8:	29c06064 	st.d	$r4,$r3,24(0x18)
  211fcc:	29c0c065 	st.d	$r5,$r3,48(0x30)
  211fd0:	02c0a064 	addi.d	$r4,$r3,40(0x28)
  211fd4:	1a0000e6 	pcalau12i	$r6,7(0x7)
  211fd8:	02cf20c6 	addi.d	$r6,$r6,968(0x3c8)
  211fdc:	54052c00 	bl	1324(0x52c) # 212508 <_ZN3log17__private_api_log17hb5b81ca7a897f5b4E>
  211fe0:	2980a076 	st.w	$r22,$r3,40(0x28)
  211fe4:	1a0000a4 	pcalau12i	$r4,5(0x5)
  211fe8:	02f96884 	addi.d	$r4,$r4,-422(0xe5a)
  211fec:	0380ac05 	ori	$r5,$r0,0x2b
  211ff0:	02c0a066 	addi.d	$r6,$r3,40(0x28)
  211ff4:	1a0000e7 	pcalau12i	$r7,7(0x7)
  211ff8:	02d000e7 	addi.d	$r7,$r7,1024(0x400)
  211ffc:	1a0000e8 	pcalau12i	$r8,7(0x7)
  212000:	02d08108 	addi.d	$r8,$r8,1056(0x420)
  212004:	57e217ff 	bl	-7660(0xfffe214) # 210218 <_ZN4core6result13unwrap_failed17h1feb0e9befb8d2f9E>
  212008:	38600400 	amswap.w	$r0,$r1,$r0

000000000021200c <_ZN4core3ptr37drop_in_place$LT$axerrno..AxError$GT$17ha5a84bc13430e284E>:
_ZN4core3ptr37drop_in_place$LT$axerrno..AxError$GT$17ha5a84bc13430e284E():
  21200c:	4c000020 	jirl	$r0,$r1,0

0000000000212010 <_ZN4core3fmt5Write10write_char17hf207872e6968f0c0E>:
_ZN4core3fmt5Write10write_char17hf207872e6968f0c0E():
  212010:	02ffc063 	addi.d	$r3,$r3,-16(0xff0)
  212014:	29803060 	st.w	$r0,$r3,12(0xc)
  212018:	00df00a4 	bstrpick.d	$r4,$r5,0x1f,0x0
  21201c:	03820006 	ori	$r6,$r0,0x80
  212020:	6c001086 	bgeu	$r4,$r6,16(0x10) # 212030 <_ZN4core3fmt5Write10write_char17hf207872e6968f0c0E+0x20>
  212024:	29003065 	st.b	$r5,$r3,12(0xc)
  212028:	03800406 	ori	$r6,$r0,0x1
  21202c:	50009800 	b	152(0x98) # 2120c4 <_ZN4core3fmt5Write10write_char17hf207872e6968f0c0E+0xb4>
  212030:	03a00006 	ori	$r6,$r0,0x800
  212034:	6c002086 	bgeu	$r4,$r6,32(0x20) # 212054 <_ZN4core3fmt5Write10write_char17hf207872e6968f0c0E+0x44>
  212038:	03800806 	ori	$r6,$r0,0x2
  21203c:	004518a4 	srli.d	$r4,$r5,0x6
  212040:	00bf18c5 	bstrins.d	$r5,$r6,0x3f,0x6
  212044:	29003465 	st.b	$r5,$r3,13(0xd)
  212048:	03830084 	ori	$r4,$r4,0xc0
  21204c:	29003064 	st.b	$r4,$r3,12(0xc)
  212050:	50007400 	b	116(0x74) # 2120c4 <_ZN4core3fmt5Write10write_char17hf207872e6968f0c0E+0xb4>
  212054:	14000206 	lu12i.w	$r6,16(0x10)
  212058:	6c003486 	bgeu	$r4,$r6,52(0x34) # 21208c <_ZN4core3fmt5Write10write_char17hf207872e6968f0c0E+0x7c>
  21205c:	03800804 	ori	$r4,$r0,0x2
  212060:	001500a6 	move	$r6,$r5
  212064:	00bf1886 	bstrins.d	$r6,$r4,0x3f,0x6
  212068:	29003866 	st.b	$r6,$r3,14(0xe)
  21206c:	004518a6 	srli.d	$r6,$r5,0x6
  212070:	00bf1886 	bstrins.d	$r6,$r4,0x3f,0x6
  212074:	29003466 	st.b	$r6,$r3,13(0xd)
  212078:	004530a4 	srli.d	$r4,$r5,0xc
  21207c:	03838084 	ori	$r4,$r4,0xe0
  212080:	29003064 	st.b	$r4,$r3,12(0xc)
  212084:	03800c06 	ori	$r6,$r0,0x3
  212088:	50003c00 	b	60(0x3c) # 2120c4 <_ZN4core3fmt5Write10write_char17hf207872e6968f0c0E+0xb4>
  21208c:	004530a4 	srli.d	$r4,$r5,0xc
  212090:	03800806 	ori	$r6,$r0,0x2
  212094:	00bf18c4 	bstrins.d	$r4,$r6,0x3f,0x6
  212098:	004518a7 	srli.d	$r7,$r5,0x6
  21209c:	00bf18c7 	bstrins.d	$r7,$r6,0x3f,0x6
  2120a0:	004548a8 	srli.d	$r8,$r5,0x12
  2120a4:	00bf18c5 	bstrins.d	$r5,$r6,0x3f,0x6
  2120a8:	29003c65 	st.b	$r5,$r3,15(0xf)
  2120ac:	29003867 	st.b	$r7,$r3,14(0xe)
  2120b0:	29003464 	st.b	$r4,$r3,13(0xd)
  2120b4:	03807804 	ori	$r4,$r0,0x1e
  2120b8:	00bf0c88 	bstrins.d	$r8,$r4,0x3f,0x3
  2120bc:	29003068 	st.b	$r8,$r3,12(0xc)
  2120c0:	03801006 	ori	$r6,$r0,0x4
  2120c4:	03801004 	ori	$r4,$r0,0x4
  2120c8:	00150005 	move	$r5,$r0
  2120cc:	04000085 	csrxchg	$r5,$r4,0x0
  2120d0:	02c03065 	addi.d	$r5,$r3,12(0xc)
  2120d4:	001098a6 	add.d	$r6,$r5,$r6
  2120d8:	03802807 	ori	$r7,$r0,0xa
  2120dc:	03803408 	ori	$r8,$r0,0xd
  2120e0:	50002000 	b	32(0x20) # 212100 <_ZN4core3fmt5Write10write_char17hf207872e6968f0c0E+0xf0>
  2120e4:	02c004a5 	addi.d	$r5,$r5,1(0x1)
  2120e8:	143fc00a 	lu12i.w	$r10,130560(0x1fe00)
  2120ec:	0387814a 	ori	$r10,$r10,0x1e0
  2120f0:	29000149 	st.b	$r9,$r10,0
  2120f4:	00150089 	move	$r9,$r4
  2120f8:	04000089 	csrxchg	$r9,$r4,0x0
  2120fc:	580068a6 	beq	$r5,$r6,104(0x68) # 212164 <_ZN4core3fmt5Write10write_char17hf207872e6968f0c0E+0x154>
  212100:	2a0000a9 	ld.bu	$r9,$r5,0
  212104:	0015000a 	move	$r10,$r0
  212108:	0400008a 	csrxchg	$r10,$r4,0x0
  21210c:	5c004127 	bne	$r9,$r7,64(0x40) # 21214c <_ZN4core3fmt5Write10write_char17hf207872e6968f0c0E+0x13c>
  212110:	143fc009 	lu12i.w	$r9,130560(0x1fe00)
  212114:	03879529 	ori	$r9,$r9,0x1e5
  212118:	2a000129 	ld.bu	$r9,$r9,0
  21211c:	03408129 	andi	$r9,$r9,0x20
  212120:	43fff13f 	beqz	$r9,-16(0x7ffff0) # 212110 <_ZN4core3fmt5Write10write_char17hf207872e6968f0c0E+0x100>
  212124:	143fc009 	lu12i.w	$r9,130560(0x1fe00)
  212128:	03878129 	ori	$r9,$r9,0x1e0
  21212c:	29000128 	st.b	$r8,$r9,0
  212130:	143fc009 	lu12i.w	$r9,130560(0x1fe00)
  212134:	03879529 	ori	$r9,$r9,0x1e5
  212138:	2a000129 	ld.bu	$r9,$r9,0
  21213c:	03408129 	andi	$r9,$r9,0x20
  212140:	43fff13f 	beqz	$r9,-16(0x7ffff0) # 212130 <_ZN4core3fmt5Write10write_char17hf207872e6968f0c0E+0x120>
  212144:	001500e9 	move	$r9,$r7
  212148:	53ff9fff 	b	-100(0xfffff9c) # 2120e4 <_ZN4core3fmt5Write10write_char17hf207872e6968f0c0E+0xd4>
  21214c:	143fc00a 	lu12i.w	$r10,130560(0x1fe00)
  212150:	0387954a 	ori	$r10,$r10,0x1e5
  212154:	2a00014a 	ld.bu	$r10,$r10,0
  212158:	0340814a 	andi	$r10,$r10,0x20
  21215c:	43fff15f 	beqz	$r10,-16(0x7ffff0) # 21214c <_ZN4core3fmt5Write10write_char17hf207872e6968f0c0E+0x13c>
  212160:	53ff87ff 	b	-124(0xfffff84) # 2120e4 <_ZN4core3fmt5Write10write_char17hf207872e6968f0c0E+0xd4>
  212164:	00150085 	move	$r5,$r4
  212168:	04000085 	csrxchg	$r5,$r4,0x0
  21216c:	00150004 	move	$r4,$r0
  212170:	02c04063 	addi.d	$r3,$r3,16(0x10)
  212174:	4c000020 	jirl	$r0,$r1,0

0000000000212178 <_ZN4core3fmt5Write9write_fmt17h80db6198d62a4fb8E>:
_ZN4core3fmt5Write9write_fmt17h80db6198d62a4fb8E():
  212178:	02ff0063 	addi.d	$r3,$r3,-64(0xfc0)
  21217c:	29c0e061 	st.d	$r1,$r3,56(0x38)
  212180:	29c00064 	st.d	$r4,$r3,0
  212184:	28c0a0a4 	ld.d	$r4,$r5,40(0x28)
  212188:	29c0c064 	st.d	$r4,$r3,48(0x30)
  21218c:	28c080a4 	ld.d	$r4,$r5,32(0x20)
  212190:	29c0a064 	st.d	$r4,$r3,40(0x28)
  212194:	28c060a4 	ld.d	$r4,$r5,24(0x18)
  212198:	29c08064 	st.d	$r4,$r3,32(0x20)
  21219c:	28c040a4 	ld.d	$r4,$r5,16(0x10)
  2121a0:	29c06064 	st.d	$r4,$r3,24(0x18)
  2121a4:	28c020a4 	ld.d	$r4,$r5,8(0x8)
  2121a8:	29c04064 	st.d	$r4,$r3,16(0x10)
  2121ac:	28c000a4 	ld.d	$r4,$r5,0
  2121b0:	29c02064 	st.d	$r4,$r3,8(0x8)
  2121b4:	02c00064 	addi.d	$r4,$r3,0
  2121b8:	1a0000c5 	pcalau12i	$r5,6(0x6)
  2121bc:	02d0e0a5 	addi.d	$r5,$r5,1080(0x438)
  2121c0:	02c02066 	addi.d	$r6,$r3,8(0x8)
  2121c4:	57ea23ff 	bl	-5600(0xfffea20) # 210be4 <_ZN4core3fmt5write17hf855db0f875ea3deE>
  2121c8:	28c0e061 	ld.d	$r1,$r3,56(0x38)
  2121cc:	02c10063 	addi.d	$r3,$r3,64(0x40)
  2121d0:	4c000020 	jirl	$r0,$r1,0

00000000002121d4 <_ZN50_$LT$$RF$mut$u20$W$u20$as$u20$core..fmt..Write$GT$9write_str17h8160c176cac31ddfE>:
_ZN50_$LT$$RF$mut$u20$W$u20$as$u20$core..fmt..Write$GT$9write_str17h8160c176cac31ddfE():
  2121d4:	4000a8c0 	beqz	$r6,168(0xa8) # 21227c <_ZN50_$LT$$RF$mut$u20$W$u20$as$u20$core..fmt..Write$GT$9write_str17h8160c176cac31ddfE+0xa8>
  2121d8:	03801004 	ori	$r4,$r0,0x4
  2121dc:	00150007 	move	$r7,$r0
  2121e0:	04000087 	csrxchg	$r7,$r4,0x0
  2121e4:	001098a6 	add.d	$r6,$r5,$r6
  2121e8:	03802807 	ori	$r7,$r0,0xa
  2121ec:	03803408 	ori	$r8,$r0,0xd
  2121f0:	50002000 	b	32(0x20) # 212210 <_ZN50_$LT$$RF$mut$u20$W$u20$as$u20$core..fmt..Write$GT$9write_str17h8160c176cac31ddfE+0x3c>
  2121f4:	02c004a5 	addi.d	$r5,$r5,1(0x1)
  2121f8:	143fc00a 	lu12i.w	$r10,130560(0x1fe00)
  2121fc:	0387814a 	ori	$r10,$r10,0x1e0
  212200:	29000149 	st.b	$r9,$r10,0
  212204:	00150089 	move	$r9,$r4
  212208:	04000089 	csrxchg	$r9,$r4,0x0
  21220c:	580068a6 	beq	$r5,$r6,104(0x68) # 212274 <_ZN50_$LT$$RF$mut$u20$W$u20$as$u20$core..fmt..Write$GT$9write_str17h8160c176cac31ddfE+0xa0>
  212210:	2a0000a9 	ld.bu	$r9,$r5,0
  212214:	0015000a 	move	$r10,$r0
  212218:	0400008a 	csrxchg	$r10,$r4,0x0
  21221c:	5c004127 	bne	$r9,$r7,64(0x40) # 21225c <_ZN50_$LT$$RF$mut$u20$W$u20$as$u20$core..fmt..Write$GT$9write_str17h8160c176cac31ddfE+0x88>
  212220:	143fc009 	lu12i.w	$r9,130560(0x1fe00)
  212224:	03879529 	ori	$r9,$r9,0x1e5
  212228:	2a000129 	ld.bu	$r9,$r9,0
  21222c:	03408129 	andi	$r9,$r9,0x20
  212230:	43fff13f 	beqz	$r9,-16(0x7ffff0) # 212220 <_ZN50_$LT$$RF$mut$u20$W$u20$as$u20$core..fmt..Write$GT$9write_str17h8160c176cac31ddfE+0x4c>
  212234:	143fc009 	lu12i.w	$r9,130560(0x1fe00)
  212238:	03878129 	ori	$r9,$r9,0x1e0
  21223c:	29000128 	st.b	$r8,$r9,0
  212240:	143fc009 	lu12i.w	$r9,130560(0x1fe00)
  212244:	03879529 	ori	$r9,$r9,0x1e5
  212248:	2a000129 	ld.bu	$r9,$r9,0
  21224c:	03408129 	andi	$r9,$r9,0x20
  212250:	43fff13f 	beqz	$r9,-16(0x7ffff0) # 212240 <_ZN50_$LT$$RF$mut$u20$W$u20$as$u20$core..fmt..Write$GT$9write_str17h8160c176cac31ddfE+0x6c>
  212254:	001500e9 	move	$r9,$r7
  212258:	53ff9fff 	b	-100(0xfffff9c) # 2121f4 <_ZN50_$LT$$RF$mut$u20$W$u20$as$u20$core..fmt..Write$GT$9write_str17h8160c176cac31ddfE+0x20>
  21225c:	143fc00a 	lu12i.w	$r10,130560(0x1fe00)
  212260:	0387954a 	ori	$r10,$r10,0x1e5
  212264:	2a00014a 	ld.bu	$r10,$r10,0
  212268:	0340814a 	andi	$r10,$r10,0x20
  21226c:	43fff15f 	beqz	$r10,-16(0x7ffff0) # 21225c <_ZN50_$LT$$RF$mut$u20$W$u20$as$u20$core..fmt..Write$GT$9write_str17h8160c176cac31ddfE+0x88>
  212270:	53ff87ff 	b	-124(0xfffff84) # 2121f4 <_ZN50_$LT$$RF$mut$u20$W$u20$as$u20$core..fmt..Write$GT$9write_str17h8160c176cac31ddfE+0x20>
  212274:	00150085 	move	$r5,$r4
  212278:	04000085 	csrxchg	$r5,$r4,0x0
  21227c:	00150004 	move	$r4,$r0
  212280:	4c000020 	jirl	$r0,$r1,0

0000000000212284 <_ZN50_$LT$$RF$mut$u20$W$u20$as$u20$core..fmt..Write$GT$10write_char17he013107d9a1ef2acE>:
_ZN50_$LT$$RF$mut$u20$W$u20$as$u20$core..fmt..Write$GT$10write_char17he013107d9a1ef2acE():
  212284:	02ffc063 	addi.d	$r3,$r3,-16(0xff0)
  212288:	29803060 	st.w	$r0,$r3,12(0xc)
  21228c:	00df00a4 	bstrpick.d	$r4,$r5,0x1f,0x0
  212290:	03820006 	ori	$r6,$r0,0x80
  212294:	6c001086 	bgeu	$r4,$r6,16(0x10) # 2122a4 <_ZN50_$LT$$RF$mut$u20$W$u20$as$u20$core..fmt..Write$GT$10write_char17he013107d9a1ef2acE+0x20>
  212298:	29003065 	st.b	$r5,$r3,12(0xc)
  21229c:	03800406 	ori	$r6,$r0,0x1
  2122a0:	50009800 	b	152(0x98) # 212338 <_ZN50_$LT$$RF$mut$u20$W$u20$as$u20$core..fmt..Write$GT$10write_char17he013107d9a1ef2acE+0xb4>
  2122a4:	03a00006 	ori	$r6,$r0,0x800
  2122a8:	6c002086 	bgeu	$r4,$r6,32(0x20) # 2122c8 <_ZN50_$LT$$RF$mut$u20$W$u20$as$u20$core..fmt..Write$GT$10write_char17he013107d9a1ef2acE+0x44>
  2122ac:	03800806 	ori	$r6,$r0,0x2
  2122b0:	004518a4 	srli.d	$r4,$r5,0x6
  2122b4:	00bf18c5 	bstrins.d	$r5,$r6,0x3f,0x6
  2122b8:	29003465 	st.b	$r5,$r3,13(0xd)
  2122bc:	03830084 	ori	$r4,$r4,0xc0
  2122c0:	29003064 	st.b	$r4,$r3,12(0xc)
  2122c4:	50007400 	b	116(0x74) # 212338 <_ZN50_$LT$$RF$mut$u20$W$u20$as$u20$core..fmt..Write$GT$10write_char17he013107d9a1ef2acE+0xb4>
  2122c8:	14000206 	lu12i.w	$r6,16(0x10)
  2122cc:	6c003486 	bgeu	$r4,$r6,52(0x34) # 212300 <_ZN50_$LT$$RF$mut$u20$W$u20$as$u20$core..fmt..Write$GT$10write_char17he013107d9a1ef2acE+0x7c>
  2122d0:	03800804 	ori	$r4,$r0,0x2
  2122d4:	001500a6 	move	$r6,$r5
  2122d8:	00bf1886 	bstrins.d	$r6,$r4,0x3f,0x6
  2122dc:	29003866 	st.b	$r6,$r3,14(0xe)
  2122e0:	004518a6 	srli.d	$r6,$r5,0x6
  2122e4:	00bf1886 	bstrins.d	$r6,$r4,0x3f,0x6
  2122e8:	29003466 	st.b	$r6,$r3,13(0xd)
  2122ec:	004530a4 	srli.d	$r4,$r5,0xc
  2122f0:	03838084 	ori	$r4,$r4,0xe0
  2122f4:	29003064 	st.b	$r4,$r3,12(0xc)
  2122f8:	03800c06 	ori	$r6,$r0,0x3
  2122fc:	50003c00 	b	60(0x3c) # 212338 <_ZN50_$LT$$RF$mut$u20$W$u20$as$u20$core..fmt..Write$GT$10write_char17he013107d9a1ef2acE+0xb4>
  212300:	004530a4 	srli.d	$r4,$r5,0xc
  212304:	03800806 	ori	$r6,$r0,0x2
  212308:	00bf18c4 	bstrins.d	$r4,$r6,0x3f,0x6
  21230c:	004518a7 	srli.d	$r7,$r5,0x6
  212310:	00bf18c7 	bstrins.d	$r7,$r6,0x3f,0x6
  212314:	004548a8 	srli.d	$r8,$r5,0x12
  212318:	00bf18c5 	bstrins.d	$r5,$r6,0x3f,0x6
  21231c:	29003c65 	st.b	$r5,$r3,15(0xf)
  212320:	29003867 	st.b	$r7,$r3,14(0xe)
  212324:	29003464 	st.b	$r4,$r3,13(0xd)
  212328:	03807804 	ori	$r4,$r0,0x1e
  21232c:	00bf0c88 	bstrins.d	$r8,$r4,0x3f,0x3
  212330:	29003068 	st.b	$r8,$r3,12(0xc)
  212334:	03801006 	ori	$r6,$r0,0x4
  212338:	03801004 	ori	$r4,$r0,0x4
  21233c:	00150005 	move	$r5,$r0
  212340:	04000085 	csrxchg	$r5,$r4,0x0
  212344:	02c03065 	addi.d	$r5,$r3,12(0xc)
  212348:	001098a6 	add.d	$r6,$r5,$r6
  21234c:	03802807 	ori	$r7,$r0,0xa
  212350:	03803408 	ori	$r8,$r0,0xd
  212354:	50002000 	b	32(0x20) # 212374 <_ZN50_$LT$$RF$mut$u20$W$u20$as$u20$core..fmt..Write$GT$10write_char17he013107d9a1ef2acE+0xf0>
  212358:	02c004a5 	addi.d	$r5,$r5,1(0x1)
  21235c:	143fc00a 	lu12i.w	$r10,130560(0x1fe00)
  212360:	0387814a 	ori	$r10,$r10,0x1e0
  212364:	29000149 	st.b	$r9,$r10,0
  212368:	00150089 	move	$r9,$r4
  21236c:	04000089 	csrxchg	$r9,$r4,0x0
  212370:	580068a6 	beq	$r5,$r6,104(0x68) # 2123d8 <_ZN50_$LT$$RF$mut$u20$W$u20$as$u20$core..fmt..Write$GT$10write_char17he013107d9a1ef2acE+0x154>
  212374:	2a0000a9 	ld.bu	$r9,$r5,0
  212378:	0015000a 	move	$r10,$r0
  21237c:	0400008a 	csrxchg	$r10,$r4,0x0
  212380:	5c004127 	bne	$r9,$r7,64(0x40) # 2123c0 <_ZN50_$LT$$RF$mut$u20$W$u20$as$u20$core..fmt..Write$GT$10write_char17he013107d9a1ef2acE+0x13c>
  212384:	143fc009 	lu12i.w	$r9,130560(0x1fe00)
  212388:	03879529 	ori	$r9,$r9,0x1e5
  21238c:	2a000129 	ld.bu	$r9,$r9,0
  212390:	03408129 	andi	$r9,$r9,0x20
  212394:	43fff13f 	beqz	$r9,-16(0x7ffff0) # 212384 <_ZN50_$LT$$RF$mut$u20$W$u20$as$u20$core..fmt..Write$GT$10write_char17he013107d9a1ef2acE+0x100>
  212398:	143fc009 	lu12i.w	$r9,130560(0x1fe00)
  21239c:	03878129 	ori	$r9,$r9,0x1e0
  2123a0:	29000128 	st.b	$r8,$r9,0
  2123a4:	143fc009 	lu12i.w	$r9,130560(0x1fe00)
  2123a8:	03879529 	ori	$r9,$r9,0x1e5
  2123ac:	2a000129 	ld.bu	$r9,$r9,0
  2123b0:	03408129 	andi	$r9,$r9,0x20
  2123b4:	43fff13f 	beqz	$r9,-16(0x7ffff0) # 2123a4 <_ZN50_$LT$$RF$mut$u20$W$u20$as$u20$core..fmt..Write$GT$10write_char17he013107d9a1ef2acE+0x120>
  2123b8:	001500e9 	move	$r9,$r7
  2123bc:	53ff9fff 	b	-100(0xfffff9c) # 212358 <_ZN50_$LT$$RF$mut$u20$W$u20$as$u20$core..fmt..Write$GT$10write_char17he013107d9a1ef2acE+0xd4>
  2123c0:	143fc00a 	lu12i.w	$r10,130560(0x1fe00)
  2123c4:	0387954a 	ori	$r10,$r10,0x1e5
  2123c8:	2a00014a 	ld.bu	$r10,$r10,0
  2123cc:	0340814a 	andi	$r10,$r10,0x20
  2123d0:	43fff15f 	beqz	$r10,-16(0x7ffff0) # 2123c0 <_ZN50_$LT$$RF$mut$u20$W$u20$as$u20$core..fmt..Write$GT$10write_char17he013107d9a1ef2acE+0x13c>
  2123d4:	53ff87ff 	b	-124(0xfffff84) # 212358 <_ZN50_$LT$$RF$mut$u20$W$u20$as$u20$core..fmt..Write$GT$10write_char17he013107d9a1ef2acE+0xd4>
  2123d8:	00150085 	move	$r5,$r4
  2123dc:	04000085 	csrxchg	$r5,$r4,0x0
  2123e0:	00150004 	move	$r4,$r0
  2123e4:	02c04063 	addi.d	$r3,$r3,16(0x10)
  2123e8:	4c000020 	jirl	$r0,$r1,0

00000000002123ec <_ZN50_$LT$$RF$mut$u20$W$u20$as$u20$core..fmt..Write$GT$9write_fmt17h509dc8ec860eb369E>:
_ZN50_$LT$$RF$mut$u20$W$u20$as$u20$core..fmt..Write$GT$9write_fmt17h509dc8ec860eb369E():
  2123ec:	02ff0063 	addi.d	$r3,$r3,-64(0xfc0)
  2123f0:	29c0e061 	st.d	$r1,$r3,56(0x38)
  2123f4:	28c00084 	ld.d	$r4,$r4,0
  2123f8:	28c0a0a6 	ld.d	$r6,$r5,40(0x28)
  2123fc:	29c0c066 	st.d	$r6,$r3,48(0x30)
  212400:	28c080a6 	ld.d	$r6,$r5,32(0x20)
  212404:	29c0a066 	st.d	$r6,$r3,40(0x28)
  212408:	28c060a6 	ld.d	$r6,$r5,24(0x18)
  21240c:	29c08066 	st.d	$r6,$r3,32(0x20)
  212410:	28c040a6 	ld.d	$r6,$r5,16(0x10)
  212414:	29c06066 	st.d	$r6,$r3,24(0x18)
  212418:	28c020a6 	ld.d	$r6,$r5,8(0x8)
  21241c:	29c04066 	st.d	$r6,$r3,16(0x10)
  212420:	28c000a5 	ld.d	$r5,$r5,0
  212424:	29c02065 	st.d	$r5,$r3,8(0x8)
  212428:	29c00064 	st.d	$r4,$r3,0
  21242c:	02c00064 	addi.d	$r4,$r3,0
  212430:	1a0000c5 	pcalau12i	$r5,6(0x6)
  212434:	02d0e0a5 	addi.d	$r5,$r5,1080(0x438)
  212438:	02c02066 	addi.d	$r6,$r3,8(0x8)
  21243c:	57e7abff 	bl	-6232(0xfffe7a8) # 210be4 <_ZN4core3fmt5write17hf855db0f875ea3deE>
  212440:	28c0e061 	ld.d	$r1,$r3,56(0x38)
  212444:	02c10063 	addi.d	$r3,$r3,64(0x40)
  212448:	4c000020 	jirl	$r0,$r1,0

000000000021244c <_ZN77_$LT$axio..Write..write_fmt..Adapter$LT$T$GT$$u20$as$u20$core..fmt..Write$GT$9write_str17hf29150954e6a9314E>:
_ZN77_$LT$axio..Write..write_fmt..Adapter$LT$T$GT$$u20$as$u20$core..fmt..Write$GT$9write_str17hf29150954e6a9314E():
  21244c:	4000a8c0 	beqz	$r6,168(0xa8) # 2124f4 <_ZN77_$LT$axio..Write..write_fmt..Adapter$LT$T$GT$$u20$as$u20$core..fmt..Write$GT$9write_str17hf29150954e6a9314E+0xa8>
  212450:	03801004 	ori	$r4,$r0,0x4
  212454:	00150007 	move	$r7,$r0
  212458:	04000087 	csrxchg	$r7,$r4,0x0
  21245c:	001098a6 	add.d	$r6,$r5,$r6
  212460:	03802807 	ori	$r7,$r0,0xa
  212464:	03803408 	ori	$r8,$r0,0xd
  212468:	50002000 	b	32(0x20) # 212488 <_ZN77_$LT$axio..Write..write_fmt..Adapter$LT$T$GT$$u20$as$u20$core..fmt..Write$GT$9write_str17hf29150954e6a9314E+0x3c>
  21246c:	02c004a5 	addi.d	$r5,$r5,1(0x1)
  212470:	143fc00a 	lu12i.w	$r10,130560(0x1fe00)
  212474:	0387814a 	ori	$r10,$r10,0x1e0
  212478:	29000149 	st.b	$r9,$r10,0
  21247c:	00150089 	move	$r9,$r4
  212480:	04000089 	csrxchg	$r9,$r4,0x0
  212484:	580068a6 	beq	$r5,$r6,104(0x68) # 2124ec <_ZN77_$LT$axio..Write..write_fmt..Adapter$LT$T$GT$$u20$as$u20$core..fmt..Write$GT$9write_str17hf29150954e6a9314E+0xa0>
  212488:	2a0000a9 	ld.bu	$r9,$r5,0
  21248c:	0015000a 	move	$r10,$r0
  212490:	0400008a 	csrxchg	$r10,$r4,0x0
  212494:	5c004127 	bne	$r9,$r7,64(0x40) # 2124d4 <_ZN77_$LT$axio..Write..write_fmt..Adapter$LT$T$GT$$u20$as$u20$core..fmt..Write$GT$9write_str17hf29150954e6a9314E+0x88>
  212498:	143fc009 	lu12i.w	$r9,130560(0x1fe00)
  21249c:	03879529 	ori	$r9,$r9,0x1e5
  2124a0:	2a000129 	ld.bu	$r9,$r9,0
  2124a4:	03408129 	andi	$r9,$r9,0x20
  2124a8:	43fff13f 	beqz	$r9,-16(0x7ffff0) # 212498 <_ZN77_$LT$axio..Write..write_fmt..Adapter$LT$T$GT$$u20$as$u20$core..fmt..Write$GT$9write_str17hf29150954e6a9314E+0x4c>
  2124ac:	143fc009 	lu12i.w	$r9,130560(0x1fe00)
  2124b0:	03878129 	ori	$r9,$r9,0x1e0
  2124b4:	29000128 	st.b	$r8,$r9,0
  2124b8:	143fc009 	lu12i.w	$r9,130560(0x1fe00)
  2124bc:	03879529 	ori	$r9,$r9,0x1e5
  2124c0:	2a000129 	ld.bu	$r9,$r9,0
  2124c4:	03408129 	andi	$r9,$r9,0x20
  2124c8:	43fff13f 	beqz	$r9,-16(0x7ffff0) # 2124b8 <_ZN77_$LT$axio..Write..write_fmt..Adapter$LT$T$GT$$u20$as$u20$core..fmt..Write$GT$9write_str17hf29150954e6a9314E+0x6c>
  2124cc:	001500e9 	move	$r9,$r7
  2124d0:	53ff9fff 	b	-100(0xfffff9c) # 21246c <_ZN77_$LT$axio..Write..write_fmt..Adapter$LT$T$GT$$u20$as$u20$core..fmt..Write$GT$9write_str17hf29150954e6a9314E+0x20>
  2124d4:	143fc00a 	lu12i.w	$r10,130560(0x1fe00)
  2124d8:	0387954a 	ori	$r10,$r10,0x1e5
  2124dc:	2a00014a 	ld.bu	$r10,$r10,0
  2124e0:	0340814a 	andi	$r10,$r10,0x20
  2124e4:	43fff15f 	beqz	$r10,-16(0x7ffff0) # 2124d4 <_ZN77_$LT$axio..Write..write_fmt..Adapter$LT$T$GT$$u20$as$u20$core..fmt..Write$GT$9write_str17hf29150954e6a9314E+0x88>
  2124e8:	53ff87ff 	b	-124(0xfffff84) # 21246c <_ZN77_$LT$axio..Write..write_fmt..Adapter$LT$T$GT$$u20$as$u20$core..fmt..Write$GT$9write_str17hf29150954e6a9314E+0x20>
  2124ec:	00150085 	move	$r5,$r4
  2124f0:	04000085 	csrxchg	$r5,$r4,0x0
  2124f4:	00150004 	move	$r4,$r0
  2124f8:	4c000020 	jirl	$r0,$r1,0

00000000002124fc <_ZN43_$LT$log..NopLogger$u20$as$u20$log..Log$GT$7enabled17h29848c79aea3289eE>:
_ZN43_$LT$log..NopLogger$u20$as$u20$log..Log$GT$7enabled17h29848c79aea3289eE():
  2124fc:	00150004 	move	$r4,$r0
  212500:	4c000020 	jirl	$r0,$r1,0

0000000000212504 <_ZN43_$LT$log..NopLogger$u20$as$u20$log..Log$GT$3log17hd9390ff453d768fdE>:
_ZN43_$LT$log..NopLogger$u20$as$u20$log..Log$GT$3log17hd9390ff453d768fdE():
  212504:	4c000020 	jirl	$r0,$r1,0

0000000000212508 <_ZN3log17__private_api_log17hb5b81ca7a897f5b4E>:
_ZN3log17__private_api_log17hb5b81ca7a897f5b4E():
  212508:	02fdc063 	addi.d	$r3,$r3,-144(0xf70)
  21250c:	29c22061 	st.d	$r1,$r3,136(0x88)
  212510:	28c040c7 	ld.d	$r7,$r6,16(0x10)
  212514:	28c060c8 	ld.d	$r8,$r6,24(0x18)
  212518:	28c080c9 	ld.d	$r9,$r6,32(0x20)
  21251c:	28c0a0ca 	ld.d	$r10,$r6,40(0x28)
  212520:	2880c0cb 	ld.w	$r11,$r6,48(0x30)
  212524:	28c000cc 	ld.d	$r12,$r6,0
  212528:	28c020c6 	ld.d	$r6,$r6,8(0x8)
  21252c:	1a000d4d 	pcalau12i	$r13,106(0x6a)
  212530:	02d101ad 	addi.d	$r13,$r13,1088(0x440)
  212534:	28c001ad 	ld.d	$r13,$r13,0
  212538:	38720000 	dbar	0x0
  21253c:	1a0000ce 	pcalau12i	$r14,6(0x6)
  212540:	02d301ce 	addi.d	$r14,$r14,1216(0x4c0)
  212544:	28c001ce 	ld.d	$r14,$r14,0
  212548:	28c0008f 	ld.d	$r15,$r4,0
  21254c:	28c02090 	ld.d	$r16,$r4,8(0x8)
  212550:	28c04091 	ld.d	$r17,$r4,16(0x10)
  212554:	28c06092 	ld.d	$r18,$r4,24(0x18)
  212558:	28c08093 	ld.d	$r19,$r4,32(0x20)
  21255c:	28c0a084 	ld.d	$r4,$r4,40(0x28)
  212560:	29c20064 	st.d	$r4,$r3,128(0x80)
  212564:	29c1e073 	st.d	$r19,$r3,120(0x78)
  212568:	29c1c072 	st.d	$r18,$r3,112(0x70)
  21256c:	29c1a071 	st.d	$r17,$r3,104(0x68)
  212570:	29c18070 	st.d	$r16,$r3,96(0x60)
  212574:	29c1606f 	st.d	$r15,$r3,88(0x58)
  212578:	29c12066 	st.d	$r6,$r3,72(0x48)
  21257c:	29c1006c 	st.d	$r12,$r3,64(0x40)
  212580:	29c0e065 	st.d	$r5,$r3,56(0x38)
  212584:	2981506b 	st.w	$r11,$r3,84(0x54)
  212588:	03800404 	ori	$r4,$r0,0x1
  21258c:	29814064 	st.w	$r4,$r3,80(0x50)
  212590:	29c0c06a 	st.d	$r10,$r3,48(0x30)
  212594:	29c0a069 	st.d	$r9,$r3,40(0x28)
  212598:	29c06068 	st.d	$r8,$r3,24(0x18)
  21259c:	29c04067 	st.d	$r7,$r3,16(0x10)
  2125a0:	29c08060 	st.d	$r0,$r3,32(0x20)
  2125a4:	29c02060 	st.d	$r0,$r3,8(0x8)
  2125a8:	02fff9a4 	addi.d	$r4,$r13,-2(0xffe)
  2125ac:	02400485 	sltui	$r5,$r4,1(0x1)
  2125b0:	1a000084 	pcalau12i	$r4,4(0x4)
  2125b4:	02fa1484 	addi.d	$r4,$r4,-379(0xe85)
  2125b8:	00139484 	masknez	$r4,$r4,$r5
  2125bc:	1a000086 	pcalau12i	$r6,4(0x4)
  2125c0:	02c420c6 	addi.d	$r6,$r6,264(0x108)
  2125c4:	001314c6 	maskeqz	$r6,$r6,$r5
  2125c8:	001510c4 	or	$r4,$r6,$r4
  2125cc:	1a0000c6 	pcalau12i	$r6,6(0x6)
  2125d0:	02d220c6 	addi.d	$r6,$r6,1160(0x488)
  2125d4:	001394c6 	masknez	$r6,$r6,$r5
  2125d8:	001315c5 	maskeqz	$r5,$r14,$r5
  2125dc:	001518a5 	or	$r5,$r5,$r6
  2125e0:	28c0a0a6 	ld.d	$r6,$r5,40(0x28)
  2125e4:	02c02065 	addi.d	$r5,$r3,8(0x8)
  2125e8:	4c0000c1 	jirl	$r1,$r6,0
  2125ec:	28c22061 	ld.d	$r1,$r3,136(0x88)
  2125f0:	02c24063 	addi.d	$r3,$r3,144(0x90)
  2125f4:	4c000020 	jirl	$r0,$r1,0

00000000002125f8 <_ZN56_$LT$log..SetLoggerError$u20$as$u20$core..fmt..Debug$GT$3fmt17h5e29df4da0201915E>:
_ZN56_$LT$log..SetLoggerError$u20$as$u20$core..fmt..Debug$GT$3fmt17h5e29df4da0201915E():
  2125f8:	02ffc063 	addi.d	$r3,$r3,-16(0xff0)
  2125fc:	29c02061 	st.d	$r1,$r3,8(0x8)
  212600:	001500a9 	move	$r9,$r5
  212604:	29c00064 	st.d	$r4,$r3,0
  212608:	1a000084 	pcalau12i	$r4,4(0x4)
  21260c:	02fa1485 	addi.d	$r5,$r4,-379(0xe85)
  212610:	03803806 	ori	$r6,$r0,0xe
  212614:	02c00067 	addi.d	$r7,$r3,0
  212618:	1a000004 	pcalau12i	$r4,0
  21261c:	02d8d088 	addi.d	$r8,$r4,1588(0x634)
  212620:	00150124 	move	$r4,$r9
  212624:	57f07bff 	bl	-3976(0xffff078) # 21169c <_ZN4core3fmt9Formatter25debug_tuple_field1_finish17h10568bd546b30080E>
  212628:	28c02061 	ld.d	$r1,$r3,8(0x8)
  21262c:	02c04063 	addi.d	$r3,$r3,16(0x10)
  212630:	4c000020 	jirl	$r0,$r1,0

0000000000212634 <_ZN42_$LT$$RF$T$u20$as$u20$core..fmt..Debug$GT$3fmt17hd445ad24b768463eE>:
_ZN42_$LT$$RF$T$u20$as$u20$core..fmt..Debug$GT$3fmt17hd445ad24b768463eE():
  212634:	001500a4 	move	$r4,$r5
  212638:	1a000085 	pcalau12i	$r5,4(0x4)
  21263c:	02fa4ca5 	addi.d	$r5,$r5,-365(0xe93)
  212640:	03800806 	ori	$r6,$r0,0x2
  212644:	53ebb3ff 	b	-5200(0xfffebb0) # 2111f4 <_ZN4core3fmt9Formatter3pad17h0d87367d3c6ceb71E>

0000000000212648 <_ZN71_$LT$loongarch64..tlb..tlbrelo..TlbRelo$u20$as$u20$core..fmt..Debug$GT$3fmt17h6937137ab8052ff3E>:
_ZN71_$LT$loongarch64..tlb..tlbrelo..TlbRelo$u20$as$u20$core..fmt..Debug$GT$3fmt17h6937137ab8052ff3E():
  212648:	02f30063 	addi.d	$r3,$r3,-832(0xcc0)
  21264c:	29cce061 	st.d	$r1,$r3,824(0x338)
  212650:	28c00086 	ld.d	$r6,$r4,0
  212654:	0045fcc7 	srli.d	$r7,$r6,0x3f
  212658:	2902b467 	st.b	$r7,$r3,173(0xad)
  21265c:	00fef8c7 	bstrpick.d	$r7,$r6,0x3e,0x3e
  212660:	2902b867 	st.b	$r7,$r3,174(0xae)
  212664:	00fdf4c7 	bstrpick.d	$r7,$r6,0x3d,0x3d
  212668:	2902bc67 	st.b	$r7,$r3,175(0xaf)
  21266c:	02c35c67 	addi.d	$r7,$r3,215(0xd7)
  212670:	29c26067 	st.d	$r7,$r3,152(0x98)
  212674:	02c35867 	addi.d	$r7,$r3,214(0xd6)
  212678:	29c22067 	st.d	$r7,$r3,136(0x88)
  21267c:	02c32067 	addi.d	$r7,$r3,200(0xc8)
  212680:	29c1e067 	st.d	$r7,$r3,120(0x78)
  212684:	02c30067 	addi.d	$r7,$r3,192(0xc0)
  212688:	29c1a067 	st.d	$r7,$r3,104(0x68)
  21268c:	02c2fc67 	addi.d	$r7,$r3,191(0xbf)
  212690:	29c16067 	st.d	$r7,$r3,88(0x58)
  212694:	1bffffa7 	pcalau12i	$r7,-3(0xffffd)
  212698:	02c320e7 	addi.d	$r7,$r7,200(0xc8)
  21269c:	29c14067 	st.d	$r7,$r3,80(0x50)
  2126a0:	02c2c067 	addi.d	$r7,$r3,176(0xb0)
  2126a4:	29c12067 	st.d	$r7,$r3,72(0x48)
  2126a8:	02c2bc67 	addi.d	$r7,$r3,175(0xaf)
  2126ac:	29c0e067 	st.d	$r7,$r3,56(0x38)
  2126b0:	02c2b867 	addi.d	$r7,$r3,174(0xae)
  2126b4:	29c0a067 	st.d	$r7,$r3,40(0x28)
  2126b8:	1a000007 	pcalau12i	$r7,0
  2126bc:	02e080e7 	addi.d	$r7,$r7,-2016(0x820)
  2126c0:	29c28067 	st.d	$r7,$r3,160(0xa0)
  2126c4:	29c24067 	st.d	$r7,$r3,144(0x90)
  2126c8:	29c18067 	st.d	$r7,$r3,96(0x60)
  2126cc:	29c10067 	st.d	$r7,$r3,64(0x40)
  2126d0:	29c0c067 	st.d	$r7,$r3,48(0x30)
  2126d4:	29c08067 	st.d	$r7,$r3,32(0x20)
  2126d8:	02c2b467 	addi.d	$r7,$r3,173(0xad)
  2126dc:	29c06067 	st.d	$r7,$r3,24(0x18)
  2126e0:	1bffffa7 	pcalau12i	$r7,-3(0xffffd)
  2126e4:	02cf40e7 	addi.d	$r7,$r7,976(0x3d0)
  2126e8:	29c20067 	st.d	$r7,$r3,128(0x80)
  2126ec:	29c1c067 	st.d	$r7,$r3,112(0x70)
  2126f0:	29c04067 	st.d	$r7,$r3,16(0x10)
  2126f4:	02c02084 	addi.d	$r4,$r4,8(0x8)
  2126f8:	29c02064 	st.d	$r4,$r3,8(0x8)
  2126fc:	00ef30c4 	bstrpick.d	$r4,$r6,0x2f,0xc
  212700:	29c2c064 	st.d	$r4,$r3,176(0xb0)
  212704:	00c618c4 	bstrpick.d	$r4,$r6,0x6,0x6
  212708:	2902fc64 	st.b	$r4,$r3,191(0xbf)
  21270c:	00c510c4 	bstrpick.d	$r4,$r6,0x5,0x4
  212710:	29c30064 	st.d	$r4,$r3,192(0xc0)
  212714:	00c308c4 	bstrpick.d	$r4,$r6,0x3,0x2
  212718:	29c32064 	st.d	$r4,$r3,200(0xc8)
  21271c:	00c104c4 	bstrpick.d	$r4,$r6,0x1,0x1
  212720:	29035864 	st.b	$r4,$r3,214(0xd6)
  212724:	034004c4 	andi	$r4,$r6,0x1
  212728:	29035c64 	st.b	$r4,$r3,215(0xd7)
  21272c:	03802404 	ori	$r4,$r0,0x9
  212730:	29cbc064 	st.d	$r4,$r3,752(0x2f0)
  212734:	03802004 	ori	$r4,$r0,0x8
  212738:	29cae064 	st.d	$r4,$r3,696(0x2b8)
  21273c:	03801c04 	ori	$r4,$r0,0x7
  212740:	29ca0064 	st.d	$r4,$r3,640(0x280)
  212744:	03801804 	ori	$r4,$r0,0x6
  212748:	29c92064 	st.d	$r4,$r3,584(0x248)
  21274c:	03801404 	ori	$r4,$r0,0x5
  212750:	29c84064 	st.d	$r4,$r3,528(0x210)
  212754:	03808004 	ori	$r4,$r0,0x20
  212758:	00150086 	move	$r6,$r4
  21275c:	16000086 	lu32i.d	$r6,4(0x4)
  212760:	29c78066 	st.d	$r6,$r3,480(0x1e0)
  212764:	03801006 	ori	$r6,$r0,0x4
  212768:	29c76066 	st.d	$r6,$r3,472(0x1d8)
  21276c:	03800406 	ori	$r6,$r0,0x1
  212770:	29c4c066 	st.d	$r6,$r3,304(0x130)
  212774:	03800c06 	ori	$r6,$r0,0x3
  212778:	290c0066 	st.b	$r6,$r3,768(0x300)
  21277c:	290b2066 	st.b	$r6,$r3,712(0x2c8)
  212780:	290a4066 	st.b	$r6,$r3,656(0x290)
  212784:	29096066 	st.b	$r6,$r3,600(0x258)
  212788:	29088066 	st.b	$r6,$r3,544(0x220)
  21278c:	2907a066 	st.b	$r6,$r3,488(0x1e8)
  212790:	2906c066 	st.b	$r6,$r3,432(0x1b0)
  212794:	29c68066 	st.d	$r6,$r3,416(0x1a0)
  212798:	2905e066 	st.b	$r6,$r3,376(0x178)
  21279c:	29050066 	st.b	$r6,$r3,320(0x140)
  2127a0:	29042066 	st.b	$r6,$r3,264(0x108)
  2127a4:	29cbe064 	st.d	$r4,$r3,760(0x2f8)
  2127a8:	29cb0064 	st.d	$r4,$r3,704(0x2c0)
  2127ac:	29ca2064 	st.d	$r4,$r3,648(0x288)
  2127b0:	29c94064 	st.d	$r4,$r3,592(0x250)
  2127b4:	29c86064 	st.d	$r4,$r3,536(0x218)
  2127b8:	29c6a064 	st.d	$r4,$r3,424(0x1a8)
  2127bc:	29c5c064 	st.d	$r4,$r3,368(0x170)
  2127c0:	29c4e064 	st.d	$r4,$r3,312(0x138)
  2127c4:	29c40064 	st.d	$r4,$r3,256(0x100)
  2127c8:	29c3e060 	st.d	$r0,$r3,248(0xf8)
  2127cc:	03800804 	ori	$r4,$r0,0x2
  2127d0:	29cb8064 	st.d	$r4,$r3,736(0x2e0)
  2127d4:	29cb4064 	st.d	$r4,$r3,720(0x2d0)
  2127d8:	29caa064 	st.d	$r4,$r3,680(0x2a8)
  2127dc:	29ca6064 	st.d	$r4,$r3,664(0x298)
  2127e0:	29c9c064 	st.d	$r4,$r3,624(0x270)
  2127e4:	29c98064 	st.d	$r4,$r3,608(0x260)
  2127e8:	29c8e064 	st.d	$r4,$r3,568(0x238)
  2127ec:	29c8a064 	st.d	$r4,$r3,552(0x228)
  2127f0:	29c80064 	st.d	$r4,$r3,512(0x200)
  2127f4:	29c7c064 	st.d	$r4,$r3,496(0x1f0)
  2127f8:	29c72064 	st.d	$r4,$r3,456(0x1c8)
  2127fc:	29c6e064 	st.d	$r4,$r3,440(0x1b8)
  212800:	29c64064 	st.d	$r4,$r3,400(0x190)
  212804:	29c60064 	st.d	$r4,$r3,384(0x180)
  212808:	29c5a064 	st.d	$r4,$r3,360(0x168)
  21280c:	29c56064 	st.d	$r4,$r3,344(0x158)
  212810:	29c52064 	st.d	$r4,$r3,328(0x148)
  212814:	29c48064 	st.d	$r4,$r3,288(0x120)
  212818:	29c44064 	st.d	$r4,$r3,272(0x110)
  21281c:	29c3a064 	st.d	$r4,$r3,232(0xe8)
  212820:	29c36064 	st.d	$r4,$r3,216(0xd8)
  212824:	28c0a0a7 	ld.d	$r7,$r5,40(0x28)
  212828:	28c080a4 	ld.d	$r4,$r5,32(0x20)
  21282c:	02c36065 	addi.d	$r5,$r3,216(0xd8)
  212830:	29cca065 	st.d	$r5,$r3,808(0x328)
  212834:	02c02065 	addi.d	$r5,$r3,8(0x8)
  212838:	29cc6065 	st.d	$r5,$r3,792(0x318)
  21283c:	03802805 	ori	$r5,$r0,0xa
  212840:	29ccc065 	st.d	$r5,$r3,816(0x330)
  212844:	29cc8065 	st.d	$r5,$r3,800(0x320)
  212848:	29cc4065 	st.d	$r5,$r3,784(0x310)
  21284c:	1a0000c5 	pcalau12i	$r5,6(0x6)
  212850:	02d320a5 	addi.d	$r5,$r5,1224(0x4c8)
  212854:	29cc2065 	st.d	$r5,$r3,776(0x308)
  212858:	02cc2066 	addi.d	$r6,$r3,776(0x308)
  21285c:	001500e5 	move	$r5,$r7
  212860:	57e387ff 	bl	-7292(0xfffe384) # 210be4 <_ZN4core3fmt5write17hf855db0f875ea3deE>
  212864:	28cce061 	ld.d	$r1,$r3,824(0x338)
  212868:	02cd0063 	addi.d	$r3,$r3,832(0x340)
  21286c:	4c000020 	jirl	$r0,$r1,0

0000000000212870 <_ZN42_$LT$$RF$T$u20$as$u20$core..fmt..Debug$GT$3fmt17h09940e53e85de4dbE>:
_ZN42_$LT$$RF$T$u20$as$u20$core..fmt..Debug$GT$3fmt17h09940e53e85de4dbE():
  212870:	02fdc063 	addi.d	$r3,$r3,-144(0xf70)
  212874:	29c22061 	st.d	$r1,$r3,136(0x88)
  212878:	28c00084 	ld.d	$r4,$r4,0
  21287c:	2a80d0a6 	ld.wu	$r6,$r5,52(0x34)
  212880:	034040c7 	andi	$r7,$r6,0x10
  212884:	440018e0 	bnez	$r7,24(0x18) # 21289c <_ZN42_$LT$$RF$T$u20$as$u20$core..fmt..Debug$GT$3fmt17h09940e53e85de4dbE+0x2c>
  212888:	034080c6 	andi	$r6,$r6,0x20
  21288c:	44005cc0 	bnez	$r6,92(0x5c) # 2128e8 <_ZN42_$LT$$RF$T$u20$as$u20$core..fmt..Debug$GT$3fmt17h09940e53e85de4dbE+0x78>
  212890:	28c22061 	ld.d	$r1,$r3,136(0x88)
  212894:	02c24063 	addi.d	$r3,$r3,144(0x90)
  212898:	53cb3bff 	b	-13512(0xfffcb38) # 20f3d0 <_ZN4core3fmt3num3imp52_$LT$impl$u20$core..fmt..Display$u20$for$u20$u64$GT$3fmt17h0b6ebaba01c8b118E>
  21289c:	28c0008a 	ld.d	$r10,$r4,0
  2128a0:	03815c04 	ori	$r4,$r0,0x57
  2128a4:	0380c008 	ori	$r8,$r0,0x30
  2128a8:	02c02066 	addi.d	$r6,$r3,8(0x8)
  2128ac:	03804009 	ori	$r9,$r0,0x10
  2128b0:	00150007 	move	$r7,$r0
  2128b4:	0015014b 	move	$r11,$r10
  2128b8:	03403d4a 	andi	$r10,$r10,0xf
  2128bc:	0240294c 	sltui	$r12,$r10,10(0xa)
  2128c0:	0013b08d 	masknez	$r13,$r4,$r12
  2128c4:	0013310c 	maskeqz	$r12,$r8,$r12
  2128c8:	0015358c 	or	$r12,$r12,$r13
  2128cc:	0010a98a 	add.d	$r10,$r12,$r10
  2128d0:	00109ccc 	add.d	$r12,$r6,$r7
  2128d4:	2901fd8a 	st.b	$r10,$r12,127(0x7f)
  2128d8:	02fffce7 	addi.d	$r7,$r7,-1(0xfff)
  2128dc:	0045116a 	srli.d	$r10,$r11,0x4
  2128e0:	6fffd569 	bgeu	$r11,$r9,-44(0x3ffd4) # 2128b4 <_ZN42_$LT$$RF$T$u20$as$u20$core..fmt..Debug$GT$3fmt17h09940e53e85de4dbE+0x44>
  2128e4:	50004c00 	b	76(0x4c) # 212930 <_ZN42_$LT$$RF$T$u20$as$u20$core..fmt..Debug$GT$3fmt17h09940e53e85de4dbE+0xc0>
  2128e8:	28c0008a 	ld.d	$r10,$r4,0
  2128ec:	0380dc04 	ori	$r4,$r0,0x37
  2128f0:	0380c008 	ori	$r8,$r0,0x30
  2128f4:	02c02066 	addi.d	$r6,$r3,8(0x8)
  2128f8:	03804009 	ori	$r9,$r0,0x10
  2128fc:	00150007 	move	$r7,$r0
  212900:	0015014b 	move	$r11,$r10
  212904:	03403d4a 	andi	$r10,$r10,0xf
  212908:	0240294c 	sltui	$r12,$r10,10(0xa)
  21290c:	0013b08d 	masknez	$r13,$r4,$r12
  212910:	0013310c 	maskeqz	$r12,$r8,$r12
  212914:	0015358c 	or	$r12,$r12,$r13
  212918:	0010a98a 	add.d	$r10,$r12,$r10
  21291c:	00109ccc 	add.d	$r12,$r6,$r7
  212920:	2901fd8a 	st.b	$r10,$r12,127(0x7f)
  212924:	02fffce7 	addi.d	$r7,$r7,-1(0xfff)
  212928:	0045116a 	srli.d	$r10,$r11,0x4
  21292c:	6fffd569 	bgeu	$r11,$r9,-44(0x3ffd4) # 212900 <_ZN42_$LT$$RF$T$u20$as$u20$core..fmt..Debug$GT$3fmt17h09940e53e85de4dbE+0x90>
  212930:	02c200e4 	addi.d	$r4,$r7,128(0x80)
  212934:	03820408 	ori	$r8,$r0,0x81
  212938:	6c003488 	bgeu	$r4,$r8,52(0x34) # 21296c <_ZN42_$LT$$RF$T$u20$as$u20$core..fmt..Debug$GT$3fmt17h09940e53e85de4dbE+0xfc>
  21293c:	00119c08 	sub.d	$r8,$r0,$r7
  212940:	00109cc4 	add.d	$r4,$r6,$r7
  212944:	02c20087 	addi.d	$r7,$r4,128(0x80)
  212948:	1a000084 	pcalau12i	$r4,4(0x4)
  21294c:	02c59889 	addi.d	$r9,$r4,358(0x166)
  212950:	03800806 	ori	$r6,$r0,0x2
  212954:	001500a4 	move	$r4,$r5
  212958:	00150125 	move	$r5,$r9
  21295c:	57e4fbff 	bl	-6920(0xfffe4f8) # 210e54 <_ZN4core3fmt9Formatter12pad_integral17hfdb629c44e553f8dE>
  212960:	28c22061 	ld.d	$r1,$r3,136(0x88)
  212964:	02c24063 	addi.d	$r3,$r3,144(0x90)
  212968:	4c000020 	jirl	$r0,$r1,0
  21296c:	03820005 	ori	$r5,$r0,0x80
  212970:	1a0000c6 	pcalau12i	$r6,6(0x6)
  212974:	02ccc0c6 	addi.d	$r6,$r6,816(0x330)
  212978:	57dbfbff 	bl	-9224(0xfffdbf8) # 210570 <_ZN4core5slice5index26slice_start_index_len_fail17h7935edb336fdba66E>
  21297c:	38600400 	amswap.w	$r0,$r1,$r0

0000000000212980 <_ZN11loongarch643tlb8tlbentry9TLBREntry7set_val17h939bcfea8fa68920E>:
_ZN11loongarch643tlb8tlbentry9TLBREntry7set_val17h939bcfea8fa68920E():
  212980:	037ffca6 	andi	$r6,$r5,0xfff
  212984:	44000cc0 	bnez	$r6,12(0xc) # 212990 <_ZN11loongarch643tlb8tlbentry9TLBREntry7set_val17h939bcfea8fa68920E+0x10>
  212988:	29c00085 	st.d	$r5,$r4,0
  21298c:	4c000020 	jirl	$r0,$r1,0
  212990:	1a000084 	pcalau12i	$r4,4(0x4)
  212994:	02c14884 	addi.d	$r4,$r4,82(0x52)
  212998:	03808805 	ori	$r5,$r0,0x22
  21299c:	1a0000c6 	pcalau12i	$r6,6(0x6)
  2129a0:	02d5a0c6 	addi.d	$r6,$r6,1384(0x568)
  2129a4:	57d8e7ff 	bl	-10012(0xfffd8e4) # 210288 <_ZN4core9panicking5panic17hd6bc259b6eb19bb3E>
  2129a8:	38600400 	amswap.w	$r0,$r1,$r0

00000000002129ac <_ZN11loongarch648register5estat5Estat5cause17h8628d631df43b606E>:
_ZN11loongarch648register5estat5Estat5cause17h8628d631df43b606E():
  2129ac:	00150086 	move	$r6,$r4
  2129b0:	04022804 	csrrd	$r4,0x8a
  2129b4:	03400484 	andi	$r4,$r4,0x1
  2129b8:	44002c80 	bnez	$r4,44(0x2c) # 2129e4 <_ZN11loongarch648register5estat5Estat5cause17h8628d631df43b606E+0x38>
  2129bc:	00d500c5 	bstrpick.d	$r5,$r6,0x15,0x0
  2129c0:	140001e4 	lu12i.w	$r4,15(0xf)
  2129c4:	03bffc84 	ori	$r4,$r4,0xfff
  2129c8:	68002885 	bltu	$r4,$r5,40(0x28) # 2129f0 <_ZN11loongarch648register5estat5Estat5cause17h8628d631df43b606E+0x44>
  2129cc:	04001004 	csrrd	$r4,0x4
  2129d0:	14000e05 	lu12i.w	$r5,112(0x70)
  2129d4:	00149484 	and	$r4,$r4,$r5
  2129d8:	40004c80 	beqz	$r4,76(0x4c) # 212a24 <_ZN11loongarch648register5estat5Estat5cause17h8628d631df43b606E+0x78>
  2129dc:	03800804 	ori	$r4,$r0,0x2
  2129e0:	4c000020 	jirl	$r0,$r1,0
  2129e4:	03804005 	ori	$r5,$r0,0x10
  2129e8:	00150004 	move	$r4,$r0
  2129ec:	4c000020 	jirl	$r0,$r1,0
  2129f0:	03800804 	ori	$r4,$r0,0x2
  2129f4:	004540a5 	srli.d	$r5,$r5,0x10
  2129f8:	02fffca7 	addi.d	$r7,$r5,-1(0xfff)
  2129fc:	03803805 	ori	$r5,$r0,0xe
  212a00:	6800c0a7 	bltu	$r5,$r7,192(0xc0) # 212ac0 <_ZN11loongarch648register5estat5Estat5cause17h8628d631df43b606E+0x114>
  212a04:	004108e7 	slli.d	$r7,$r7,0x2
  212a08:	1a000048 	pcalau12i	$r8,2(0x2)
  212a0c:	02c62108 	addi.d	$r8,$r8,392(0x188)
  212a10:	380820e7 	ldx.w	$r7,$r7,$r8
  212a14:	0010a0e7 	add.d	$r7,$r7,$r8
  212a18:	4c0000e0 	jirl	$r0,$r7,0
  212a1c:	00150005 	move	$r5,$r0
  212a20:	53ffcbff 	b	-56(0xfffffc8) # 2129e8 <_ZN11loongarch648register5estat5Estat5cause17h8628d631df43b606E+0x3c>
  212a24:	14000024 	lu12i.w	$r4,1(0x1)
  212a28:	001490c5 	and	$r5,$r6,$r4
  212a2c:	03800404 	ori	$r4,$r0,0x1
  212a30:	440080a0 	bnez	$r5,128(0x80) # 212ab0 <_ZN11loongarch648register5estat5Estat5cause17h8628d631df43b606E+0x104>
  212a34:	036000c5 	andi	$r5,$r6,0x800
  212a38:	440080a0 	bnez	$r5,128(0x80) # 212ab8 <_ZN11loongarch648register5estat5Estat5cause17h8628d631df43b606E+0x10c>
  212a3c:	035000c5 	andi	$r5,$r6,0x400
  212a40:	440100a0 	bnez	$r5,256(0x100) # 212b40 <_ZN11loongarch648register5estat5Estat5cause17h8628d631df43b606E+0x194>
  212a44:	034800c5 	andi	$r5,$r6,0x200
  212a48:	440100a0 	bnez	$r5,256(0x100) # 212b48 <_ZN11loongarch648register5estat5Estat5cause17h8628d631df43b606E+0x19c>
  212a4c:	034400c5 	andi	$r5,$r6,0x100
  212a50:	440108a0 	bnez	$r5,264(0x108) # 212b58 <_ZN11loongarch648register5estat5Estat5cause17h8628d631df43b606E+0x1ac>
  212a54:	034200c5 	andi	$r5,$r6,0x80
  212a58:	440108a0 	bnez	$r5,264(0x108) # 212b60 <_ZN11loongarch648register5estat5Estat5cause17h8628d631df43b606E+0x1b4>
  212a5c:	034100c5 	andi	$r5,$r6,0x40
  212a60:	440108a0 	bnez	$r5,264(0x108) # 212b68 <_ZN11loongarch648register5estat5Estat5cause17h8628d631df43b606E+0x1bc>
  212a64:	034080c5 	andi	$r5,$r6,0x20
  212a68:	440108a0 	bnez	$r5,264(0x108) # 212b70 <_ZN11loongarch648register5estat5Estat5cause17h8628d631df43b606E+0x1c4>
  212a6c:	034040c5 	andi	$r5,$r6,0x10
  212a70:	440108a0 	bnez	$r5,264(0x108) # 212b78 <_ZN11loongarch648register5estat5Estat5cause17h8628d631df43b606E+0x1cc>
  212a74:	034020c5 	andi	$r5,$r6,0x8
  212a78:	440108a0 	bnez	$r5,264(0x108) # 212b80 <_ZN11loongarch648register5estat5Estat5cause17h8628d631df43b606E+0x1d4>
  212a7c:	034010c5 	andi	$r5,$r6,0x4
  212a80:	440108a0 	bnez	$r5,264(0x108) # 212b88 <_ZN11loongarch648register5estat5Estat5cause17h8628d631df43b606E+0x1dc>
  212a84:	034008c4 	andi	$r4,$r6,0x2
  212a88:	44010880 	bnez	$r4,264(0x108) # 212b90 <_ZN11loongarch648register5estat5Estat5cause17h8628d631df43b606E+0x1e4>
  212a8c:	034004c4 	andi	$r4,$r6,0x1
  212a90:	02400484 	sltui	$r4,$r4,1(0x1)
  212a94:	03800405 	ori	$r5,$r0,0x1
  212a98:	001390a5 	masknez	$r5,$r5,$r4
  212a9c:	03800806 	ori	$r6,$r0,0x2
  212aa0:	001310c4 	maskeqz	$r4,$r6,$r4
  212aa4:	00151484 	or	$r4,$r4,$r5
  212aa8:	00150005 	move	$r5,$r0
  212aac:	4c000020 	jirl	$r0,$r1,0
  212ab0:	03803005 	ori	$r5,$r0,0xc
  212ab4:	4c000020 	jirl	$r0,$r1,0
  212ab8:	03802c05 	ori	$r5,$r0,0xb
  212abc:	4c000020 	jirl	$r0,$r1,0
  212ac0:	4c000020 	jirl	$r0,$r1,0
  212ac4:	03800405 	ori	$r5,$r0,0x1
  212ac8:	53ff23ff 	b	-224(0xfffff20) # 2129e8 <_ZN11loongarch648register5estat5Estat5cause17h8628d631df43b606E+0x3c>
  212acc:	03800805 	ori	$r5,$r0,0x2
  212ad0:	53ff1bff 	b	-232(0xfffff18) # 2129e8 <_ZN11loongarch648register5estat5Estat5cause17h8628d631df43b606E+0x3c>
  212ad4:	03800c05 	ori	$r5,$r0,0x3
  212ad8:	53ff13ff 	b	-240(0xfffff10) # 2129e8 <_ZN11loongarch648register5estat5Estat5cause17h8628d631df43b606E+0x3c>
  212adc:	03801005 	ori	$r5,$r0,0x4
  212ae0:	53ff0bff 	b	-248(0xfffff08) # 2129e8 <_ZN11loongarch648register5estat5Estat5cause17h8628d631df43b606E+0x3c>
  212ae4:	03801405 	ori	$r5,$r0,0x5
  212ae8:	53ff03ff 	b	-256(0xfffff00) # 2129e8 <_ZN11loongarch648register5estat5Estat5cause17h8628d631df43b606E+0x3c>
  212aec:	03801805 	ori	$r5,$r0,0x6
  212af0:	53fefbff 	b	-264(0xffffef8) # 2129e8 <_ZN11loongarch648register5estat5Estat5cause17h8628d631df43b606E+0x3c>
  212af4:	00de58c6 	bstrpick.d	$r6,$r6,0x1e,0x16
  212af8:	03800405 	ori	$r5,$r0,0x1
  212afc:	580054c5 	beq	$r6,$r5,84(0x54) # 212b50 <_ZN11loongarch648register5estat5Estat5cause17h8628d631df43b606E+0x1a4>
  212b00:	03800807 	ori	$r7,$r0,0x2
  212b04:	5ffee8c7 	bne	$r6,$r7,-280(0x3fee8) # 2129ec <_ZN11loongarch648register5estat5Estat5cause17h8628d631df43b606E+0x40>
  212b08:	03802005 	ori	$r5,$r0,0x8
  212b0c:	53fedfff 	b	-292(0xffffedc) # 2129e8 <_ZN11loongarch648register5estat5Estat5cause17h8628d631df43b606E+0x3c>
  212b10:	03802405 	ori	$r5,$r0,0x9
  212b14:	53fed7ff 	b	-300(0xffffed4) # 2129e8 <_ZN11loongarch648register5estat5Estat5cause17h8628d631df43b606E+0x3c>
  212b18:	03802805 	ori	$r5,$r0,0xa
  212b1c:	53fecfff 	b	-308(0xffffecc) # 2129e8 <_ZN11loongarch648register5estat5Estat5cause17h8628d631df43b606E+0x3c>
  212b20:	03802c05 	ori	$r5,$r0,0xb
  212b24:	53fec7ff 	b	-316(0xffffec4) # 2129e8 <_ZN11loongarch648register5estat5Estat5cause17h8628d631df43b606E+0x3c>
  212b28:	03803005 	ori	$r5,$r0,0xc
  212b2c:	53febfff 	b	-324(0xffffebc) # 2129e8 <_ZN11loongarch648register5estat5Estat5cause17h8628d631df43b606E+0x3c>
  212b30:	03803405 	ori	$r5,$r0,0xd
  212b34:	53feb7ff 	b	-332(0xffffeb4) # 2129e8 <_ZN11loongarch648register5estat5Estat5cause17h8628d631df43b606E+0x3c>
  212b38:	03803c05 	ori	$r5,$r0,0xf
  212b3c:	53feafff 	b	-340(0xffffeac) # 2129e8 <_ZN11loongarch648register5estat5Estat5cause17h8628d631df43b606E+0x3c>
  212b40:	03802805 	ori	$r5,$r0,0xa
  212b44:	4c000020 	jirl	$r0,$r1,0
  212b48:	03802405 	ori	$r5,$r0,0x9
  212b4c:	4c000020 	jirl	$r0,$r1,0
  212b50:	03801c05 	ori	$r5,$r0,0x7
  212b54:	53fe97ff 	b	-364(0xffffe94) # 2129e8 <_ZN11loongarch648register5estat5Estat5cause17h8628d631df43b606E+0x3c>
  212b58:	03802005 	ori	$r5,$r0,0x8
  212b5c:	4c000020 	jirl	$r0,$r1,0
  212b60:	03801c05 	ori	$r5,$r0,0x7
  212b64:	4c000020 	jirl	$r0,$r1,0
  212b68:	03801805 	ori	$r5,$r0,0x6
  212b6c:	4c000020 	jirl	$r0,$r1,0
  212b70:	03801405 	ori	$r5,$r0,0x5
  212b74:	4c000020 	jirl	$r0,$r1,0
  212b78:	03801005 	ori	$r5,$r0,0x4
  212b7c:	4c000020 	jirl	$r0,$r1,0
  212b80:	03800c05 	ori	$r5,$r0,0x3
  212b84:	4c000020 	jirl	$r0,$r1,0
  212b88:	03800805 	ori	$r5,$r0,0x2
  212b8c:	4c000020 	jirl	$r0,$r1,0
  212b90:	03800405 	ori	$r5,$r0,0x1
  212b94:	001500a4 	move	$r4,$r5
  212b98:	4c000020 	jirl	$r0,$r1,0

0000000000212b9c <_ZN71_$LT$loongarch64..register..estat..Trap$u20$as$u20$core..fmt..Debug$GT$3fmt17h75225305871bdd4aE>:
_ZN71_$LT$loongarch64..register..estat..Trap$u20$as$u20$core..fmt..Debug$GT$3fmt17h75225305871bdd4aE():
  212b9c:	02ffc063 	addi.d	$r3,$r3,-16(0xff0)
  212ba0:	29c02061 	st.d	$r1,$r3,8(0x8)
  212ba4:	2a000086 	ld.bu	$r6,$r4,0
  212ba8:	400030c0 	beqz	$r6,48(0x30) # 212bd8 <_ZN71_$LT$loongarch64..register..estat..Trap$u20$as$u20$core..fmt..Debug$GT$3fmt17h75225305871bdd4aE+0x3c>
  212bac:	03800407 	ori	$r7,$r0,0x1
  212bb0:	5c0060c7 	bne	$r6,$r7,96(0x60) # 212c10 <_ZN71_$LT$loongarch64..register..estat..Trap$u20$as$u20$core..fmt..Debug$GT$3fmt17h75225305871bdd4aE+0x74>
  212bb4:	02c00484 	addi.d	$r4,$r4,1(0x1)
  212bb8:	29c00064 	st.d	$r4,$r3,0
  212bbc:	1a000084 	pcalau12i	$r4,4(0x4)
  212bc0:	02ffd089 	addi.d	$r9,$r4,-12(0xff4)
  212bc4:	03802406 	ori	$r6,$r0,0x9
  212bc8:	02c00067 	addi.d	$r7,$r3,0
  212bcc:	1a000024 	pcalau12i	$r4,1(0x1)
  212bd0:	02f0d088 	addi.d	$r8,$r4,-972(0xc34)
  212bd4:	50002400 	b	36(0x24) # 212bf8 <_ZN71_$LT$loongarch64..register..estat..Trap$u20$as$u20$core..fmt..Debug$GT$3fmt17h75225305871bdd4aE+0x5c>
  212bd8:	02c00484 	addi.d	$r4,$r4,1(0x1)
  212bdc:	29c00064 	st.d	$r4,$r3,0
  212be0:	1a000084 	pcalau12i	$r4,4(0x4)
  212be4:	02ffac89 	addi.d	$r9,$r4,-21(0xfeb)
  212be8:	03802406 	ori	$r6,$r0,0x9
  212bec:	02c00067 	addi.d	$r7,$r3,0
  212bf0:	1a000024 	pcalau12i	$r4,1(0x1)
  212bf4:	02f1b088 	addi.d	$r8,$r4,-916(0xc6c)
  212bf8:	001500a4 	move	$r4,$r5
  212bfc:	00150125 	move	$r5,$r9
  212c00:	57ea9fff 	bl	-5476(0xfffea9c) # 21169c <_ZN4core3fmt9Formatter25debug_tuple_field1_finish17h10568bd546b30080E>
  212c04:	28c02061 	ld.d	$r1,$r3,8(0x8)
  212c08:	02c04063 	addi.d	$r3,$r3,16(0x10)
  212c0c:	4c000020 	jirl	$r0,$r1,0
  212c10:	28c080a4 	ld.d	$r4,$r5,32(0x20)
  212c14:	28c0a0a5 	ld.d	$r5,$r5,40(0x28)
  212c18:	28c060a7 	ld.d	$r7,$r5,24(0x18)
  212c1c:	1a000085 	pcalau12i	$r5,4(0x4)
  212c20:	02fff4a5 	addi.d	$r5,$r5,-3(0xffd)
  212c24:	03801c06 	ori	$r6,$r0,0x7
  212c28:	28c02061 	ld.d	$r1,$r3,8(0x8)
  212c2c:	02c04063 	addi.d	$r3,$r3,16(0x10)
  212c30:	4c0000e0 	jirl	$r0,$r7,0

0000000000212c34 <_ZN42_$LT$$RF$T$u20$as$u20$core..fmt..Debug$GT$3fmt17hd352c22e05919dd6E>:
_ZN42_$LT$$RF$T$u20$as$u20$core..fmt..Debug$GT$3fmt17hd352c22e05919dd6E():
  212c34:	28c00084 	ld.d	$r4,$r4,0
  212c38:	2a000084 	ld.bu	$r4,$r4,0
  212c3c:	00410c84 	slli.d	$r4,$r4,0x3
  212c40:	1a0000e6 	pcalau12i	$r6,7(0x7)
  212c44:	02e4a0c6 	addi.d	$r6,$r6,-1752(0x928)
  212c48:	380c10c7 	ldx.d	$r7,$r6,$r4
  212c4c:	1a000086 	pcalau12i	$r6,4(0x4)
  212c50:	02cda0c6 	addi.d	$r6,$r6,872(0x368)
  212c54:	380c10c6 	ldx.d	$r6,$r6,$r4
  212c58:	28c080a4 	ld.d	$r4,$r5,32(0x20)
  212c5c:	28c0a0a5 	ld.d	$r5,$r5,40(0x28)
  212c60:	28c060a8 	ld.d	$r8,$r5,24(0x18)
  212c64:	001500e5 	move	$r5,$r7
  212c68:	4c000100 	jirl	$r0,$r8,0

0000000000212c6c <_ZN42_$LT$$RF$T$u20$as$u20$core..fmt..Debug$GT$3fmt17hf2bd414df32b7391E>:
_ZN42_$LT$$RF$T$u20$as$u20$core..fmt..Debug$GT$3fmt17hf2bd414df32b7391E():
  212c6c:	28c00084 	ld.d	$r4,$r4,0
  212c70:	2a000084 	ld.bu	$r4,$r4,0
  212c74:	00410c84 	slli.d	$r4,$r4,0x3
  212c78:	1a0000e6 	pcalau12i	$r6,7(0x7)
  212c7c:	02e640c6 	addi.d	$r6,$r6,-1648(0x990)
  212c80:	380c10c7 	ldx.d	$r7,$r6,$r4
  212c84:	1a000086 	pcalau12i	$r6,4(0x4)
  212c88:	02cf40c6 	addi.d	$r6,$r6,976(0x3d0)
  212c8c:	380c10c6 	ldx.d	$r6,$r6,$r4
  212c90:	28c080a4 	ld.d	$r4,$r5,32(0x20)
  212c94:	28c0a0a5 	ld.d	$r5,$r5,40(0x28)
  212c98:	28c060a8 	ld.d	$r8,$r5,24(0x18)
  212c9c:	001500e5 	move	$r5,$r7
  212ca0:	4c000100 	jirl	$r0,$r8,0

0000000000212ca4 <_ZN74_$LT$loongarch64..register..prcfg1..Prcfg1$u20$as$u20$core..fmt..Debug$GT$3fmt17h73f9836747d35eccE>:
_ZN74_$LT$loongarch64..register..prcfg1..Prcfg1$u20$as$u20$core..fmt..Debug$GT$3fmt17h73f9836747d35eccE():
  212ca4:	02ff4063 	addi.d	$r3,$r3,-48(0xfd0)
  212ca8:	29c0a061 	st.d	$r1,$r3,40(0x28)
  212cac:	29c08076 	st.d	$r22,$r3,32(0x20)
  212cb0:	001500b6 	move	$r22,$r5
  212cb4:	29c02064 	st.d	$r4,$r3,8(0x8)
  212cb8:	28c0a0a4 	ld.d	$r4,$r5,40(0x28)
  212cbc:	28c06087 	ld.d	$r7,$r4,24(0x18)
  212cc0:	28c080a4 	ld.d	$r4,$r5,32(0x20)
  212cc4:	1a000085 	pcalau12i	$r5,4(0x4)
  212cc8:	02c258a5 	addi.d	$r5,$r5,150(0x96)
  212ccc:	03801806 	ori	$r6,$r0,0x6
  212cd0:	4c0000e1 	jirl	$r1,$r7,0
  212cd4:	29006460 	st.b	$r0,$r3,25(0x19)
  212cd8:	29006064 	st.b	$r4,$r3,24(0x18)
  212cdc:	29c04076 	st.d	$r22,$r3,16(0x10)
  212ce0:	02c04064 	addi.d	$r4,$r3,16(0x10)
  212ce4:	1a000045 	pcalau12i	$r5,2(0x2)
  212ce8:	02d700a5 	addi.d	$r5,$r5,1472(0x5c0)
  212cec:	03801006 	ori	$r6,$r0,0x4
  212cf0:	02c02067 	addi.d	$r7,$r3,8(0x8)
  212cf4:	1a000028 	pcalau12i	$r8,1(0x1)
  212cf8:	02e1c108 	addi.d	$r8,$r8,-1936(0x870)
  212cfc:	57cb33ff 	bl	-13520(0xfffcb30) # 20f82c <_ZN4core3fmt8builders11DebugStruct5field17h320ddce9d02d7eafE>
  212d00:	28006064 	ld.b	$r4,$r3,24(0x18)
  212d04:	2a006465 	ld.bu	$r5,$r3,25(0x19)
  212d08:	400020a0 	beqz	$r5,32(0x20) # 212d28 <_ZN74_$LT$loongarch64..register..prcfg1..Prcfg1$u20$as$u20$core..fmt..Debug$GT$3fmt17h73f9836747d35eccE+0x84>
  212d0c:	0343fc84 	andi	$r4,$r4,0xff
  212d10:	40003080 	beqz	$r4,48(0x30) # 212d40 <_ZN74_$LT$loongarch64..register..prcfg1..Prcfg1$u20$as$u20$core..fmt..Debug$GT$3fmt17h73f9836747d35eccE+0x9c>
  212d14:	03800404 	ori	$r4,$r0,0x1
  212d18:	28c08076 	ld.d	$r22,$r3,32(0x20)
  212d1c:	28c0a061 	ld.d	$r1,$r3,40(0x28)
  212d20:	02c0c063 	addi.d	$r3,$r3,48(0x30)
  212d24:	4c000020 	jirl	$r0,$r1,0
  212d28:	0343fc84 	andi	$r4,$r4,0xff
  212d2c:	00129004 	sltu	$r4,$r0,$r4
  212d30:	28c08076 	ld.d	$r22,$r3,32(0x20)
  212d34:	28c0a061 	ld.d	$r1,$r3,40(0x28)
  212d38:	02c0c063 	addi.d	$r3,$r3,48(0x30)
  212d3c:	4c000020 	jirl	$r0,$r1,0
  212d40:	28c04065 	ld.d	$r5,$r3,16(0x10)
  212d44:	2a00d0a4 	ld.bu	$r4,$r5,52(0x34)
  212d48:	03401084 	andi	$r4,$r4,0x4
  212d4c:	44002080 	bnez	$r4,32(0x20) # 212d6c <_ZN74_$LT$loongarch64..register..prcfg1..Prcfg1$u20$as$u20$core..fmt..Debug$GT$3fmt17h73f9836747d35eccE+0xc8>
  212d50:	28c080a4 	ld.d	$r4,$r5,32(0x20)
  212d54:	28c0a0a5 	ld.d	$r5,$r5,40(0x28)
  212d58:	28c060a7 	ld.d	$r7,$r5,24(0x18)
  212d5c:	1a000085 	pcalau12i	$r5,4(0x4)
  212d60:	02f824a5 	addi.d	$r5,$r5,-503(0xe09)
  212d64:	03800806 	ori	$r6,$r0,0x2
  212d68:	50001c00 	b	28(0x1c) # 212d84 <_ZN74_$LT$loongarch64..register..prcfg1..Prcfg1$u20$as$u20$core..fmt..Debug$GT$3fmt17h73f9836747d35eccE+0xe0>
  212d6c:	28c080a4 	ld.d	$r4,$r5,32(0x20)
  212d70:	28c0a0a5 	ld.d	$r5,$r5,40(0x28)
  212d74:	28c060a7 	ld.d	$r7,$r5,24(0x18)
  212d78:	1a000085 	pcalau12i	$r5,4(0x4)
  212d7c:	02f820a5 	addi.d	$r5,$r5,-504(0xe08)
  212d80:	03800406 	ori	$r6,$r0,0x1
  212d84:	4c0000e1 	jirl	$r1,$r7,0
  212d88:	28c08076 	ld.d	$r22,$r3,32(0x20)
  212d8c:	28c0a061 	ld.d	$r1,$r3,40(0x28)
  212d90:	02c0c063 	addi.d	$r3,$r3,48(0x30)
  212d94:	4c000020 	jirl	$r0,$r1,0

0000000000212d98 <_ZN58_$LT$memory_addr..PhysAddr$u20$as$u20$core..fmt..Debug$GT$3fmt17hc3abdd98dc9f38b3E>:
_ZN58_$LT$memory_addr..PhysAddr$u20$as$u20$core..fmt..Debug$GT$3fmt17hc3abdd98dc9f38b3E():
  212d98:	02fe0063 	addi.d	$r3,$r3,-128(0xf80)
  212d9c:	29c1e061 	st.d	$r1,$r3,120(0x78)
  212da0:	1bffffa6 	pcalau12i	$r6,-3(0xffffd)
  212da4:	02c320c6 	addi.d	$r6,$r6,200(0xc8)
  212da8:	29c02066 	st.d	$r6,$r3,8(0x8)
  212dac:	29c00064 	st.d	$r4,$r3,0
  212db0:	03800c04 	ori	$r4,$r0,0x3
  212db4:	29010064 	st.b	$r4,$r3,64(0x40)
  212db8:	03808004 	ori	$r4,$r0,0x20
  212dbc:	16000084 	lu32i.d	$r4,4(0x4)
  212dc0:	29c0e064 	st.d	$r4,$r3,56(0x38)
  212dc4:	29c0c060 	st.d	$r0,$r3,48(0x30)
  212dc8:	03800804 	ori	$r4,$r0,0x2
  212dcc:	29c08064 	st.d	$r4,$r3,32(0x20)
  212dd0:	29c04064 	st.d	$r4,$r3,16(0x10)
  212dd4:	28c0a0a7 	ld.d	$r7,$r5,40(0x28)
  212dd8:	28c080a4 	ld.d	$r4,$r5,32(0x20)
  212ddc:	02c04065 	addi.d	$r5,$r3,16(0x10)
  212de0:	29c1a065 	st.d	$r5,$r3,104(0x68)
  212de4:	02c00065 	addi.d	$r5,$r3,0
  212de8:	29c16065 	st.d	$r5,$r3,88(0x58)
  212dec:	03800405 	ori	$r5,$r0,0x1
  212df0:	29c1c065 	st.d	$r5,$r3,112(0x70)
  212df4:	29c18065 	st.d	$r5,$r3,96(0x60)
  212df8:	29c14065 	st.d	$r5,$r3,80(0x50)
  212dfc:	1a0000c5 	pcalau12i	$r5,6(0x6)
  212e00:	02d6c0a5 	addi.d	$r5,$r5,1456(0x5b0)
  212e04:	29c12065 	st.d	$r5,$r3,72(0x48)
  212e08:	02c12066 	addi.d	$r6,$r3,72(0x48)
  212e0c:	001500e5 	move	$r5,$r7
  212e10:	57ddd7ff 	bl	-8748(0xfffddd4) # 210be4 <_ZN4core3fmt5write17hf855db0f875ea3deE>
  212e14:	28c1e061 	ld.d	$r1,$r3,120(0x78)
  212e18:	02c20063 	addi.d	$r3,$r3,128(0x80)
  212e1c:	4c000020 	jirl	$r0,$r1,0

0000000000212e20 <_ZN58_$LT$memory_addr..VirtAddr$u20$as$u20$core..fmt..Debug$GT$3fmt17h425d1a76d110662aE>:
_ZN58_$LT$memory_addr..VirtAddr$u20$as$u20$core..fmt..Debug$GT$3fmt17h425d1a76d110662aE():
  212e20:	02fe0063 	addi.d	$r3,$r3,-128(0xf80)
  212e24:	29c1e061 	st.d	$r1,$r3,120(0x78)
  212e28:	1bffffa6 	pcalau12i	$r6,-3(0xffffd)
  212e2c:	02c320c6 	addi.d	$r6,$r6,200(0xc8)
  212e30:	29c02066 	st.d	$r6,$r3,8(0x8)
  212e34:	29c00064 	st.d	$r4,$r3,0
  212e38:	03800c04 	ori	$r4,$r0,0x3
  212e3c:	29010064 	st.b	$r4,$r3,64(0x40)
  212e40:	03808004 	ori	$r4,$r0,0x20
  212e44:	16000084 	lu32i.d	$r4,4(0x4)
  212e48:	29c0e064 	st.d	$r4,$r3,56(0x38)
  212e4c:	29c0c060 	st.d	$r0,$r3,48(0x30)
  212e50:	03800804 	ori	$r4,$r0,0x2
  212e54:	29c08064 	st.d	$r4,$r3,32(0x20)
  212e58:	29c04064 	st.d	$r4,$r3,16(0x10)
  212e5c:	28c0a0a7 	ld.d	$r7,$r5,40(0x28)
  212e60:	28c080a4 	ld.d	$r4,$r5,32(0x20)
  212e64:	02c04065 	addi.d	$r5,$r3,16(0x10)
  212e68:	29c1a065 	st.d	$r5,$r3,104(0x68)
  212e6c:	02c00065 	addi.d	$r5,$r3,0
  212e70:	29c16065 	st.d	$r5,$r3,88(0x58)
  212e74:	03800405 	ori	$r5,$r0,0x1
  212e78:	29c1c065 	st.d	$r5,$r3,112(0x70)
  212e7c:	29c18065 	st.d	$r5,$r3,96(0x60)
  212e80:	29c14065 	st.d	$r5,$r3,80(0x50)
  212e84:	1a0000c5 	pcalau12i	$r5,6(0x6)
  212e88:	02d700a5 	addi.d	$r5,$r5,1472(0x5c0)
  212e8c:	29c12065 	st.d	$r5,$r3,72(0x48)
  212e90:	02c12066 	addi.d	$r6,$r3,72(0x48)
  212e94:	001500e5 	move	$r5,$r7
  212e98:	57dd4fff 	bl	-8884(0xfffdd4c) # 210be4 <_ZN4core3fmt5write17hf855db0f875ea3deE>
  212e9c:	28c1e061 	ld.d	$r1,$r3,120(0x78)
  212ea0:	02c20063 	addi.d	$r3,$r3,128(0x80)
  212ea4:	4c000020 	jirl	$r0,$r1,0

0000000000212ea8 <_ZN60_$LT$page_table..PagingError$u20$as$u20$core..fmt..Debug$GT$3fmt17h1eee44c740e22569E>:
_ZN60_$LT$page_table..PagingError$u20$as$u20$core..fmt..Debug$GT$3fmt17h1eee44c740e22569E():
  212ea8:	2a000084 	ld.bu	$r4,$r4,0
  212eac:	00410c84 	slli.d	$r4,$r4,0x3
  212eb0:	1a0000e6 	pcalau12i	$r6,7(0x7)
  212eb4:	02e860c6 	addi.d	$r6,$r6,-1512(0xa18)
  212eb8:	380c10c7 	ldx.d	$r7,$r6,$r4
  212ebc:	1a000086 	pcalau12i	$r6,4(0x4)
  212ec0:	02d160c6 	addi.d	$r6,$r6,1112(0x458)
  212ec4:	380c10c6 	ldx.d	$r6,$r6,$r4
  212ec8:	28c080a4 	ld.d	$r4,$r5,32(0x20)
  212ecc:	28c0a0a5 	ld.d	$r5,$r5,40(0x28)
  212ed0:	28c060a8 	ld.d	$r8,$r5,24(0x18)
  212ed4:	001500e5 	move	$r5,$r7
  212ed8:	4c000100 	jirl	$r0,$r8,0

0000000000212edc <_ZN57_$LT$page_table..PageSize$u20$as$u20$core..fmt..Debug$GT$3fmt17h939394d9aeb485a5E>:
_ZN57_$LT$page_table..PageSize$u20$as$u20$core..fmt..Debug$GT$3fmt17h939394d9aeb485a5E():
  212edc:	28c00084 	ld.d	$r4,$r4,0
  212ee0:	14000026 	lu12i.w	$r6,1(0x1)
  212ee4:	58001886 	beq	$r4,$r6,24(0x18) # 212efc <_ZN57_$LT$page_table..PageSize$u20$as$u20$core..fmt..Debug$GT$3fmt17h939394d9aeb485a5E+0x20>
  212ee8:	14004006 	lu12i.w	$r6,512(0x200)
  212eec:	5c001c86 	bne	$r4,$r6,28(0x1c) # 212f08 <_ZN57_$LT$page_table..PageSize$u20$as$u20$core..fmt..Debug$GT$3fmt17h939394d9aeb485a5E+0x2c>
  212ef0:	1a000084 	pcalau12i	$r4,4(0x4)
  212ef4:	02c3c487 	addi.d	$r7,$r4,241(0xf1)
  212ef8:	50001800 	b	24(0x18) # 212f10 <_ZN57_$LT$page_table..PageSize$u20$as$u20$core..fmt..Debug$GT$3fmt17h939394d9aeb485a5E+0x34>
  212efc:	1a000084 	pcalau12i	$r4,4(0x4)
  212f00:	02c3ac87 	addi.d	$r7,$r4,235(0xeb)
  212f04:	50000c00 	b	12(0xc) # 212f10 <_ZN57_$LT$page_table..PageSize$u20$as$u20$core..fmt..Debug$GT$3fmt17h939394d9aeb485a5E+0x34>
  212f08:	1a000084 	pcalau12i	$r4,4(0x4)
  212f0c:	02c3dc87 	addi.d	$r7,$r4,247(0xf7)
  212f10:	28c080a4 	ld.d	$r4,$r5,32(0x20)
  212f14:	28c0a0a5 	ld.d	$r5,$r5,40(0x28)
  212f18:	28c060a8 	ld.d	$r8,$r5,24(0x18)
  212f1c:	03801806 	ori	$r6,$r0,0x6
  212f20:	001500e5 	move	$r5,$r7
  212f24:	4c000100 	jirl	$r0,$r8,0

0000000000212f28 <_ZN82_$LT$page_table_entry..arch..loongarch64..PTEFlags$u20$as$u20$core..fmt..Debug$GT$3fmt17h3fd842fa11ef8dacE>:
_ZN82_$LT$page_table_entry..arch..loongarch64..PTEFlags$u20$as$u20$core..fmt..Debug$GT$3fmt17h3fd842fa11ef8dacE():
  212f28:	02ffc063 	addi.d	$r3,$r3,-16(0xff0)
  212f2c:	29c02061 	st.d	$r1,$r3,8(0x8)
  212f30:	001500a9 	move	$r9,$r5
  212f34:	29c00064 	st.d	$r4,$r3,0
  212f38:	1a000044 	pcalau12i	$r4,2(0x2)
  212f3c:	02dd4085 	addi.d	$r5,$r4,1872(0x750)
  212f40:	03802006 	ori	$r6,$r0,0x8
  212f44:	02c00067 	addi.d	$r7,$r3,0
  212f48:	1a000024 	pcalau12i	$r4,1(0x1)
  212f4c:	02fd9088 	addi.d	$r8,$r4,-156(0xf64)
  212f50:	00150124 	move	$r4,$r9
  212f54:	57e74bff 	bl	-6328(0xfffe748) # 21169c <_ZN4core3fmt9Formatter25debug_tuple_field1_finish17h10568bd546b30080E>
  212f58:	28c02061 	ld.d	$r1,$r3,8(0x8)
  212f5c:	02c04063 	addi.d	$r3,$r3,16(0x10)
  212f60:	4c000020 	jirl	$r0,$r1,0

0000000000212f64 <_ZN42_$LT$$RF$T$u20$as$u20$core..fmt..Debug$GT$3fmt17hca61ccd8eff1e123E>:
_ZN42_$LT$$RF$T$u20$as$u20$core..fmt..Debug$GT$3fmt17hca61ccd8eff1e123E():
  212f64:	02fc0063 	addi.d	$r3,$r3,-256(0xf00)
  212f68:	29c3e061 	st.d	$r1,$r3,248(0xf8)
  212f6c:	29c3c076 	st.d	$r22,$r3,240(0xf0)
  212f70:	29c3a077 	st.d	$r23,$r3,232(0xe8)
  212f74:	29c38078 	st.d	$r24,$r3,224(0xe0)
  212f78:	29c36079 	st.d	$r25,$r3,216(0xd8)
  212f7c:	29c3407a 	st.d	$r26,$r3,208(0xd0)
  212f80:	29c3207b 	st.d	$r27,$r3,200(0xc8)
  212f84:	29c3007c 	st.d	$r28,$r3,192(0xc0)
  212f88:	29c2e07d 	st.d	$r29,$r3,184(0xb8)
  212f8c:	29c2c07e 	st.d	$r30,$r3,176(0xb0)
  212f90:	29c2a07f 	st.d	$r31,$r3,168(0xa8)
  212f94:	28c00084 	ld.d	$r4,$r4,0
  212f98:	28c0009b 	ld.d	$r27,$r4,0
  212f9c:	4000ab60 	beqz	$r27,168(0xa8) # 213044 <_ZN42_$LT$$RF$T$u20$as$u20$core..fmt..Debug$GT$3fmt17hca61ccd8eff1e123E+0xe0>
  212fa0:	03800416 	ori	$r22,$r0,0x1
  212fa4:	03400764 	andi	$r4,$r27,0x1
  212fa8:	44012080 	bnez	$r4,288(0x120) # 2130c8 <_ZN42_$LT$$RF$T$u20$as$u20$core..fmt..Debug$GT$3fmt17hca61ccd8eff1e123E+0x164>
  212fac:	03400b64 	andi	$r4,$r27,0x2
  212fb0:	44012880 	bnez	$r4,296(0x128) # 2130d8 <_ZN42_$LT$$RF$T$u20$as$u20$core..fmt..Debug$GT$3fmt17hca61ccd8eff1e123E+0x174>
  212fb4:	03401364 	andi	$r4,$r27,0x4
  212fb8:	44013080 	bnez	$r4,304(0x130) # 2130e8 <_ZN42_$LT$$RF$T$u20$as$u20$core..fmt..Debug$GT$3fmt17hca61ccd8eff1e123E+0x184>
  212fbc:	03402364 	andi	$r4,$r27,0x8
  212fc0:	44013880 	bnez	$r4,312(0x138) # 2130f8 <_ZN42_$LT$$RF$T$u20$as$u20$core..fmt..Debug$GT$3fmt17hca61ccd8eff1e123E+0x194>
  212fc4:	03404364 	andi	$r4,$r27,0x10
  212fc8:	44014080 	bnez	$r4,320(0x140) # 213108 <_ZN42_$LT$$RF$T$u20$as$u20$core..fmt..Debug$GT$3fmt17hca61ccd8eff1e123E+0x1a4>
  212fcc:	03408364 	andi	$r4,$r27,0x20
  212fd0:	44014880 	bnez	$r4,328(0x148) # 213118 <_ZN42_$LT$$RF$T$u20$as$u20$core..fmt..Debug$GT$3fmt17hca61ccd8eff1e123E+0x1b4>
  212fd4:	03410364 	andi	$r4,$r27,0x40
  212fd8:	44015080 	bnez	$r4,336(0x150) # 213128 <_ZN42_$LT$$RF$T$u20$as$u20$core..fmt..Debug$GT$3fmt17hca61ccd8eff1e123E+0x1c4>
  212fdc:	03420364 	andi	$r4,$r27,0x80
  212fe0:	44015880 	bnez	$r4,344(0x158) # 213138 <_ZN42_$LT$$RF$T$u20$as$u20$core..fmt..Debug$GT$3fmt17hca61ccd8eff1e123E+0x1d4>
  212fe4:	03440364 	andi	$r4,$r27,0x100
  212fe8:	44016080 	bnez	$r4,352(0x160) # 213148 <_ZN42_$LT$$RF$T$u20$as$u20$core..fmt..Debug$GT$3fmt17hca61ccd8eff1e123E+0x1e4>
  212fec:	14000024 	lu12i.w	$r4,1(0x1)
  212ff0:	00149364 	and	$r4,$r27,$r4
  212ff4:	15ffffc6 	lu12i.w	$r6,-2(0xffffe)
  212ff8:	44016080 	bnez	$r4,352(0x160) # 213158 <_ZN42_$LT$$RF$T$u20$as$u20$core..fmt..Debug$GT$3fmt17hca61ccd8eff1e123E+0x1f4>
  212ffc:	03080004 	lu52i.d	$r4,$r0,512(0x200)
  213000:	00149366 	and	$r6,$r27,$r4
  213004:	02bffc04 	addi.w	$r4,$r0,-1(0xfff)
  213008:	0337fc99 	lu52i.d	$r25,$r4,-513(0xdff)
  21300c:	44015cc0 	bnez	$r6,348(0x15c) # 213168 <_ZN42_$LT$$RF$T$u20$as$u20$core..fmt..Debug$GT$3fmt17hca61ccd8eff1e123E+0x204>
  213010:	03100006 	lu52i.d	$r6,$r0,1024(0x400)
  213014:	00149b66 	and	$r6,$r27,$r6
  213018:	032ffc99 	lu52i.d	$r25,$r4,-1025(0xbff)
  21301c:	440158c0 	bnez	$r6,344(0x158) # 213174 <_ZN42_$LT$$RF$T$u20$as$u20$core..fmt..Debug$GT$3fmt17hca61ccd8eff1e123E+0x210>
  213020:	29c08076 	st.d	$r22,$r3,32(0x20)
  213024:	031ffc99 	lu52i.d	$r25,$r4,2047(0x7ff)
  213028:	6401589b 	bge	$r4,$r27,344(0x158) # 213180 <_ZN42_$LT$$RF$T$u20$as$u20$core..fmt..Debug$GT$3fmt17hca61ccd8eff1e123E+0x21c>
  21302c:	29c1c07b 	st.d	$r27,$r3,112(0x70)
  213030:	28c080b7 	ld.d	$r23,$r5,32(0x20)
  213034:	28c0a0a4 	ld.d	$r4,$r5,40(0x28)
  213038:	29c06064 	st.d	$r4,$r3,24(0x18)
  21303c:	28c0609d 	ld.d	$r29,$r4,24(0x18)
  213040:	50024800 	b	584(0x248) # 213288 <_ZN42_$LT$$RF$T$u20$as$u20$core..fmt..Debug$GT$3fmt17hca61ccd8eff1e123E+0x324>
  213044:	1bffff84 	pcalau12i	$r4,-4(0xffffc)
  213048:	02c32084 	addi.d	$r4,$r4,200(0xc8)
  21304c:	29c0c064 	st.d	$r4,$r3,48(0x30)
  213050:	1a000024 	pcalau12i	$r4,1(0x1)
  213054:	02dd6084 	addi.d	$r4,$r4,1880(0x758)
  213058:	29c0a064 	st.d	$r4,$r3,40(0x28)
  21305c:	03800c04 	ori	$r4,$r0,0x3
  213060:	2901a064 	st.b	$r4,$r3,104(0x68)
  213064:	03808004 	ori	$r4,$r0,0x20
  213068:	16000084 	lu32i.d	$r4,4(0x4)
  21306c:	29c18064 	st.d	$r4,$r3,96(0x60)
  213070:	29c16060 	st.d	$r0,$r3,88(0x58)
  213074:	03800804 	ori	$r4,$r0,0x2
  213078:	29c12064 	st.d	$r4,$r3,72(0x48)
  21307c:	29c0e064 	st.d	$r4,$r3,56(0x38)
  213080:	28c0a0a7 	ld.d	$r7,$r5,40(0x28)
  213084:	28c080a4 	ld.d	$r4,$r5,32(0x20)
  213088:	02c0e065 	addi.d	$r5,$r3,56(0x38)
  21308c:	29c26065 	st.d	$r5,$r3,152(0x98)
  213090:	02c0a065 	addi.d	$r5,$r3,40(0x28)
  213094:	29c22065 	st.d	$r5,$r3,136(0x88)
  213098:	03800405 	ori	$r5,$r0,0x1
  21309c:	29c28065 	st.d	$r5,$r3,160(0xa0)
  2130a0:	29c24065 	st.d	$r5,$r3,144(0x90)
  2130a4:	29c20065 	st.d	$r5,$r3,128(0x80)
  2130a8:	1a0000a5 	pcalau12i	$r5,5(0x5)
  2130ac:	02dca0a5 	addi.d	$r5,$r5,1832(0x728)
  2130b0:	29c1e065 	st.d	$r5,$r3,120(0x78)
  2130b4:	02c1e066 	addi.d	$r6,$r3,120(0x78)
  2130b8:	001500e5 	move	$r5,$r7
  2130bc:	57db2bff 	bl	-9432(0xfffdb28) # 210be4 <_ZN4core3fmt5write17hf855db0f875ea3deE>
  2130c0:	00150096 	move	$r22,$r4
  2130c4:	50023400 	b	564(0x234) # 2132f8 <_ZN42_$LT$$RF$T$u20$as$u20$core..fmt..Debug$GT$3fmt17hca61ccd8eff1e123E+0x394>
  2130c8:	02bff819 	addi.w	$r25,$r0,-2(0xffe)
  2130cc:	001502dc 	move	$r28,$r22
  2130d0:	00150004 	move	$r4,$r0
  2130d4:	5000b800 	b	184(0xb8) # 21318c <_ZN42_$LT$$RF$T$u20$as$u20$core..fmt..Debug$GT$3fmt17hca61ccd8eff1e123E+0x228>
  2130d8:	03800404 	ori	$r4,$r0,0x1
  2130dc:	02bff419 	addi.w	$r25,$r0,-3(0xffd)
  2130e0:	0380081c 	ori	$r28,$r0,0x2
  2130e4:	5000a800 	b	168(0xa8) # 21318c <_ZN42_$LT$$RF$T$u20$as$u20$core..fmt..Debug$GT$3fmt17hca61ccd8eff1e123E+0x228>
  2130e8:	03800804 	ori	$r4,$r0,0x2
  2130ec:	02bfec19 	addi.w	$r25,$r0,-5(0xffb)
  2130f0:	03800c1c 	ori	$r28,$r0,0x3
  2130f4:	50009800 	b	152(0x98) # 21318c <_ZN42_$LT$$RF$T$u20$as$u20$core..fmt..Debug$GT$3fmt17hca61ccd8eff1e123E+0x228>
  2130f8:	03800c04 	ori	$r4,$r0,0x3
  2130fc:	02bfdc19 	addi.w	$r25,$r0,-9(0xff7)
  213100:	0380101c 	ori	$r28,$r0,0x4
  213104:	50008800 	b	136(0x88) # 21318c <_ZN42_$LT$$RF$T$u20$as$u20$core..fmt..Debug$GT$3fmt17hca61ccd8eff1e123E+0x228>
  213108:	03801004 	ori	$r4,$r0,0x4
  21310c:	02bfbc19 	addi.w	$r25,$r0,-17(0xfef)
  213110:	0380141c 	ori	$r28,$r0,0x5
  213114:	50007800 	b	120(0x78) # 21318c <_ZN42_$LT$$RF$T$u20$as$u20$core..fmt..Debug$GT$3fmt17hca61ccd8eff1e123E+0x228>
  213118:	03801404 	ori	$r4,$r0,0x5
  21311c:	02bf7c19 	addi.w	$r25,$r0,-33(0xfdf)
  213120:	0380181c 	ori	$r28,$r0,0x6
  213124:	50006800 	b	104(0x68) # 21318c <_ZN42_$LT$$RF$T$u20$as$u20$core..fmt..Debug$GT$3fmt17hca61ccd8eff1e123E+0x228>
  213128:	03801804 	ori	$r4,$r0,0x6
  21312c:	02befc19 	addi.w	$r25,$r0,-65(0xfbf)
  213130:	03801c1c 	ori	$r28,$r0,0x7
  213134:	50005800 	b	88(0x58) # 21318c <_ZN42_$LT$$RF$T$u20$as$u20$core..fmt..Debug$GT$3fmt17hca61ccd8eff1e123E+0x228>
  213138:	03801c04 	ori	$r4,$r0,0x7
  21313c:	02bdfc19 	addi.w	$r25,$r0,-129(0xf7f)
  213140:	0380201c 	ori	$r28,$r0,0x8
  213144:	50004800 	b	72(0x48) # 21318c <_ZN42_$LT$$RF$T$u20$as$u20$core..fmt..Debug$GT$3fmt17hca61ccd8eff1e123E+0x228>
  213148:	03802004 	ori	$r4,$r0,0x8
  21314c:	02bbfc19 	addi.w	$r25,$r0,-257(0xeff)
  213150:	0380241c 	ori	$r28,$r0,0x9
  213154:	50003800 	b	56(0x38) # 21318c <_ZN42_$LT$$RF$T$u20$as$u20$core..fmt..Debug$GT$3fmt17hca61ccd8eff1e123E+0x228>
  213158:	03802404 	ori	$r4,$r0,0x9
  21315c:	0380281c 	ori	$r28,$r0,0xa
  213160:	03bffcd9 	ori	$r25,$r6,0xfff
  213164:	50002800 	b	40(0x28) # 21318c <_ZN42_$LT$$RF$T$u20$as$u20$core..fmt..Debug$GT$3fmt17hca61ccd8eff1e123E+0x228>
  213168:	03802804 	ori	$r4,$r0,0xa
  21316c:	03802c1c 	ori	$r28,$r0,0xb
  213170:	50001c00 	b	28(0x1c) # 21318c <_ZN42_$LT$$RF$T$u20$as$u20$core..fmt..Debug$GT$3fmt17hca61ccd8eff1e123E+0x228>
  213174:	03802c04 	ori	$r4,$r0,0xb
  213178:	0380301c 	ori	$r28,$r0,0xc
  21317c:	50001000 	b	16(0x10) # 21318c <_ZN42_$LT$$RF$T$u20$as$u20$core..fmt..Debug$GT$3fmt17hca61ccd8eff1e123E+0x228>
  213180:	03803004 	ori	$r4,$r0,0xc
  213184:	0380341c 	ori	$r28,$r0,0xd
  213188:	28c08076 	ld.d	$r22,$r3,32(0x20)
  21318c:	0380601e 	ori	$r30,$r0,0x18
  213190:	001df884 	mul.d	$r4,$r4,$r30
  213194:	1a0000a6 	pcalau12i	$r6,5(0x5)
  213198:	02d740df 	addi.d	$r31,$r6,1488(0x5d0)
  21319c:	001093e6 	add.d	$r6,$r31,$r4
  2131a0:	380c13e7 	ldx.d	$r7,$r31,$r4
  2131a4:	28c020c6 	ld.d	$r6,$r6,8(0x8)
  2131a8:	28c080b7 	ld.d	$r23,$r5,32(0x20)
  2131ac:	28c0a0b8 	ld.d	$r24,$r5,40(0x28)
  2131b0:	28c0631d 	ld.d	$r29,$r24,24(0x18)
  2131b4:	001502e4 	move	$r4,$r23
  2131b8:	001500e5 	move	$r5,$r7
  2131bc:	4c0003a1 	jirl	$r1,$r29,0
  2131c0:	44013880 	bnez	$r4,312(0x138) # 2132f8 <_ZN42_$LT$$RF$T$u20$as$u20$core..fmt..Debug$GT$3fmt17hca61ccd8eff1e123E+0x394>
  2131c4:	29c08076 	st.d	$r22,$r3,32(0x20)
  2131c8:	0014e779 	and	$r25,$r27,$r25
  2131cc:	03803007 	ori	$r7,$r0,0xc
  2131d0:	03803816 	ori	$r22,$r0,0xe
  2131d4:	1a000064 	pcalau12i	$r4,3(0x3)
  2131d8:	02c5a085 	addi.d	$r5,$r4,360(0x168)
  2131dc:	03800c06 	ori	$r6,$r0,0x3
  2131e0:	29c06078 	st.d	$r24,$r3,24(0x18)
  2131e4:	68014cfc 	bltu	$r7,$r28,332(0x14c) # 213330 <_ZN42_$LT$$RF$T$u20$as$u20$core..fmt..Debug$GT$3fmt17hca61ccd8eff1e123E+0x3cc>
  2131e8:	001dfb84 	mul.d	$r4,$r28,$r30
  2131ec:	001093e4 	add.d	$r4,$r31,$r4
  2131f0:	02c0079c 	addi.d	$r28,$r28,1(0x1)
  2131f4:	02c04098 	addi.d	$r24,$r4,16(0x10)
  2131f8:	50001000 	b	16(0x10) # 213208 <_ZN42_$LT$$RF$T$u20$as$u20$core..fmt..Debug$GT$3fmt17hca61ccd8eff1e123E+0x2a4>
  2131fc:	02c06318 	addi.d	$r24,$r24,24(0x18)
  213200:	02c0079c 	addi.d	$r28,$r28,1(0x1)
  213204:	58006b96 	beq	$r28,$r22,104(0x68) # 21326c <_ZN42_$LT$$RF$T$u20$as$u20$core..fmt..Debug$GT$3fmt17hca61ccd8eff1e123E+0x308>
  213208:	40005b20 	beqz	$r25,88(0x58) # 213260 <_ZN42_$LT$$RF$T$u20$as$u20$core..fmt..Debug$GT$3fmt17hca61ccd8eff1e123E+0x2fc>
  21320c:	28c0031a 	ld.d	$r26,$r24,0
  213210:	0014eb64 	and	$r4,$r27,$r26
  213214:	5fffe89a 	bne	$r4,$r26,-24(0x3ffe8) # 2131fc <_ZN42_$LT$$RF$T$u20$as$u20$core..fmt..Debug$GT$3fmt17hca61ccd8eff1e123E+0x298>
  213218:	0014eb24 	and	$r4,$r25,$r26
  21321c:	43ffe09f 	beqz	$r4,-32(0x7fffe0) # 2131fc <_ZN42_$LT$$RF$T$u20$as$u20$core..fmt..Debug$GT$3fmt17hca61ccd8eff1e123E+0x298>
  213220:	29c04067 	st.d	$r7,$r3,16(0x10)
  213224:	001502e4 	move	$r4,$r23
  213228:	29c02065 	st.d	$r5,$r3,8(0x8)
  21322c:	29c00066 	st.d	$r6,$r3,0
  213230:	4c0003a1 	jirl	$r1,$r29,0
  213234:	4400c080 	bnez	$r4,192(0xc0) # 2132f4 <_ZN42_$LT$$RF$T$u20$as$u20$core..fmt..Debug$GT$3fmt17hca61ccd8eff1e123E+0x390>
  213238:	28ffe306 	ld.d	$r6,$r24,-8(0xff8)
  21323c:	28ffc305 	ld.d	$r5,$r24,-16(0xff0)
  213240:	001502e4 	move	$r4,$r23
  213244:	4c0003a1 	jirl	$r1,$r29,0
  213248:	0016eb39 	andn	$r25,$r25,$r26
  21324c:	28c04067 	ld.d	$r7,$r3,16(0x10)
  213250:	28c02065 	ld.d	$r5,$r3,8(0x8)
  213254:	28c00066 	ld.d	$r6,$r3,0
  213258:	43ff8c9f 	beqz	$r4,-116(0x7fff8c) # 2131e4 <_ZN42_$LT$$RF$T$u20$as$u20$core..fmt..Debug$GT$3fmt17hca61ccd8eff1e123E+0x280>
  21325c:	50009800 	b	152(0x98) # 2132f4 <_ZN42_$LT$$RF$T$u20$as$u20$core..fmt..Debug$GT$3fmt17hca61ccd8eff1e123E+0x390>
  213260:	29c1c060 	st.d	$r0,$r3,112(0x70)
  213264:	00150016 	move	$r22,$r0
  213268:	50009000 	b	144(0x90) # 2132f8 <_ZN42_$LT$$RF$T$u20$as$u20$core..fmt..Debug$GT$3fmt17hca61ccd8eff1e123E+0x394>
  21326c:	29c1c079 	st.d	$r25,$r3,112(0x70)
  213270:	1a000064 	pcalau12i	$r4,3(0x3)
  213274:	02c5a085 	addi.d	$r5,$r4,360(0x168)
  213278:	03800c06 	ori	$r6,$r0,0x3
  21327c:	001502e4 	move	$r4,$r23
  213280:	4c0003a1 	jirl	$r1,$r29,0
  213284:	44007080 	bnez	$r4,112(0x70) # 2132f4 <_ZN42_$LT$$RF$T$u20$as$u20$core..fmt..Debug$GT$3fmt17hca61ccd8eff1e123E+0x390>
  213288:	1a000064 	pcalau12i	$r4,3(0x3)
  21328c:	02c59885 	addi.d	$r5,$r4,358(0x166)
  213290:	03800806 	ori	$r6,$r0,0x2
  213294:	001502e4 	move	$r4,$r23
  213298:	4c0003a1 	jirl	$r1,$r29,0
  21329c:	44005880 	bnez	$r4,88(0x58) # 2132f4 <_ZN42_$LT$$RF$T$u20$as$u20$core..fmt..Debug$GT$3fmt17hca61ccd8eff1e123E+0x390>
  2132a0:	02c1c064 	addi.d	$r4,$r3,112(0x70)
  2132a4:	29c0a064 	st.d	$r4,$r3,40(0x28)
  2132a8:	1a000004 	pcalau12i	$r4,0
  2132ac:	02ccf084 	addi.d	$r4,$r4,828(0x33c)
  2132b0:	29c20064 	st.d	$r4,$r3,128(0x80)
  2132b4:	02c0a064 	addi.d	$r4,$r3,40(0x28)
  2132b8:	29c1e064 	st.d	$r4,$r3,120(0x78)
  2132bc:	29c16060 	st.d	$r0,$r3,88(0x58)
  2132c0:	02c1e064 	addi.d	$r4,$r3,120(0x78)
  2132c4:	29c12064 	st.d	$r4,$r3,72(0x48)
  2132c8:	03800404 	ori	$r4,$r0,0x1
  2132cc:	29c14064 	st.d	$r4,$r3,80(0x50)
  2132d0:	29c10064 	st.d	$r4,$r3,64(0x40)
  2132d4:	1a0000a4 	pcalau12i	$r4,5(0x5)
  2132d8:	02dca084 	addi.d	$r4,$r4,1832(0x728)
  2132dc:	29c0e064 	st.d	$r4,$r3,56(0x38)
  2132e0:	02c0e066 	addi.d	$r6,$r3,56(0x38)
  2132e4:	001502e4 	move	$r4,$r23
  2132e8:	28c06065 	ld.d	$r5,$r3,24(0x18)
  2132ec:	57d8fbff 	bl	-9992(0xfffd8f8) # 210be4 <_ZN4core3fmt5write17hf855db0f875ea3deE>
  2132f0:	43ff749f 	beqz	$r4,-140(0x7fff74) # 213264 <_ZN42_$LT$$RF$T$u20$as$u20$core..fmt..Debug$GT$3fmt17hca61ccd8eff1e123E+0x300>
  2132f4:	28c08076 	ld.d	$r22,$r3,32(0x20)
  2132f8:	001502c4 	move	$r4,$r22
  2132fc:	28c2a07f 	ld.d	$r31,$r3,168(0xa8)
  213300:	28c2c07e 	ld.d	$r30,$r3,176(0xb0)
  213304:	28c2e07d 	ld.d	$r29,$r3,184(0xb8)
  213308:	28c3007c 	ld.d	$r28,$r3,192(0xc0)
  21330c:	28c3207b 	ld.d	$r27,$r3,200(0xc8)
  213310:	28c3407a 	ld.d	$r26,$r3,208(0xd0)
  213314:	28c36079 	ld.d	$r25,$r3,216(0xd8)
  213318:	28c38078 	ld.d	$r24,$r3,224(0xe0)
  21331c:	28c3a077 	ld.d	$r23,$r3,232(0xe8)
  213320:	28c3c076 	ld.d	$r22,$r3,240(0xf0)
  213324:	28c3e061 	ld.d	$r1,$r3,248(0xf8)
  213328:	02c40063 	addi.d	$r3,$r3,256(0x100)
  21332c:	4c000020 	jirl	$r0,$r1,0
  213330:	29c1c079 	st.d	$r25,$r3,112(0x70)
  213334:	47ff3f3f 	bnez	$r25,-196(0x7fff3c) # 213270 <_ZN42_$LT$$RF$T$u20$as$u20$core..fmt..Debug$GT$3fmt17hca61ccd8eff1e123E+0x30c>
  213338:	53ff2fff 	b	-212(0xfffff2c) # 213264 <_ZN42_$LT$$RF$T$u20$as$u20$core..fmt..Debug$GT$3fmt17hca61ccd8eff1e123E+0x300>

000000000021333c <_ZN45_$LT$$RF$T$u20$as$u20$core..fmt..LowerHex$GT$3fmt17h22242320a02c5912E>:
_ZN45_$LT$$RF$T$u20$as$u20$core..fmt..LowerHex$GT$3fmt17h22242320a02c5912E():
  21333c:	02fdc063 	addi.d	$r3,$r3,-144(0xf70)
  213340:	29c22061 	st.d	$r1,$r3,136(0x88)
  213344:	28c00084 	ld.d	$r4,$r4,0
  213348:	28c0008a 	ld.d	$r10,$r4,0
  21334c:	03815c04 	ori	$r4,$r0,0x57
  213350:	0380c008 	ori	$r8,$r0,0x30
  213354:	02c02066 	addi.d	$r6,$r3,8(0x8)
  213358:	03804009 	ori	$r9,$r0,0x10
  21335c:	00150007 	move	$r7,$r0
  213360:	0015014b 	move	$r11,$r10
  213364:	03403d4a 	andi	$r10,$r10,0xf
  213368:	0240294c 	sltui	$r12,$r10,10(0xa)
  21336c:	0013b08d 	masknez	$r13,$r4,$r12
  213370:	0013310c 	maskeqz	$r12,$r8,$r12
  213374:	0015358c 	or	$r12,$r12,$r13
  213378:	0010a98a 	add.d	$r10,$r12,$r10
  21337c:	00109ccc 	add.d	$r12,$r6,$r7
  213380:	2901fd8a 	st.b	$r10,$r12,127(0x7f)
  213384:	02fffce7 	addi.d	$r7,$r7,-1(0xfff)
  213388:	0045116a 	srli.d	$r10,$r11,0x4
  21338c:	6fffd569 	bgeu	$r11,$r9,-44(0x3ffd4) # 213360 <_ZN45_$LT$$RF$T$u20$as$u20$core..fmt..LowerHex$GT$3fmt17h22242320a02c5912E+0x24>
  213390:	02c200e4 	addi.d	$r4,$r7,128(0x80)
  213394:	03820408 	ori	$r8,$r0,0x81
  213398:	6c003488 	bgeu	$r4,$r8,52(0x34) # 2133cc <_ZN45_$LT$$RF$T$u20$as$u20$core..fmt..LowerHex$GT$3fmt17h22242320a02c5912E+0x90>
  21339c:	00119c08 	sub.d	$r8,$r0,$r7
  2133a0:	00109cc4 	add.d	$r4,$r6,$r7
  2133a4:	02c20087 	addi.d	$r7,$r4,128(0x80)
  2133a8:	1a000064 	pcalau12i	$r4,3(0x3)
  2133ac:	02c59889 	addi.d	$r9,$r4,358(0x166)
  2133b0:	03800806 	ori	$r6,$r0,0x2
  2133b4:	001500a4 	move	$r4,$r5
  2133b8:	00150125 	move	$r5,$r9
  2133bc:	57da9bff 	bl	-9576(0xfffda98) # 210e54 <_ZN4core3fmt9Formatter12pad_integral17hfdb629c44e553f8dE>
  2133c0:	28c22061 	ld.d	$r1,$r3,136(0x88)
  2133c4:	02c24063 	addi.d	$r3,$r3,144(0x90)
  2133c8:	4c000020 	jirl	$r0,$r1,0
  2133cc:	03820005 	ori	$r5,$r0,0x80
  2133d0:	1a0000a6 	pcalau12i	$r6,5(0x5)
  2133d4:	02ccc0c6 	addi.d	$r6,$r6,816(0x330)
  2133d8:	57d19bff 	bl	-11880(0xfffd198) # 210570 <_ZN4core5slice5index26slice_start_index_len_fail17h7935edb336fdba66E>
  2133dc:	38600400 	amswap.w	$r0,$r1,$r0

00000000002133e0 <_ZN22buddy_system_allocator13Heap$LT$_$GT$5alloc17h29bce00c87d0ae43E>:
_ZN22buddy_system_allocator13Heap$LT$_$GT$5alloc17h29bce00c87d0ae43E():
  2133e0:	02fffca6 	addi.d	$r6,$r5,-1(0xfff)
  2133e4:	000024c6 	clz.d	$r6,$r6
  2133e8:	02bffc07 	addi.w	$r7,$r0,-1(0xfff)
  2133ec:	001918e6 	srl.d	$r6,$r7,$r6
  2133f0:	02c004c6 	addi.d	$r6,$r6,1(0x1)
  2133f4:	001290c7 	sltu	$r7,$r6,$r4
  2133f8:	00139cc6 	masknez	$r6,$r6,$r7
  2133fc:	00131c84 	maskeqz	$r4,$r4,$r7
  213400:	00151884 	or	$r4,$r4,$r6
  213404:	03802006 	ori	$r6,$r0,0x8
  213408:	001290c7 	sltu	$r7,$r6,$r4
  21340c:	00131c84 	maskeqz	$r4,$r4,$r7
  213410:	00139cc6 	masknez	$r6,$r6,$r7
  213414:	00151886 	or	$r6,$r4,$r6
  213418:	03808007 	ori	$r7,$r0,0x20
  21341c:	00002cc4 	ctz.d	$r4,$r6
  213420:	001290e8 	sltu	$r8,$r7,$r4
  213424:	0013a0e7 	masknez	$r7,$r7,$r8
  213428:	00132088 	maskeqz	$r8,$r4,$r8
  21342c:	00151d0c 	or	$r12,$r8,$r7
  213430:	14000447 	lu12i.w	$r7,34(0x22)
  213434:	038b80e9 	ori	$r9,$r7,0x2e0
  213438:	1a0008e7 	pcalau12i	$r7,71(0x47)
  21343c:	02c000e7 	addi.d	$r7,$r7,0
  213440:	002d1c88 	alsl.d	$r8,$r4,$r7,0x3
  213444:	0010a50d 	add.d	$r13,$r8,$r9
  213448:	00150089 	move	$r9,$r4
  21344c:	5800ad89 	beq	$r12,$r9,172(0xac) # 2134f8 <_ZN22buddy_system_allocator13Heap$LT$_$GT$5alloc17h29bce00c87d0ae43E+0x118>
  213450:	02c021aa 	addi.d	$r10,$r13,8(0x8)
  213454:	02c00529 	addi.d	$r9,$r9,1(0x1)
  213458:	28c041ab 	ld.d	$r11,$r13,16(0x10)
  21345c:	0015014d 	move	$r13,$r10
  213460:	43ffed7f 	beqz	$r11,-20(0x7fffec) # 21344c <_ZN22buddy_system_allocator13Heap$LT$_$GT$5alloc17h29bce00c87d0ae43E+0x6c>
  213464:	02fffd2c 	addi.d	$r12,$r9,-1(0xfff)
  213468:	6c00448c 	bgeu	$r4,$r12,68(0x44) # 2134ac <_ZN22buddy_system_allocator13Heap$LT$_$GT$5alloc17h29bce00c87d0ae43E+0xcc>
  21346c:	02c0048c 	addi.d	$r12,$r4,1(0x1)
  213470:	03807c0d 	ori	$r13,$r0,0x1f
  213474:	0380040e 	ori	$r14,$r0,0x1
  213478:	28c0016f 	ld.d	$r15,$r11,0
  21347c:	29c0214f 	st.d	$r15,$r10,8(0x8)
  213480:	02fff92f 	addi.d	$r15,$r9,-2(0xffe)
  213484:	68007daf 	bltu	$r13,$r15,124(0x7c) # 213500 <_ZN22buddy_system_allocator13Heap$LT$_$GT$5alloc17h29bce00c87d0ae43E+0x120>
  213488:	02fffd29 	addi.d	$r9,$r9,-1(0xfff)
  21348c:	0018bdcf 	sll.d	$r15,$r14,$r15
  213490:	28c00150 	ld.d	$r16,$r10,0
  213494:	381c2df0 	stx.d	$r16,$r15,$r11
  213498:	0010adef 	add.d	$r15,$r15,$r11
  21349c:	29c0016f 	st.d	$r15,$r11,0
  2134a0:	29c0014b 	st.d	$r11,$r10,0
  2134a4:	02ffe14a 	addi.d	$r10,$r10,-8(0xff8)
  2134a8:	6bffd189 	bltu	$r12,$r9,-48(0x3ffd0) # 213478 <_ZN22buddy_system_allocator13Heap$LT$_$GT$5alloc17h29bce00c87d0ae43E+0x98>
  2134ac:	03807c09 	ori	$r9,$r0,0x1f
  2134b0:	68006924 	bltu	$r9,$r4,104(0x68) # 213518 <_ZN22buddy_system_allocator13Heap$LT$_$GT$5alloc17h29bce00c87d0ae43E+0x138>
  2134b4:	14000444 	lu12i.w	$r4,34(0x22)
  2134b8:	038bc089 	ori	$r9,$r4,0x2f0
  2134bc:	380c2504 	ldx.d	$r4,$r8,$r9
  2134c0:	40006c80 	beqz	$r4,108(0x6c) # 21352c <_ZN22buddy_system_allocator13Heap$LT$_$GT$5alloc17h29bce00c87d0ae43E+0x14c>
  2134c4:	0010a508 	add.d	$r8,$r8,$r9
  2134c8:	28c00089 	ld.d	$r9,$r4,0
  2134cc:	29c00109 	st.d	$r9,$r8,0
  2134d0:	14000448 	lu12i.w	$r8,34(0x22)
  2134d4:	03892108 	ori	$r8,$r8,0x248
  2134d8:	0010a0e7 	add.d	$r7,$r7,$r8
  2134dc:	28c6a0e8 	ld.d	$r8,$r7,424(0x1a8)
  2134e0:	00109505 	add.d	$r5,$r8,$r5
  2134e4:	29c6a0e5 	st.d	$r5,$r7,424(0x1a8)
  2134e8:	28c6c0e5 	ld.d	$r5,$r7,432(0x1b0)
  2134ec:	001098a5 	add.d	$r5,$r5,$r6
  2134f0:	29c6c0e5 	st.d	$r5,$r7,432(0x1b0)
  2134f4:	4c000020 	jirl	$r0,$r1,0
  2134f8:	00150004 	move	$r4,$r0
  2134fc:	4c000020 	jirl	$r0,$r1,0
  213500:	02bffc04 	addi.w	$r4,$r0,-1(0xfff)
  213504:	03808005 	ori	$r5,$r0,0x20
  213508:	1a0000a6 	pcalau12i	$r6,5(0x5)
  21350c:	02de60c6 	addi.d	$r6,$r6,1944(0x798)
  213510:	57cfc7ff 	bl	-12348(0xfffcfc4) # 2104d4 <_ZN4core9panicking18panic_bounds_check17h5afa83c7f9faa757E>
  213514:	38600400 	amswap.w	$r0,$r1,$r0
  213518:	03808005 	ori	$r5,$r0,0x20
  21351c:	1a0000a6 	pcalau12i	$r6,5(0x5)
  213520:	02dda0c6 	addi.d	$r6,$r6,1896(0x768)
  213524:	57cfb3ff 	bl	-12368(0xfffcfb0) # 2104d4 <_ZN4core9panicking18panic_bounds_check17h5afa83c7f9faa757E>
  213528:	38600400 	amswap.w	$r0,$r1,$r0
  21352c:	57c02fff 	bl	-16340(0xfffc02c) # 20f558 <_ZN4core6option13expect_failed17hba3233454d56a254E>
  213530:	38600400 	amswap.w	$r0,$r1,$r0

0000000000213534 <memmove>:
memmove():
  213534:	5000ec00 	b	236(0xec) # 213620 <_ZN17compiler_builtins3mem7memmove17h2179fd6c76f3f9fcE>

0000000000213538 <_ZN17compiler_builtins3mem6memcpy17hb4541a873fff7549E>:
_ZN17compiler_builtins3mem6memcpy17hb4541a873fff7549E():
  213538:	03803c07 	ori	$r7,$r0,0xf
  21353c:	6c0090e6 	bgeu	$r7,$r6,144(0x90) # 2135cc <_ZN17compiler_builtins3mem6memcpy17hb4541a873fff7549E+0x94>
  213540:	00119007 	sub.d	$r7,$r0,$r4
  213544:	03401ce7 	andi	$r7,$r7,0x7
  213548:	00109c88 	add.d	$r8,$r4,$r7
  21354c:	400020e0 	beqz	$r7,32(0x20) # 21356c <_ZN17compiler_builtins3mem6memcpy17hb4541a873fff7549E+0x34>
  213550:	00150089 	move	$r9,$r4
  213554:	001500aa 	move	$r10,$r5
  213558:	2800014b 	ld.b	$r11,$r10,0
  21355c:	2900012b 	st.b	$r11,$r9,0
  213560:	02c0054a 	addi.d	$r10,$r10,1(0x1)
  213564:	02c00529 	addi.d	$r9,$r9,1(0x1)
  213568:	6bfff128 	bltu	$r9,$r8,-16(0x3fff0) # 213558 <_ZN17compiler_builtins3mem6memcpy17hb4541a873fff7549E+0x20>
  21356c:	00109ca5 	add.d	$r5,$r5,$r7
  213570:	00119cc6 	sub.d	$r6,$r6,$r7
  213574:	02bfe00b 	addi.w	$r11,$r0,-8(0xff8)
  213578:	0014acc9 	and	$r9,$r6,$r11
  21357c:	0010a507 	add.d	$r7,$r8,$r9
  213580:	03401caa 	andi	$r10,$r5,0x7
  213584:	40005540 	beqz	$r10,84(0x54) # 2135d8 <_ZN17compiler_builtins3mem6memcpy17hb4541a873fff7549E+0xa0>
  213588:	0380040c 	ori	$r12,$r0,0x1
  21358c:	60006d2c 	blt	$r9,$r12,108(0x6c) # 2135f8 <_ZN17compiler_builtins3mem6memcpy17hb4541a873fff7549E+0xc0>
  213590:	00410d4a 	slli.d	$r10,$r10,0x3
  213594:	0011a80c 	sub.d	$r12,$r0,$r10
  213598:	0014acad 	and	$r13,$r5,$r11
  21359c:	02c021ab 	addi.d	$r11,$r13,8(0x8)
  2135a0:	0340e18c 	andi	$r12,$r12,0x38
  2135a4:	28c001ad 	ld.d	$r13,$r13,0
  2135a8:	001929ae 	srl.d	$r14,$r13,$r10
  2135ac:	28c0016d 	ld.d	$r13,$r11,0
  2135b0:	0018b1af 	sll.d	$r15,$r13,$r12
  2135b4:	001539ee 	or	$r14,$r15,$r14
  2135b8:	29c0010e 	st.d	$r14,$r8,0
  2135bc:	02c0216b 	addi.d	$r11,$r11,8(0x8)
  2135c0:	02c02108 	addi.d	$r8,$r8,8(0x8)
  2135c4:	6bffe507 	bltu	$r8,$r7,-28(0x3ffe4) # 2135a8 <_ZN17compiler_builtins3mem6memcpy17hb4541a873fff7549E+0x70>
  2135c8:	50003000 	b	48(0x30) # 2135f8 <_ZN17compiler_builtins3mem6memcpy17hb4541a873fff7549E+0xc0>
  2135cc:	00150087 	move	$r7,$r4
  2135d0:	440034c0 	bnez	$r6,52(0x34) # 213604 <_ZN17compiler_builtins3mem6memcpy17hb4541a873fff7549E+0xcc>
  2135d4:	50004800 	b	72(0x48) # 21361c <_ZN17compiler_builtins3mem6memcpy17hb4541a873fff7549E+0xe4>
  2135d8:	0380040a 	ori	$r10,$r0,0x1
  2135dc:	60001d2a 	blt	$r9,$r10,28(0x1c) # 2135f8 <_ZN17compiler_builtins3mem6memcpy17hb4541a873fff7549E+0xc0>
  2135e0:	001500aa 	move	$r10,$r5
  2135e4:	28c0014b 	ld.d	$r11,$r10,0
  2135e8:	29c0010b 	st.d	$r11,$r8,0
  2135ec:	02c0214a 	addi.d	$r10,$r10,8(0x8)
  2135f0:	02c02108 	addi.d	$r8,$r8,8(0x8)
  2135f4:	6bfff107 	bltu	$r8,$r7,-16(0x3fff0) # 2135e4 <_ZN17compiler_builtins3mem6memcpy17hb4541a873fff7549E+0xac>
  2135f8:	0010a4a5 	add.d	$r5,$r5,$r9
  2135fc:	03401cc6 	andi	$r6,$r6,0x7
  213600:	40001cc0 	beqz	$r6,28(0x1c) # 21361c <_ZN17compiler_builtins3mem6memcpy17hb4541a873fff7549E+0xe4>
  213604:	001098e6 	add.d	$r6,$r7,$r6
  213608:	280000a8 	ld.b	$r8,$r5,0
  21360c:	290000e8 	st.b	$r8,$r7,0
  213610:	02c004a5 	addi.d	$r5,$r5,1(0x1)
  213614:	02c004e7 	addi.d	$r7,$r7,1(0x1)
  213618:	6bfff0e6 	bltu	$r7,$r6,-16(0x3fff0) # 213608 <_ZN17compiler_builtins3mem6memcpy17hb4541a873fff7549E+0xd0>
  21361c:	4c000020 	jirl	$r0,$r1,0

0000000000213620 <_ZN17compiler_builtins3mem7memmove17h2179fd6c76f3f9fcE>:
_ZN17compiler_builtins3mem7memmove17h2179fd6c76f3f9fcE():
  213620:	00119487 	sub.d	$r7,$r4,$r5
  213624:	6c00a4e6 	bgeu	$r7,$r6,164(0xa4) # 2136c8 <_ZN17compiler_builtins3mem7memmove17h2179fd6c76f3f9fcE+0xa8>
  213628:	001098aa 	add.d	$r10,$r5,$r6
  21362c:	00109887 	add.d	$r7,$r4,$r6
  213630:	03803c08 	ori	$r8,$r0,0xf
  213634:	6c012906 	bgeu	$r8,$r6,296(0x128) # 21375c <_ZN17compiler_builtins3mem7memmove17h2179fd6c76f3f9fcE+0x13c>
  213638:	02bfe00b 	addi.w	$r11,$r0,-8(0xff8)
  21363c:	0014ace8 	and	$r8,$r7,$r11
  213640:	03401ce9 	andi	$r9,$r7,0x7
  213644:	0011a40c 	sub.d	$r12,$r0,$r9
  213648:	40002120 	beqz	$r9,32(0x20) # 213668 <_ZN17compiler_builtins3mem7memmove17h2179fd6c76f3f9fcE+0x48>
  21364c:	001094cd 	add.d	$r13,$r6,$r5
  213650:	02fffdad 	addi.d	$r13,$r13,-1(0xfff)
  213654:	280001ae 	ld.b	$r14,$r13,0
  213658:	293ffcee 	st.b	$r14,$r7,-1(0xfff)
  21365c:	02fffdad 	addi.d	$r13,$r13,-1(0xfff)
  213660:	02fffce7 	addi.d	$r7,$r7,-1(0xfff)
  213664:	6bfff107 	bltu	$r8,$r7,-16(0x3fff0) # 213654 <_ZN17compiler_builtins3mem7memmove17h2179fd6c76f3f9fcE+0x34>
  213668:	0011a4c6 	sub.d	$r6,$r6,$r9
  21366c:	0014acc9 	and	$r9,$r6,$r11
  213670:	0011a507 	sub.d	$r7,$r8,$r9
  213674:	0011a409 	sub.d	$r9,$r0,$r9
  213678:	0010b14a 	add.d	$r10,$r10,$r12
  21367c:	03401d4c 	andi	$r12,$r10,0x7
  213680:	4000f180 	beqz	$r12,240(0xf0) # 213770 <_ZN17compiler_builtins3mem7memmove17h2179fd6c76f3f9fcE+0x150>
  213684:	02bffc05 	addi.w	$r5,$r0,-1(0xfff)
  213688:	60010ca9 	blt	$r5,$r9,268(0x10c) # 213794 <_ZN17compiler_builtins3mem7memmove17h2179fd6c76f3f9fcE+0x174>
  21368c:	00410d85 	slli.d	$r5,$r12,0x3
  213690:	0011940c 	sub.d	$r12,$r0,$r5
  213694:	0014ad4d 	and	$r13,$r10,$r11
  213698:	02ffe1ab 	addi.d	$r11,$r13,-8(0xff8)
  21369c:	0340e18c 	andi	$r12,$r12,0x38
  2136a0:	28c001ad 	ld.d	$r13,$r13,0
  2136a4:	0018b1ae 	sll.d	$r14,$r13,$r12
  2136a8:	28c0016d 	ld.d	$r13,$r11,0
  2136ac:	001915af 	srl.d	$r15,$r13,$r5
  2136b0:	001539ee 	or	$r14,$r15,$r14
  2136b4:	29ffe10e 	st.d	$r14,$r8,-8(0xff8)
  2136b8:	02ffe16b 	addi.d	$r11,$r11,-8(0xff8)
  2136bc:	02ffe108 	addi.d	$r8,$r8,-8(0xff8)
  2136c0:	6bffe4e8 	bltu	$r7,$r8,-28(0x3ffe4) # 2136a4 <_ZN17compiler_builtins3mem7memmove17h2179fd6c76f3f9fcE+0x84>
  2136c4:	5000d000 	b	208(0xd0) # 213794 <_ZN17compiler_builtins3mem7memmove17h2179fd6c76f3f9fcE+0x174>
  2136c8:	03803c07 	ori	$r7,$r0,0xf
  2136cc:	6c0098e6 	bgeu	$r7,$r6,152(0x98) # 213764 <_ZN17compiler_builtins3mem7memmove17h2179fd6c76f3f9fcE+0x144>
  2136d0:	00119007 	sub.d	$r7,$r0,$r4
  2136d4:	03401ce7 	andi	$r7,$r7,0x7
  2136d8:	00109c88 	add.d	$r8,$r4,$r7
  2136dc:	400020e0 	beqz	$r7,32(0x20) # 2136fc <_ZN17compiler_builtins3mem7memmove17h2179fd6c76f3f9fcE+0xdc>
  2136e0:	00150089 	move	$r9,$r4
  2136e4:	001500aa 	move	$r10,$r5
  2136e8:	2800014b 	ld.b	$r11,$r10,0
  2136ec:	2900012b 	st.b	$r11,$r9,0
  2136f0:	02c0054a 	addi.d	$r10,$r10,1(0x1)
  2136f4:	02c00529 	addi.d	$r9,$r9,1(0x1)
  2136f8:	6bfff128 	bltu	$r9,$r8,-16(0x3fff0) # 2136e8 <_ZN17compiler_builtins3mem7memmove17h2179fd6c76f3f9fcE+0xc8>
  2136fc:	00109ca5 	add.d	$r5,$r5,$r7
  213700:	00119cc6 	sub.d	$r6,$r6,$r7
  213704:	02bfe00b 	addi.w	$r11,$r0,-8(0xff8)
  213708:	0014acc9 	and	$r9,$r6,$r11
  21370c:	0010a507 	add.d	$r7,$r8,$r9
  213710:	03401caa 	andi	$r10,$r5,0x7
  213714:	4000ad40 	beqz	$r10,172(0xac) # 2137c0 <_ZN17compiler_builtins3mem7memmove17h2179fd6c76f3f9fcE+0x1a0>
  213718:	0380040c 	ori	$r12,$r0,0x1
  21371c:	6000c52c 	blt	$r9,$r12,196(0xc4) # 2137e0 <_ZN17compiler_builtins3mem7memmove17h2179fd6c76f3f9fcE+0x1c0>
  213720:	00410d4a 	slli.d	$r10,$r10,0x3
  213724:	0011a80c 	sub.d	$r12,$r0,$r10
  213728:	0014acad 	and	$r13,$r5,$r11
  21372c:	02c021ab 	addi.d	$r11,$r13,8(0x8)
  213730:	0340e18c 	andi	$r12,$r12,0x38
  213734:	28c001ad 	ld.d	$r13,$r13,0
  213738:	001929ae 	srl.d	$r14,$r13,$r10
  21373c:	28c0016d 	ld.d	$r13,$r11,0
  213740:	0018b1af 	sll.d	$r15,$r13,$r12
  213744:	001539ee 	or	$r14,$r15,$r14
  213748:	29c0010e 	st.d	$r14,$r8,0
  21374c:	02c0216b 	addi.d	$r11,$r11,8(0x8)
  213750:	02c02108 	addi.d	$r8,$r8,8(0x8)
  213754:	6bffe507 	bltu	$r8,$r7,-28(0x3ffe4) # 213738 <_ZN17compiler_builtins3mem7memmove17h2179fd6c76f3f9fcE+0x118>
  213758:	50008800 	b	136(0x88) # 2137e0 <_ZN17compiler_builtins3mem7memmove17h2179fd6c76f3f9fcE+0x1c0>
  21375c:	00150085 	move	$r5,$r4
  213760:	50004400 	b	68(0x44) # 2137a4 <_ZN17compiler_builtins3mem7memmove17h2179fd6c76f3f9fcE+0x184>
  213764:	00150087 	move	$r7,$r4
  213768:	440084c0 	bnez	$r6,132(0x84) # 2137ec <_ZN17compiler_builtins3mem7memmove17h2179fd6c76f3f9fcE+0x1cc>
  21376c:	50009800 	b	152(0x98) # 213804 <_ZN17compiler_builtins3mem7memmove17h2179fd6c76f3f9fcE+0x1e4>
  213770:	02bffc0b 	addi.w	$r11,$r0,-1(0xfff)
  213774:	60002169 	blt	$r11,$r9,32(0x20) # 213794 <_ZN17compiler_builtins3mem7memmove17h2179fd6c76f3f9fcE+0x174>
  213778:	001094c5 	add.d	$r5,$r6,$r5
  21377c:	02ffe0a5 	addi.d	$r5,$r5,-8(0xff8)
  213780:	28c000ab 	ld.d	$r11,$r5,0
  213784:	29ffe10b 	st.d	$r11,$r8,-8(0xff8)
  213788:	02ffe0a5 	addi.d	$r5,$r5,-8(0xff8)
  21378c:	02ffe108 	addi.d	$r8,$r8,-8(0xff8)
  213790:	6bfff0e8 	bltu	$r7,$r8,-16(0x3fff0) # 213780 <_ZN17compiler_builtins3mem7memmove17h2179fd6c76f3f9fcE+0x160>
  213794:	03401cc5 	andi	$r5,$r6,0x7
  213798:	40006ca0 	beqz	$r5,108(0x6c) # 213804 <_ZN17compiler_builtins3mem7memmove17h2179fd6c76f3f9fcE+0x1e4>
  21379c:	0010a54a 	add.d	$r10,$r10,$r9
  2137a0:	001194e5 	sub.d	$r5,$r7,$r5
  2137a4:	02fffd46 	addi.d	$r6,$r10,-1(0xfff)
  2137a8:	280000c8 	ld.b	$r8,$r6,0
  2137ac:	293ffce8 	st.b	$r8,$r7,-1(0xfff)
  2137b0:	02fffcc6 	addi.d	$r6,$r6,-1(0xfff)
  2137b4:	02fffce7 	addi.d	$r7,$r7,-1(0xfff)
  2137b8:	6bfff0a7 	bltu	$r5,$r7,-16(0x3fff0) # 2137a8 <_ZN17compiler_builtins3mem7memmove17h2179fd6c76f3f9fcE+0x188>
  2137bc:	50004800 	b	72(0x48) # 213804 <_ZN17compiler_builtins3mem7memmove17h2179fd6c76f3f9fcE+0x1e4>
  2137c0:	0380040a 	ori	$r10,$r0,0x1
  2137c4:	60001d2a 	blt	$r9,$r10,28(0x1c) # 2137e0 <_ZN17compiler_builtins3mem7memmove17h2179fd6c76f3f9fcE+0x1c0>
  2137c8:	001500aa 	move	$r10,$r5
  2137cc:	28c0014b 	ld.d	$r11,$r10,0
  2137d0:	29c0010b 	st.d	$r11,$r8,0
  2137d4:	02c0214a 	addi.d	$r10,$r10,8(0x8)
  2137d8:	02c02108 	addi.d	$r8,$r8,8(0x8)
  2137dc:	6bfff107 	bltu	$r8,$r7,-16(0x3fff0) # 2137cc <_ZN17compiler_builtins3mem7memmove17h2179fd6c76f3f9fcE+0x1ac>
  2137e0:	0010a4a5 	add.d	$r5,$r5,$r9
  2137e4:	03401cc6 	andi	$r6,$r6,0x7
  2137e8:	40001cc0 	beqz	$r6,28(0x1c) # 213804 <_ZN17compiler_builtins3mem7memmove17h2179fd6c76f3f9fcE+0x1e4>
  2137ec:	001098e6 	add.d	$r6,$r7,$r6
  2137f0:	280000a8 	ld.b	$r8,$r5,0
  2137f4:	290000e8 	st.b	$r8,$r7,0
  2137f8:	02c004a5 	addi.d	$r5,$r5,1(0x1)
  2137fc:	02c004e7 	addi.d	$r7,$r7,1(0x1)
  213800:	6bfff0e6 	bltu	$r7,$r6,-16(0x3fff0) # 2137f0 <_ZN17compiler_builtins3mem7memmove17h2179fd6c76f3f9fcE+0x1d0>
  213804:	4c000020 	jirl	$r0,$r1,0

0000000000213808 <_ZN17compiler_builtins3mem6memset17hce0e718d3df56fc2E>:
_ZN17compiler_builtins3mem6memset17hce0e718d3df56fc2E():
  213808:	03803c07 	ori	$r7,$r0,0xf
  21380c:	6c006ce6 	bgeu	$r7,$r6,108(0x6c) # 213878 <_ZN17compiler_builtins3mem6memset17hce0e718d3df56fc2E+0x70>
  213810:	00119007 	sub.d	$r7,$r0,$r4
  213814:	03401ce7 	andi	$r7,$r7,0x7
  213818:	00109c88 	add.d	$r8,$r4,$r7
  21381c:	400014e0 	beqz	$r7,20(0x14) # 213830 <_ZN17compiler_builtins3mem6memset17hce0e718d3df56fc2E+0x28>
  213820:	00150089 	move	$r9,$r4
  213824:	29000125 	st.b	$r5,$r9,0
  213828:	02c00529 	addi.d	$r9,$r9,1(0x1)
  21382c:	6bfff928 	bltu	$r9,$r8,-8(0x3fff8) # 213824 <_ZN17compiler_builtins3mem6memset17hce0e718d3df56fc2E+0x1c>
  213830:	14020209 	lu12i.w	$r9,4112(0x1010)
  213834:	00119cc6 	sub.d	$r6,$r6,$r7
  213838:	02bfe007 	addi.w	$r7,$r0,-8(0xff8)
  21383c:	00149cca 	and	$r10,$r6,$r7
  213840:	0010a907 	add.d	$r7,$r8,$r10
  213844:	0380040b 	ori	$r11,$r0,0x1
  213848:	6000254b 	blt	$r10,$r11,36(0x24) # 21386c <_ZN17compiler_builtins3mem6memset17hce0e718d3df56fc2E+0x64>
  21384c:	03840529 	ori	$r9,$r9,0x101
  213850:	0343fcaa 	andi	$r10,$r5,0xff
  213854:	001da549 	mul.d	$r9,$r10,$r9
  213858:	0041812a 	slli.d	$r10,$r9,0x20
  21385c:	00152549 	or	$r9,$r10,$r9
  213860:	29c00109 	st.d	$r9,$r8,0
  213864:	02c02108 	addi.d	$r8,$r8,8(0x8)
  213868:	6bfff907 	bltu	$r8,$r7,-8(0x3fff8) # 213860 <_ZN17compiler_builtins3mem6memset17hce0e718d3df56fc2E+0x58>
  21386c:	03401cc6 	andi	$r6,$r6,0x7
  213870:	440010c0 	bnez	$r6,16(0x10) # 213880 <_ZN17compiler_builtins3mem6memset17hce0e718d3df56fc2E+0x78>
  213874:	50001c00 	b	28(0x1c) # 213890 <_ZN17compiler_builtins3mem6memset17hce0e718d3df56fc2E+0x88>
  213878:	00150087 	move	$r7,$r4
  21387c:	400014c0 	beqz	$r6,20(0x14) # 213890 <_ZN17compiler_builtins3mem6memset17hce0e718d3df56fc2E+0x88>
  213880:	001098e6 	add.d	$r6,$r7,$r6
  213884:	290000e5 	st.b	$r5,$r7,0
  213888:	02c004e7 	addi.d	$r7,$r7,1(0x1)
  21388c:	6bfff8e6 	bltu	$r7,$r6,-8(0x3fff8) # 213884 <_ZN17compiler_builtins3mem6memset17hce0e718d3df56fc2E+0x7c>
  213890:	4c000020 	jirl	$r0,$r1,0

0000000000213894 <_ZN17compiler_builtins3mem6memcmp17hb9057c600318ff5dE>:
_ZN17compiler_builtins3mem6memcmp17hb9057c600318ff5dE():
  213894:	400020c0 	beqz	$r6,32(0x20) # 2138b4 <_ZN17compiler_builtins3mem6memcmp17hb9057c600318ff5dE+0x20>
  213898:	2a0000a7 	ld.bu	$r7,$r5,0
  21389c:	2a000088 	ld.bu	$r8,$r4,0
  2138a0:	5c001d07 	bne	$r8,$r7,28(0x1c) # 2138bc <_ZN17compiler_builtins3mem6memcmp17hb9057c600318ff5dE+0x28>
  2138a4:	02c00484 	addi.d	$r4,$r4,1(0x1)
  2138a8:	02c004a5 	addi.d	$r5,$r5,1(0x1)
  2138ac:	02fffcc6 	addi.d	$r6,$r6,-1(0xfff)
  2138b0:	47ffe8df 	bnez	$r6,-24(0x7fffe8) # 213898 <_ZN17compiler_builtins3mem6memcmp17hb9057c600318ff5dE+0x4>
  2138b4:	00150004 	move	$r4,$r0
  2138b8:	4c000020 	jirl	$r0,$r1,0
  2138bc:	00119d04 	sub.d	$r4,$r8,$r7
  2138c0:	4c000020 	jirl	$r0,$r1,0

00000000002138c4 <memset>:
memset():
  2138c4:	53ff47ff 	b	-188(0xfffff44) # 213808 <_ZN17compiler_builtins3mem6memset17hce0e718d3df56fc2E>

00000000002138c8 <memcmp>:
memcmp():
  2138c8:	53ffcfff 	b	-52(0xfffffcc) # 213894 <_ZN17compiler_builtins3mem6memcmp17hb9057c600318ff5dE>

00000000002138cc <memcpy>:
memcpy():
  2138cc:	53fc6fff 	b	-916(0xffffc6c) # 213538 <_ZN17compiler_builtins3mem6memcpy17hb4541a873fff7549E>
  2138d0:	002a0000 	break	0x0
  2138d4:	002a0000 	break	0x0
  2138d8:	002a0000 	break	0x0
  2138dc:	002a0000 	break	0x0
  2138e0:	002a0000 	break	0x0
  2138e4:	002a0000 	break	0x0
  2138e8:	002a0000 	break	0x0
  2138ec:	002a0000 	break	0x0
  2138f0:	002a0000 	break	0x0
  2138f4:	002a0000 	break	0x0
  2138f8:	002a0000 	break	0x0
  2138fc:	002a0000 	break	0x0
  213900:	002a0000 	break	0x0
  213904:	002a0000 	break	0x0
  213908:	002a0000 	break	0x0
  21390c:	002a0000 	break	0x0
  213910:	002a0000 	break	0x0
  213914:	002a0000 	break	0x0
  213918:	002a0000 	break	0x0
  21391c:	002a0000 	break	0x0
  213920:	002a0000 	break	0x0
  213924:	002a0000 	break	0x0
  213928:	002a0000 	break	0x0
  21392c:	002a0000 	break	0x0
  213930:	002a0000 	break	0x0
  213934:	002a0000 	break	0x0
  213938:	002a0000 	break	0x0
  21393c:	002a0000 	break	0x0
  213940:	002a0000 	break	0x0
  213944:	002a0000 	break	0x0
  213948:	002a0000 	break	0x0
  21394c:	002a0000 	break	0x0
  213950:	002a0000 	break	0x0
  213954:	002a0000 	break	0x0
  213958:	002a0000 	break	0x0
  21395c:	002a0000 	break	0x0
  213960:	002a0000 	break	0x0
  213964:	002a0000 	break	0x0
  213968:	002a0000 	break	0x0
  21396c:	002a0000 	break	0x0
  213970:	002a0000 	break	0x0
  213974:	002a0000 	break	0x0
  213978:	002a0000 	break	0x0
  21397c:	002a0000 	break	0x0
  213980:	002a0000 	break	0x0
  213984:	002a0000 	break	0x0
  213988:	002a0000 	break	0x0
  21398c:	002a0000 	break	0x0
  213990:	002a0000 	break	0x0
  213994:	002a0000 	break	0x0
  213998:	002a0000 	break	0x0
  21399c:	002a0000 	break	0x0
  2139a0:	002a0000 	break	0x0
  2139a4:	002a0000 	break	0x0
  2139a8:	002a0000 	break	0x0
  2139ac:	002a0000 	break	0x0
  2139b0:	002a0000 	break	0x0
  2139b4:	002a0000 	break	0x0
  2139b8:	002a0000 	break	0x0
  2139bc:	002a0000 	break	0x0
  2139c0:	002a0000 	break	0x0
  2139c4:	002a0000 	break	0x0
  2139c8:	002a0000 	break	0x0
  2139cc:	002a0000 	break	0x0
  2139d0:	002a0000 	break	0x0
  2139d4:	002a0000 	break	0x0
  2139d8:	002a0000 	break	0x0
  2139dc:	002a0000 	break	0x0
  2139e0:	002a0000 	break	0x0
  2139e4:	002a0000 	break	0x0
  2139e8:	002a0000 	break	0x0
  2139ec:	002a0000 	break	0x0
  2139f0:	002a0000 	break	0x0
  2139f4:	002a0000 	break	0x0
  2139f8:	002a0000 	break	0x0
  2139fc:	002a0000 	break	0x0
  213a00:	002a0000 	break	0x0
  213a04:	002a0000 	break	0x0
  213a08:	002a0000 	break	0x0
  213a0c:	002a0000 	break	0x0
  213a10:	002a0000 	break	0x0
  213a14:	002a0000 	break	0x0
  213a18:	002a0000 	break	0x0
  213a1c:	002a0000 	break	0x0
  213a20:	002a0000 	break	0x0
  213a24:	002a0000 	break	0x0
  213a28:	002a0000 	break	0x0
  213a2c:	002a0000 	break	0x0
  213a30:	002a0000 	break	0x0
  213a34:	002a0000 	break	0x0
  213a38:	002a0000 	break	0x0
  213a3c:	002a0000 	break	0x0
  213a40:	002a0000 	break	0x0
  213a44:	002a0000 	break	0x0
  213a48:	002a0000 	break	0x0
  213a4c:	002a0000 	break	0x0
  213a50:	002a0000 	break	0x0
  213a54:	002a0000 	break	0x0
  213a58:	002a0000 	break	0x0
  213a5c:	002a0000 	break	0x0
  213a60:	002a0000 	break	0x0
  213a64:	002a0000 	break	0x0
  213a68:	002a0000 	break	0x0
  213a6c:	002a0000 	break	0x0
  213a70:	002a0000 	break	0x0
  213a74:	002a0000 	break	0x0
  213a78:	002a0000 	break	0x0
  213a7c:	002a0000 	break	0x0
  213a80:	002a0000 	break	0x0
  213a84:	002a0000 	break	0x0
  213a88:	002a0000 	break	0x0
  213a8c:	002a0000 	break	0x0
  213a90:	002a0000 	break	0x0
  213a94:	002a0000 	break	0x0
  213a98:	002a0000 	break	0x0
  213a9c:	002a0000 	break	0x0
  213aa0:	002a0000 	break	0x0
  213aa4:	002a0000 	break	0x0
  213aa8:	002a0000 	break	0x0
  213aac:	002a0000 	break	0x0
  213ab0:	002a0000 	break	0x0
  213ab4:	002a0000 	break	0x0
  213ab8:	002a0000 	break	0x0
  213abc:	002a0000 	break	0x0
  213ac0:	002a0000 	break	0x0
  213ac4:	002a0000 	break	0x0
  213ac8:	002a0000 	break	0x0
  213acc:	002a0000 	break	0x0
  213ad0:	002a0000 	break	0x0
  213ad4:	002a0000 	break	0x0
  213ad8:	002a0000 	break	0x0
  213adc:	002a0000 	break	0x0
  213ae0:	002a0000 	break	0x0
  213ae4:	002a0000 	break	0x0
  213ae8:	002a0000 	break	0x0
  213aec:	002a0000 	break	0x0
  213af0:	002a0000 	break	0x0
  213af4:	002a0000 	break	0x0
  213af8:	002a0000 	break	0x0
  213afc:	002a0000 	break	0x0
  213b00:	002a0000 	break	0x0
  213b04:	002a0000 	break	0x0
  213b08:	002a0000 	break	0x0
  213b0c:	002a0000 	break	0x0
  213b10:	002a0000 	break	0x0
  213b14:	002a0000 	break	0x0
  213b18:	002a0000 	break	0x0
  213b1c:	002a0000 	break	0x0
  213b20:	002a0000 	break	0x0
  213b24:	002a0000 	break	0x0
  213b28:	002a0000 	break	0x0
  213b2c:	002a0000 	break	0x0
  213b30:	002a0000 	break	0x0
  213b34:	002a0000 	break	0x0
  213b38:	002a0000 	break	0x0
  213b3c:	002a0000 	break	0x0
  213b40:	002a0000 	break	0x0
  213b44:	002a0000 	break	0x0
  213b48:	002a0000 	break	0x0
  213b4c:	002a0000 	break	0x0
  213b50:	002a0000 	break	0x0
  213b54:	002a0000 	break	0x0
  213b58:	002a0000 	break	0x0
  213b5c:	002a0000 	break	0x0
  213b60:	002a0000 	break	0x0
  213b64:	002a0000 	break	0x0
  213b68:	002a0000 	break	0x0
  213b6c:	002a0000 	break	0x0
  213b70:	002a0000 	break	0x0
  213b74:	002a0000 	break	0x0
  213b78:	002a0000 	break	0x0
  213b7c:	002a0000 	break	0x0
  213b80:	002a0000 	break	0x0
  213b84:	002a0000 	break	0x0
  213b88:	002a0000 	break	0x0
  213b8c:	002a0000 	break	0x0
  213b90:	002a0000 	break	0x0
  213b94:	002a0000 	break	0x0
  213b98:	002a0000 	break	0x0
  213b9c:	002a0000 	break	0x0
  213ba0:	002a0000 	break	0x0
  213ba4:	002a0000 	break	0x0
  213ba8:	002a0000 	break	0x0
  213bac:	002a0000 	break	0x0
  213bb0:	002a0000 	break	0x0
  213bb4:	002a0000 	break	0x0
  213bb8:	002a0000 	break	0x0
  213bbc:	002a0000 	break	0x0
  213bc0:	002a0000 	break	0x0
  213bc4:	002a0000 	break	0x0
  213bc8:	002a0000 	break	0x0
  213bcc:	002a0000 	break	0x0
  213bd0:	002a0000 	break	0x0
  213bd4:	002a0000 	break	0x0
  213bd8:	002a0000 	break	0x0
  213bdc:	002a0000 	break	0x0
  213be0:	002a0000 	break	0x0
  213be4:	002a0000 	break	0x0
  213be8:	002a0000 	break	0x0
  213bec:	002a0000 	break	0x0
  213bf0:	002a0000 	break	0x0
  213bf4:	002a0000 	break	0x0
  213bf8:	002a0000 	break	0x0
  213bfc:	002a0000 	break	0x0
  213c00:	002a0000 	break	0x0
  213c04:	002a0000 	break	0x0
  213c08:	002a0000 	break	0x0
  213c0c:	002a0000 	break	0x0
  213c10:	002a0000 	break	0x0
  213c14:	002a0000 	break	0x0
  213c18:	002a0000 	break	0x0
  213c1c:	002a0000 	break	0x0
  213c20:	002a0000 	break	0x0
  213c24:	002a0000 	break	0x0
  213c28:	002a0000 	break	0x0
  213c2c:	002a0000 	break	0x0
  213c30:	002a0000 	break	0x0
  213c34:	002a0000 	break	0x0
  213c38:	002a0000 	break	0x0
  213c3c:	002a0000 	break	0x0
  213c40:	002a0000 	break	0x0
  213c44:	002a0000 	break	0x0
  213c48:	002a0000 	break	0x0
  213c4c:	002a0000 	break	0x0
  213c50:	002a0000 	break	0x0
  213c54:	002a0000 	break	0x0
  213c58:	002a0000 	break	0x0
  213c5c:	002a0000 	break	0x0
  213c60:	002a0000 	break	0x0
  213c64:	002a0000 	break	0x0
  213c68:	002a0000 	break	0x0
  213c6c:	002a0000 	break	0x0
  213c70:	002a0000 	break	0x0
  213c74:	002a0000 	break	0x0
  213c78:	002a0000 	break	0x0
  213c7c:	002a0000 	break	0x0
  213c80:	002a0000 	break	0x0
  213c84:	002a0000 	break	0x0
  213c88:	002a0000 	break	0x0
  213c8c:	002a0000 	break	0x0
  213c90:	002a0000 	break	0x0
  213c94:	002a0000 	break	0x0
  213c98:	002a0000 	break	0x0
  213c9c:	002a0000 	break	0x0
  213ca0:	002a0000 	break	0x0
  213ca4:	002a0000 	break	0x0
  213ca8:	002a0000 	break	0x0
  213cac:	002a0000 	break	0x0
  213cb0:	002a0000 	break	0x0
  213cb4:	002a0000 	break	0x0
  213cb8:	002a0000 	break	0x0
  213cbc:	002a0000 	break	0x0
  213cc0:	002a0000 	break	0x0
  213cc4:	002a0000 	break	0x0
  213cc8:	002a0000 	break	0x0
  213ccc:	002a0000 	break	0x0
  213cd0:	002a0000 	break	0x0
  213cd4:	002a0000 	break	0x0
  213cd8:	002a0000 	break	0x0
  213cdc:	002a0000 	break	0x0
  213ce0:	002a0000 	break	0x0
  213ce4:	002a0000 	break	0x0
  213ce8:	002a0000 	break	0x0
  213cec:	002a0000 	break	0x0
  213cf0:	002a0000 	break	0x0
  213cf4:	002a0000 	break	0x0
  213cf8:	002a0000 	break	0x0
  213cfc:	002a0000 	break	0x0
  213d00:	002a0000 	break	0x0
  213d04:	002a0000 	break	0x0
  213d08:	002a0000 	break	0x0
  213d0c:	002a0000 	break	0x0
  213d10:	002a0000 	break	0x0
  213d14:	002a0000 	break	0x0
  213d18:	002a0000 	break	0x0
  213d1c:	002a0000 	break	0x0
  213d20:	002a0000 	break	0x0
  213d24:	002a0000 	break	0x0
  213d28:	002a0000 	break	0x0
  213d2c:	002a0000 	break	0x0
  213d30:	002a0000 	break	0x0
  213d34:	002a0000 	break	0x0
  213d38:	002a0000 	break	0x0
  213d3c:	002a0000 	break	0x0
  213d40:	002a0000 	break	0x0
  213d44:	002a0000 	break	0x0
  213d48:	002a0000 	break	0x0
  213d4c:	002a0000 	break	0x0
  213d50:	002a0000 	break	0x0
  213d54:	002a0000 	break	0x0
  213d58:	002a0000 	break	0x0
  213d5c:	002a0000 	break	0x0
  213d60:	002a0000 	break	0x0
  213d64:	002a0000 	break	0x0
  213d68:	002a0000 	break	0x0
  213d6c:	002a0000 	break	0x0
  213d70:	002a0000 	break	0x0
  213d74:	002a0000 	break	0x0
  213d78:	002a0000 	break	0x0
  213d7c:	002a0000 	break	0x0
  213d80:	002a0000 	break	0x0
  213d84:	002a0000 	break	0x0
  213d88:	002a0000 	break	0x0
  213d8c:	002a0000 	break	0x0
  213d90:	002a0000 	break	0x0
  213d94:	002a0000 	break	0x0
  213d98:	002a0000 	break	0x0
  213d9c:	002a0000 	break	0x0
  213da0:	002a0000 	break	0x0
  213da4:	002a0000 	break	0x0
  213da8:	002a0000 	break	0x0
  213dac:	002a0000 	break	0x0
  213db0:	002a0000 	break	0x0
  213db4:	002a0000 	break	0x0
  213db8:	002a0000 	break	0x0
  213dbc:	002a0000 	break	0x0
  213dc0:	002a0000 	break	0x0
  213dc4:	002a0000 	break	0x0
  213dc8:	002a0000 	break	0x0
  213dcc:	002a0000 	break	0x0
  213dd0:	002a0000 	break	0x0
  213dd4:	002a0000 	break	0x0
  213dd8:	002a0000 	break	0x0
  213ddc:	002a0000 	break	0x0
  213de0:	002a0000 	break	0x0
  213de4:	002a0000 	break	0x0
  213de8:	002a0000 	break	0x0
  213dec:	002a0000 	break	0x0
  213df0:	002a0000 	break	0x0
  213df4:	002a0000 	break	0x0
  213df8:	002a0000 	break	0x0
  213dfc:	002a0000 	break	0x0
  213e00:	002a0000 	break	0x0
  213e04:	002a0000 	break	0x0
  213e08:	002a0000 	break	0x0
  213e0c:	002a0000 	break	0x0
  213e10:	002a0000 	break	0x0
  213e14:	002a0000 	break	0x0
  213e18:	002a0000 	break	0x0
  213e1c:	002a0000 	break	0x0
  213e20:	002a0000 	break	0x0
  213e24:	002a0000 	break	0x0
  213e28:	002a0000 	break	0x0
  213e2c:	002a0000 	break	0x0
  213e30:	002a0000 	break	0x0
  213e34:	002a0000 	break	0x0
  213e38:	002a0000 	break	0x0
  213e3c:	002a0000 	break	0x0
  213e40:	002a0000 	break	0x0
  213e44:	002a0000 	break	0x0
  213e48:	002a0000 	break	0x0
  213e4c:	002a0000 	break	0x0
  213e50:	002a0000 	break	0x0
  213e54:	002a0000 	break	0x0
  213e58:	002a0000 	break	0x0
  213e5c:	002a0000 	break	0x0
  213e60:	002a0000 	break	0x0
  213e64:	002a0000 	break	0x0
  213e68:	002a0000 	break	0x0
  213e6c:	002a0000 	break	0x0
  213e70:	002a0000 	break	0x0
  213e74:	002a0000 	break	0x0
  213e78:	002a0000 	break	0x0
  213e7c:	002a0000 	break	0x0
  213e80:	002a0000 	break	0x0
  213e84:	002a0000 	break	0x0
  213e88:	002a0000 	break	0x0
  213e8c:	002a0000 	break	0x0
  213e90:	002a0000 	break	0x0
  213e94:	002a0000 	break	0x0
  213e98:	002a0000 	break	0x0
  213e9c:	002a0000 	break	0x0
  213ea0:	002a0000 	break	0x0
  213ea4:	002a0000 	break	0x0
  213ea8:	002a0000 	break	0x0
  213eac:	002a0000 	break	0x0
  213eb0:	002a0000 	break	0x0
  213eb4:	002a0000 	break	0x0
  213eb8:	002a0000 	break	0x0
  213ebc:	002a0000 	break	0x0
  213ec0:	002a0000 	break	0x0
  213ec4:	002a0000 	break	0x0
  213ec8:	002a0000 	break	0x0
  213ecc:	002a0000 	break	0x0
  213ed0:	002a0000 	break	0x0
  213ed4:	002a0000 	break	0x0
  213ed8:	002a0000 	break	0x0
  213edc:	002a0000 	break	0x0
  213ee0:	002a0000 	break	0x0
  213ee4:	002a0000 	break	0x0
  213ee8:	002a0000 	break	0x0
  213eec:	002a0000 	break	0x0
  213ef0:	002a0000 	break	0x0
  213ef4:	002a0000 	break	0x0
  213ef8:	002a0000 	break	0x0
  213efc:	002a0000 	break	0x0
  213f00:	002a0000 	break	0x0
  213f04:	002a0000 	break	0x0
  213f08:	002a0000 	break	0x0
  213f0c:	002a0000 	break	0x0
  213f10:	002a0000 	break	0x0
  213f14:	002a0000 	break	0x0
  213f18:	002a0000 	break	0x0
  213f1c:	002a0000 	break	0x0
  213f20:	002a0000 	break	0x0
  213f24:	002a0000 	break	0x0
  213f28:	002a0000 	break	0x0
  213f2c:	002a0000 	break	0x0
  213f30:	002a0000 	break	0x0
  213f34:	002a0000 	break	0x0
  213f38:	002a0000 	break	0x0
  213f3c:	002a0000 	break	0x0
  213f40:	002a0000 	break	0x0
  213f44:	002a0000 	break	0x0
  213f48:	002a0000 	break	0x0
  213f4c:	002a0000 	break	0x0
  213f50:	002a0000 	break	0x0
  213f54:	002a0000 	break	0x0
  213f58:	002a0000 	break	0x0
  213f5c:	002a0000 	break	0x0
  213f60:	002a0000 	break	0x0
  213f64:	002a0000 	break	0x0
  213f68:	002a0000 	break	0x0
  213f6c:	002a0000 	break	0x0
  213f70:	002a0000 	break	0x0
  213f74:	002a0000 	break	0x0
  213f78:	002a0000 	break	0x0
  213f7c:	002a0000 	break	0x0
  213f80:	002a0000 	break	0x0
  213f84:	002a0000 	break	0x0
  213f88:	002a0000 	break	0x0
  213f8c:	002a0000 	break	0x0
  213f90:	002a0000 	break	0x0
  213f94:	002a0000 	break	0x0
  213f98:	002a0000 	break	0x0
  213f9c:	002a0000 	break	0x0
  213fa0:	002a0000 	break	0x0
  213fa4:	002a0000 	break	0x0
  213fa8:	002a0000 	break	0x0
  213fac:	002a0000 	break	0x0
  213fb0:	002a0000 	break	0x0
  213fb4:	002a0000 	break	0x0
  213fb8:	002a0000 	break	0x0
  213fbc:	002a0000 	break	0x0
  213fc0:	002a0000 	break	0x0
  213fc4:	002a0000 	break	0x0
  213fc8:	002a0000 	break	0x0
  213fcc:	002a0000 	break	0x0
  213fd0:	002a0000 	break	0x0
  213fd4:	002a0000 	break	0x0
  213fd8:	002a0000 	break	0x0
  213fdc:	002a0000 	break	0x0
  213fe0:	002a0000 	break	0x0
  213fe4:	002a0000 	break	0x0
  213fe8:	002a0000 	break	0x0
  213fec:	002a0000 	break	0x0
  213ff0:	002a0000 	break	0x0
  213ff4:	002a0000 	break	0x0
  213ff8:	002a0000 	break	0x0
  213ffc:	002a0000 	break	0x0
